Microsoft Windows [Version 10.0.19044.1586]
(c) Microsoft Corporation. All rights reserved.

C:\Users\mfati\Documents\GitHub\GradProject\disassembler_opcodes>c:

C:\Users\mfati\Documents\GitHub\GradProject\disassembler_opcodes>cd C:\Program Files (x86)\Microsoft Visual Studio\2019\Community\VC\Tools\MSVC\14.29.30133\bin\Hostx64\x86

C:\Program Files (x86)\Microsoft Visual Studio\2019\Community\VC\Tools\MSVC\14.29.30133\bin\Hostx64\x86>dumpbin /DISASM C:\Users\mfati\Documents\GitHub\GradProject\disassembler_opcodes\RansomwareTestData\VirusShare_3b8326bdd066ca940f2fbbc23ea35c66
Microsoft (R) COFF/PE Dumper Version 14.29.30133.0
Copyright (C) Microsoft Corporation.  All rights reserved.


Dump of file C:\Users\mfati\Documents\GitHub\GradProject\disassembler_opcodes\RansomwareTestData\VirusShare_3b8326bdd066ca940f2fbbc23ea35c66

File Type: EXECUTABLE IMAGE

  00401000: 55                 push        ebp
  00401001: 8B EC              mov         ebp,esp
  00401003: 8B 45 08           mov         eax,dword ptr [ebp+8]
  00401006: 8B 40 FC           mov         eax,dword ptr [eax-4]
  00401009: 5D                 pop         ebp
  0040100A: C3                 ret
  0040100B: CC                 int         3
  0040100C: CC                 int         3
  0040100D: CC                 int         3
  0040100E: CC                 int         3
  0040100F: CC                 int         3
  00401010: 55                 push        ebp
  00401011: 8B EC              mov         ebp,esp
  00401013: 51                 push        ecx
  00401014: A1 8C 71 40 00     mov         eax,dword ptr ds:[0040718Ch]
  00401019: 89 45 FC           mov         dword ptr [ebp-4],eax
  0040101C: 6A 40              push        40h
  0040101E: 68 00 30 00 00     push        3000h
  00401023: 8B 4D 08           mov         ecx,dword ptr [ebp+8]
  00401026: 51                 push        ecx
  00401027: 6A 00              push        0
  00401029: FF 55 FC           call        dword ptr [ebp-4]
  0040102C: 8B E5              mov         esp,ebp
  0040102E: 5D                 pop         ebp
  0040102F: C3                 ret
  00401030: 55                 push        ebp
  00401031: 8B EC              mov         ebp,esp
  00401033: 83 EC 0C           sub         esp,0Ch
  00401036: 8B 45 08           mov         eax,dword ptr [ebp+8]
  00401039: 89 45 F8           mov         dword ptr [ebp-8],eax
  0040103C: 8B 4D 0C           mov         ecx,dword ptr [ebp+0Ch]
  0040103F: 89 4D F4           mov         dword ptr [ebp-0Ch],ecx
  00401042: C7 45 FC 2C 60 09  mov         dword ptr [ebp-4],9602Ch
            00
  00401049: 33 D2              xor         edx,edx
  0040104B: 74 04              je          00401051
  0040104D: 33 C0              xor         eax,eax
  0040104F: EB 12              jmp         00401063
  00401051: 8B 45 F8           mov         eax,dword ptr [ebp-8]
  00401054: 3B 45 F4           cmp         eax,dword ptr [ebp-0Ch]
  00401057: 73 07              jae         00401060
  00401059: 8B 45 F8           mov         eax,dword ptr [ebp-8]
  0040105C: EB 05              jmp         00401063
  0040105E: EB 03              jmp         00401063
  00401060: 8B 45 F4           mov         eax,dword ptr [ebp-0Ch]
  00401063: 8B E5              mov         esp,ebp
  00401065: 5D                 pop         ebp
  00401066: C3                 ret
  00401067: CC                 int         3
  00401068: CC                 int         3
  00401069: CC                 int         3
  0040106A: CC                 int         3
  0040106B: CC                 int         3
  0040106C: CC                 int         3
  0040106D: CC                 int         3
  0040106E: CC                 int         3
  0040106F: CC                 int         3
  00401070: 55                 push        ebp
  00401071: 8B EC              mov         ebp,esp
  00401073: 83 EC 08           sub         esp,8
  00401076: C7 45 FC 00 00 00  mov         dword ptr [ebp-4],0
            00
  0040107D: EB 09              jmp         00401088
  0040107F: 8B 45 FC           mov         eax,dword ptr [ebp-4]
  00401082: 83 C0 01           add         eax,1
  00401085: 89 45 FC           mov         dword ptr [ebp-4],eax
  00401088: 8B 4D FC           mov         ecx,dword ptr [ebp-4]
  0040108B: 3B 4D 08           cmp         ecx,dword ptr [ebp+8]
  0040108E: 73 54              jae         004010E4
  00401090: 8B 55 FC           mov         edx,dword ptr [ebp-4]
  00401093: 8B 45 0C           mov         eax,dword ptr [ebp+0Ch]
  00401096: 0F B7 0C 50        movzx       ecx,word ptr [eax+edx*2]
  0040109A: C1 F9 0C           sar         ecx,0Ch
  0040109D: 83 F9 03           cmp         ecx,3
  004010A0: 75 40              jne         004010E2
  004010A2: 8B 55 FC           mov         edx,dword ptr [ebp-4]
  004010A5: 8B 45 0C           mov         eax,dword ptr [ebp+0Ch]
  004010A8: 0F B7 0C 50        movzx       ecx,word ptr [eax+edx*2]
  004010AC: 81 E1 FF 0F 00 00  and         ecx,0FFFh
  004010B2: 81 C1 7E E8 03 00  add         ecx,3E87Eh
  004010B8: 89 4D F8           mov         dword ptr [ebp-8],ecx
  004010BB: 8B 55 18           mov         edx,dword ptr [ebp+18h]
  004010BE: 8B 45 10           mov         eax,dword ptr [ebp+10h]
  004010C1: 03 02              add         eax,dword ptr [edx]
  004010C3: 8B 4D F8           mov         ecx,dword ptr [ebp-8]
  004010C6: 8B 94 08 82 17 FC  mov         edx,dword ptr [eax+ecx+FFFC1782h]
            FF
  004010CD: 03 55 14           add         edx,dword ptr [ebp+14h]
  004010D0: 8B 45 18           mov         eax,dword ptr [ebp+18h]
  004010D3: 8B 4D 10           mov         ecx,dword ptr [ebp+10h]
  004010D6: 03 08              add         ecx,dword ptr [eax]
  004010D8: 8B 45 F8           mov         eax,dword ptr [ebp-8]
  004010DB: 89 94 01 82 17 FC  mov         dword ptr [ecx+eax+FFFC1782h],edx
            FF
  004010E2: EB 9B              jmp         0040107F
  004010E4: 8B E5              mov         esp,ebp
  004010E6: 5D                 pop         ebp
  004010E7: C3                 ret
  004010E8: CC                 int         3
  004010E9: CC                 int         3
  004010EA: CC                 int         3
  004010EB: CC                 int         3
  004010EC: CC                 int         3
  004010ED: CC                 int         3
  004010EE: CC                 int         3
  004010EF: CC                 int         3
  004010F0: 55                 push        ebp
  004010F1: 8B EC              mov         ebp,esp
  004010F3: 83 EC 14           sub         esp,14h
  004010F6: 8B 45 08           mov         eax,dword ptr [ebp+8]
  004010F9: 83 78 04 00        cmp         dword ptr [eax+4],0
  004010FD: 74 48              je          00401147
  004010FF: C7 45 EC 95 41 00  mov         dword ptr [ebp-14h],4195h
            00
  00401106: 8B 4D 08           mov         ecx,dword ptr [ebp+8]
  00401109: 8B 51 04           mov         edx,dword ptr [ecx+4]
  0040110C: 83 EA 08           sub         edx,8
  0040110F: D1 EA              shr         edx,1
  00401111: 89 55 F4           mov         dword ptr [ebp-0Ch],edx
  00401114: 8B 45 08           mov         eax,dword ptr [ebp+8]
  00401117: 83 C0 08           add         eax,8
  0040111A: 89 45 F0           mov         dword ptr [ebp-10h],eax
  0040111D: 8B 4D 08           mov         ecx,dword ptr [ebp+8]
  00401120: 51                 push        ecx
  00401121: 8B 55 10           mov         edx,dword ptr [ebp+10h]
  00401124: 52                 push        edx
  00401125: 8B 45 0C           mov         eax,dword ptr [ebp+0Ch]
  00401128: 50                 push        eax
  00401129: 8B 4D F0           mov         ecx,dword ptr [ebp-10h]
  0040112C: 51                 push        ecx
  0040112D: 8B 55 F4           mov         edx,dword ptr [ebp-0Ch]
  00401130: 52                 push        edx
  00401131: E8 3A FF FF FF     call        00401070
  00401136: 83 C4 14           add         esp,14h
  00401139: 8B 45 08           mov         eax,dword ptr [ebp+8]
  0040113C: 8B 4D 08           mov         ecx,dword ptr [ebp+8]
  0040113F: 03 48 04           add         ecx,dword ptr [eax+4]
  00401142: 89 4D 08           mov         dword ptr [ebp+8],ecx
  00401145: EB AF              jmp         004010F6
  00401147: 8B E5              mov         esp,ebp
  00401149: 5D                 pop         ebp
  0040114A: C3                 ret
  0040114B: CC                 int         3
  0040114C: CC                 int         3
  0040114D: CC                 int         3
  0040114E: CC                 int         3
  0040114F: CC                 int         3
  00401150: 55                 push        ebp
  00401151: 8B EC              mov         ebp,esp
  00401153: 8B 45 08           mov         eax,dword ptr [ebp+8]
  00401156: 8B 08              mov         ecx,dword ptr [eax]
  00401158: 33 0D 84 90 40 00  xor         ecx,dword ptr ds:[00409084h]
  0040115E: 8B 55 08           mov         edx,dword ptr [ebp+8]
  00401161: 89 0A              mov         dword ptr [edx],ecx
  00401163: 5D                 pop         ebp
  00401164: C3                 ret
  00401165: CC                 int         3
  00401166: CC                 int         3
  00401167: CC                 int         3
  00401168: CC                 int         3
  00401169: CC                 int         3
  0040116A: CC                 int         3
  0040116B: CC                 int         3
  0040116C: CC                 int         3
  0040116D: CC                 int         3
  0040116E: CC                 int         3
  0040116F: CC                 int         3
  00401170: 55                 push        ebp
  00401171: 8B EC              mov         ebp,esp
  00401173: 83 EC 0C           sub         esp,0Ch
  00401176: C7 45 FC 61 05 00  mov         dword ptr [ebp-4],561h
            00
  0040117D: C7 45 F4 00 00 00  mov         dword ptr [ebp-0Ch],0
            00
  00401184: EB 09              jmp         0040118F
  00401186: 8B 45 F4           mov         eax,dword ptr [ebp-0Ch]
  00401189: 83 C0 04           add         eax,4
  0040118C: 89 45 F4           mov         dword ptr [ebp-0Ch],eax
  0040118F: 8B 4D F4           mov         ecx,dword ptr [ebp-0Ch]
  00401192: 3B 4D 0C           cmp         ecx,dword ptr [ebp+0Ch]
  00401195: 73 4D              jae         004011E4
  00401197: C7 45 FC 65 02 00  mov         dword ptr [ebp-4],265h
            00
  0040119E: 8B 55 08           mov         edx,dword ptr [ebp+8]
  004011A1: 03 55 F4           add         edx,dword ptr [ebp-0Ch]
  004011A4: 8B 02              mov         eax,dword ptr [edx]
  004011A6: 03 45 F4           add         eax,dword ptr [ebp-0Ch]
  004011A9: 8B 4D 08           mov         ecx,dword ptr [ebp+8]
  004011AC: 03 4D F4           add         ecx,dword ptr [ebp-0Ch]
  004011AF: 89 01              mov         dword ptr [ecx],eax
  004011B1: C7 45 FC 61 05 00  mov         dword ptr [ebp-4],561h
            00
  004011B8: 8B 55 F4           mov         edx,dword ptr [ebp-0Ch]
  004011BB: 81 C2 E0 00 00 00  add         edx,0E0h
  004011C1: 89 55 F8           mov         dword ptr [ebp-8],edx
  004011C4: 8B 45 F8           mov         eax,dword ptr [ebp-8]
  004011C7: A3 84 90 40 00     mov         dword ptr ds:[00409084h],eax
  004011CC: C7 45 FC 61 05 00  mov         dword ptr [ebp-4],561h
            00
  004011D3: 8B 4D 08           mov         ecx,dword ptr [ebp+8]
  004011D6: 03 4D F4           add         ecx,dword ptr [ebp-0Ch]
  004011D9: 51                 push        ecx
  004011DA: E8 71 FF FF FF     call        00401150
  004011DF: 83 C4 04           add         esp,4
  004011E2: EB A2              jmp         00401186
  004011E4: 8B E5              mov         esp,ebp
  004011E6: 5D                 pop         ebp
  004011E7: C3                 ret
  004011E8: CC                 int         3
  004011E9: CC                 int         3
  004011EA: CC                 int         3
  004011EB: CC                 int         3
  004011EC: CC                 int         3
  004011ED: CC                 int         3
  004011EE: CC                 int         3
  004011EF: CC                 int         3
  004011F0: 55                 push        ebp
  004011F1: 8B EC              mov         ebp,esp
  004011F3: 83 EC 1C           sub         esp,1Ch
  004011F6: C7 45 E4 A7 1A 00  mov         dword ptr [ebp-1Ch],1AA7h
            00
  004011FD: C7 45 FC 00 00 00  mov         dword ptr [ebp-4],0
            00
  00401204: C7 45 F4 00 00 00  mov         dword ptr [ebp-0Ch],0
            00
  0040120B: C7 45 E8 64 00 00  mov         dword ptr [ebp-18h],64h
            00
  00401212: 8B 45 0C           mov         eax,dword ptr [ebp+0Ch]
  00401215: 89 45 F0           mov         dword ptr [ebp-10h],eax
  00401218: C7 45 F8 05 00 00  mov         dword ptr [ebp-8],5
            00
  0040121F: 8B 4D FC           mov         ecx,dword ptr [ebp-4]
  00401222: 3B 4D 0C           cmp         ecx,dword ptr [ebp+0Ch]
  00401225: 73 6C              jae         00401293
  00401227: C7 45 E4 A7 1A 00  mov         dword ptr [ebp-1Ch],1AA7h
            00
  0040122E: 8B 55 F0           mov         edx,dword ptr [ebp-10h]
  00401231: 52                 push        edx
  00401232: 8B 45 E8           mov         eax,dword ptr [ebp-18h]
  00401235: 50                 push        eax
  00401236: E8 F5 FD FF FF     call        00401030
  0040123B: 83 C4 08           add         esp,8
  0040123E: 89 45 EC           mov         dword ptr [ebp-14h],eax
  00401241: C7 45 E4 A7 1A 00  mov         dword ptr [ebp-1Ch],1AA7h
            00
  00401248: 8B 4D EC           mov         ecx,dword ptr [ebp-14h]
  0040124B: 51                 push        ecx
  0040124C: 8B 15 7C 90 40 00  mov         edx,dword ptr ds:[0040907Ch]
  00401252: 03 55 F4           add         edx,dword ptr [ebp-0Ch]
  00401255: 52                 push        edx
  00401256: 8B 45 08           mov         eax,dword ptr [ebp+8]
  00401259: 03 45 FC           add         eax,dword ptr [ebp-4]
  0040125C: 50                 push        eax
  0040125D: E8 EA 02 00 00     call        0040154C
  00401262: 83 C4 0C           add         esp,0Ch
  00401265: C7 45 E4 A7 1A 00  mov         dword ptr [ebp-1Ch],1AA7h
            00
  0040126C: 8B 4D F8           mov         ecx,dword ptr [ebp-8]
  0040126F: 03 4D E8           add         ecx,dword ptr [ebp-18h]
  00401272: 03 4D F4           add         ecx,dword ptr [ebp-0Ch]
  00401275: 89 4D F4           mov         dword ptr [ebp-0Ch],ecx
  00401278: C7 45 E4 A7 1A 00  mov         dword ptr [ebp-1Ch],1AA7h
            00
  0040127F: 8B 55 FC           mov         edx,dword ptr [ebp-4]
  00401282: 03 55 E8           add         edx,dword ptr [ebp-18h]
  00401285: 89 55 FC           mov         dword ptr [ebp-4],edx
  00401288: 8B 45 F0           mov         eax,dword ptr [ebp-10h]
  0040128B: 2B 45 EC           sub         eax,dword ptr [ebp-14h]
  0040128E: 89 45 F0           mov         dword ptr [ebp-10h],eax
  00401291: EB 8C              jmp         0040121F
  00401293: 8B E5              mov         esp,ebp
  00401295: 5D                 pop         ebp
  00401296: C3                 ret
  00401297: CC                 int         3
  00401298: CC                 int         3
  00401299: CC                 int         3
  0040129A: CC                 int         3
  0040129B: CC                 int         3
  0040129C: CC                 int         3
  0040129D: CC                 int         3
  0040129E: CC                 int         3
  0040129F: CC                 int         3
  004012A0: 55                 push        ebp
  004012A1: 8B EC              mov         ebp,esp
  004012A3: 81 EC 9C 01 00 00  sub         esp,19Ch
  004012A9: C7 85 EC FE FF FF  mov         dword ptr [ebp+FFFFFEECh],4
            04 00 00 00
  004012B3: C7 85 BC FE FF FF  mov         dword ptr [ebp+FFFFFEBCh],0
            00 00 00 00
  004012BD: C7 85 D8 FE FF FF  mov         dword ptr [ebp+FFFFFED8h],409000h
            00 90 40 00
  004012C7: C7 85 E0 FE FF FF  mov         dword ptr [ebp+FFFFFEE0h],409010h
            10 90 40 00
  004012D1: 8B 85 D8 FE FF FF  mov         eax,dword ptr [ebp+FFFFFED8h]
  004012D7: C6 00 56           mov         byte ptr [eax],56h
  004012DA: 8B 8D D8 FE FF FF  mov         ecx,dword ptr [ebp+FFFFFED8h]
  004012E0: C6 41 05 61        mov         byte ptr [ecx+5],61h
  004012E4: 8B 95 EC FE FF FF  mov         edx,dword ptr [ebp+FFFFFEECh]
  004012EA: 8B 85 BC FE FF FF  mov         eax,dword ptr [ebp+FFFFFEBCh]
  004012F0: 8D 8C 10 20 43 40  lea         ecx,[eax+edx+00404320h]
            00
  004012F7: 89 0D 7C 90 40 00  mov         dword ptr ds:[0040907Ch],ecx
  004012FD: 68 04 01 00 00     push        104h
  00401302: 8D 95 F0 FE FF FF  lea         edx,[ebp+FFFFFEF0h]
  00401308: 52                 push        edx
  00401309: FF 15 0C 70 40 00  call        dword ptr ds:[0040700Ch]
  0040130F: 6A 01              push        1
  00401311: 6A 01              push        1
  00401313: 6A 01              push        1
  00401315: FF 15 8C 72 40 00  call        dword ptr ds:[0040728Ch]
  0040131B: 50                 push        eax
  0040131C: FF 15 00 70 40 00  call        dword ptr ds:[00407000h]
  00401322: 68 1C 90 40 00     push        40901Ch
  00401327: 68 2C 90 40 00     push        40902Ch
  0040132C: FF 15 08 70 40 00  call        dword ptr ds:[00407008h]
  00401332: 50                 push        eax
  00401333: FF 15 C8 70 40 00  call        dword ptr ds:[004070C8h]
  00401339: A3 80 90 40 00     mov         dword ptr ds:[00409080h],eax
  0040133E: A1 80 90 40 00     mov         eax,dword ptr ds:[00409080h]
  00401343: 89 85 C0 FE FF FF  mov         dword ptr [ebp+FFFFFEC0h],eax
  00401349: 68 74 90 40 00     push        409074h
  0040134E: 68 19 00 02 00     push        20019h
  00401353: 6A 00              push        0
  00401355: 68 78 90 40 00     push        409078h
  0040135A: 68 00 00 00 80     push        80000000h
  0040135F: FF 95 C0 FE FF FF  call        dword ptr [ebp+FFFFFEC0h]
  00401365: 85 C0              test        eax,eax
  00401367: 74 0A              je          00401373
  00401369: C7 05 7C 90 40 00  mov         dword ptr ds:[0040907Ch],18h
            18 00 00 00
  00401373: 68 74 90 40 00     push        409074h
  00401378: 68 19 00 02 00     push        20019h
  0040137D: 6A 00              push        0
  0040137F: 8B 8D E0 FE FF FF  mov         ecx,dword ptr [ebp+FFFFFEE0h]
  00401385: 51                 push        ecx
  00401386: 8B 15 74 90 40 00  mov         edx,dword ptr ds:[00409074h]
  0040138C: 52                 push        edx
  0040138D: FF 95 C0 FE FF FF  call        dword ptr [ebp+FFFFFEC0h]
  00401393: 85 C0              test        eax,eax
  00401395: 74 0A              je          004013A1
  00401397: C7 05 7C 90 40 00  mov         dword ptr ds:[0040907Ch],18h
            18 00 00 00
  004013A1: 68 74 90 40 00     push        409074h
  004013A6: 68 19 00 02 00     push        20019h
  004013AB: 6A 00              push        0
  004013AD: 68 38 90 40 00     push        409038h
  004013B2: A1 74 90 40 00     mov         eax,dword ptr ds:[00409074h]
  004013B7: 50                 push        eax
  004013B8: FF 95 C0 FE FF FF  call        dword ptr [ebp+FFFFFEC0h]
  004013BE: 85 C0              test        eax,eax
  004013C0: 74 0A              je          004013CC
  004013C2: C7 05 7C 90 40 00  mov         dword ptr ds:[0040907Ch],18h
            18 00 00 00
  004013CC: 68 74 90 40 00     push        409074h
  004013D1: 68 19 00 02 00     push        20019h
  004013D6: 6A 00              push        0
  004013D8: 68 5C 90 40 00     push        40905Ch
  004013DD: 68 00 00 00 80     push        80000000h
  004013E2: FF 95 C0 FE FF FF  call        dword ptr [ebp+FFFFFEC0h]
  004013E8: 85 C0              test        eax,eax
  004013EA: 75 0A              jne         004013F6
  004013EC: B8 04 00 00 00     mov         eax,4
  004013F1: E9 51 01 00 00     jmp         00401547
  004013F6: 8B 0D 7C 90 40 00  mov         ecx,dword ptr ds:[0040907Ch]
  004013FC: 51                 push        ecx
  004013FD: E8 FE FB FF FF     call        00401000
  00401402: 83 C4 04           add         esp,4
  00401405: 89 85 E4 FE FF FF  mov         dword ptr [ebp+FFFFFEE4h],eax
  0040140B: 8B 95 E4 FE FF FF  mov         edx,dword ptr [ebp+FFFFFEE4h]
  00401411: 52                 push        edx
  00401412: E8 F9 FB FF FF     call        00401010
  00401417: 83 C4 04           add         esp,4
  0040141A: 89 85 64 FE FF FF  mov         dword ptr [ebp+FFFFFE64h],eax
  00401420: 8B 85 E4 FE FF FF  mov         eax,dword ptr [ebp+FFFFFEE4h]
  00401426: 50                 push        eax
  00401427: 6A 00              push        0
  00401429: 8B 8D 64 FE FF FF  mov         ecx,dword ptr [ebp+FFFFFE64h]
  0040142F: 51                 push        ecx
  00401430: E8 1D 01 00 00     call        00401552
  00401435: 83 C4 0C           add         esp,0Ch
  00401438: 8B 95 E4 FE FF FF  mov         edx,dword ptr [ebp+FFFFFEE4h]
  0040143E: 52                 push        edx
  0040143F: 8B 85 64 FE FF FF  mov         eax,dword ptr [ebp+FFFFFE64h]
  00401445: 50                 push        eax
  00401446: E8 A5 FD FF FF     call        004011F0
  0040144B: 83 C4 08           add         esp,8
  0040144E: 8B 8D E4 FE FF FF  mov         ecx,dword ptr [ebp+FFFFFEE4h]
  00401454: 51                 push        ecx
  00401455: 8B 95 64 FE FF FF  mov         edx,dword ptr [ebp+FFFFFE64h]
  0040145B: 52                 push        edx
  0040145C: E8 0F FD FF FF     call        00401170
  00401461: 83 C4 08           add         esp,8
  00401464: 68 00 1E 00 00     push        1E00h
  00401469: E8 A2 FB FF FF     call        00401010
  0040146E: 83 C4 04           add         esp,4
  00401471: 89 45 FC           mov         dword ptr [ebp-4],eax
  00401474: C7 05 7C 90 40 00  mov         dword ptr ds:[0040907Ch],405E72h
            72 5E 40 00
  0040147E: A1 7C 90 40 00     mov         eax,dword ptr ds:[0040907Ch]
  00401483: 50                 push        eax
  00401484: E8 77 FB FF FF     call        00401000
  00401489: 83 C4 04           add         esp,4
  0040148C: 89 85 E4 FE FF FF  mov         dword ptr [ebp+FFFFFEE4h],eax
  00401492: 8B 8D E4 FE FF FF  mov         ecx,dword ptr [ebp+FFFFFEE4h]
  00401498: 51                 push        ecx
  00401499: E8 72 FB FF FF     call        00401010
  0040149E: 83 C4 04           add         esp,4
  004014A1: 89 85 DC FE FF FF  mov         dword ptr [ebp+FFFFFEDCh],eax
  004014A7: 8B 95 E4 FE FF FF  mov         edx,dword ptr [ebp+FFFFFEE4h]
  004014AD: 52                 push        edx
  004014AE: 6A 00              push        0
  004014B0: 8B 85 DC FE FF FF  mov         eax,dword ptr [ebp+FFFFFEDCh]
  004014B6: 50                 push        eax
  004014B7: E8 96 00 00 00     call        00401552
  004014BC: 83 C4 0C           add         esp,0Ch
  004014BF: 8B 8D E4 FE FF FF  mov         ecx,dword ptr [ebp+FFFFFEE4h]
  004014C5: 51                 push        ecx
  004014C6: 8B 95 DC FE FF FF  mov         edx,dword ptr [ebp+FFFFFEDCh]
  004014CC: 52                 push        edx
  004014CD: E8 1E FD FF FF     call        004011F0
  004014D2: 83 C4 08           add         esp,8
  004014D5: 8B 85 E4 FE FF FF  mov         eax,dword ptr [ebp+FFFFFEE4h]
  004014DB: 50                 push        eax
  004014DC: 8B 8D DC FE FF FF  mov         ecx,dword ptr [ebp+FFFFFEDCh]
  004014E2: 51                 push        ecx
  004014E3: E8 88 FC FF FF     call        00401170
  004014E8: 83 C4 08           add         esp,8
  004014EB: 8B 95 64 FE FF FF  mov         edx,dword ptr [ebp+FFFFFE64h]
  004014F1: 8B 85 DC FE FF FF  mov         eax,dword ptr [ebp+FFFFFEDCh]
  004014F7: 89 02              mov         dword ptr [edx],eax
  004014F9: 68 00 1A 00 00     push        1A00h
  004014FE: 8B 8D 64 FE FF FF  mov         ecx,dword ptr [ebp+FFFFFE64h]
  00401504: 51                 push        ecx
  00401505: 8B 55 FC           mov         edx,dword ptr [ebp-4]
  00401508: 81 C2 00 02 00 00  add         edx,200h
  0040150E: 52                 push        edx
  0040150F: E8 38 00 00 00     call        0040154C
  00401514: 83 C4 0C           add         esp,0Ch
  00401517: 8B 45 FC           mov         eax,dword ptr [ebp-4]
  0040151A: 2D 00 00 40 00     sub         eax,400000h
  0040151F: 50                 push        eax
  00401520: 8B 4D FC           mov         ecx,dword ptr [ebp-4]
  00401523: 51                 push        ecx
  00401524: 8B 95 DC FE FF FF  mov         edx,dword ptr [ebp+FFFFFEDCh]
  0040152A: 52                 push        edx
  0040152B: E8 C0 FB FF FF     call        004010F0
  00401530: 83 C4 0C           add         esp,0Ch
  00401533: 8B C0              mov         eax,eax
  00401535: 8B 45 FC           mov         eax,dword ptr [ebp-4]
  00401538: 8B C0              mov         eax,eax
  0040153A: 05 F0 0F 00 00     add         eax,0FF0h
  0040153F: 8B C0              mov         eax,eax
  00401541: 6A 00              push        0
  00401543: 8B C0              mov         eax,eax
  00401545: FF E0              jmp         eax
  00401547: 8B E5              mov         esp,ebp
  00401549: 5D                 pop         ebp
  0040154A: C3                 ret
  0040154B: CC                 int         3
  0040154C: FF 25 98 72 40 00  jmp         dword ptr ds:[00407298h]
  00401552: FF 25 94 72 40 00  jmp         dword ptr ds:[00407294h]

  00402000: 00 00              add         byte ptr [eax],al
  00402002: 00 00              add         byte ptr [eax],al
  00402004: 00 00              add         byte ptr [eax],al
  00402006: 00 00              add         byte ptr [eax],al
  00402008: 00 00              add         byte ptr [eax],al
  0040200A: 00 00              add         byte ptr [eax],al
  0040200C: 00 00              add         byte ptr [eax],al
  0040200E: 00 00              add         byte ptr [eax],al
  00402010: 00 00              add         byte ptr [eax],al
  00402012: 00 00              add         byte ptr [eax],al
  00402014: 00 00              add         byte ptr [eax],al
  00402016: 00 00              add         byte ptr [eax],al
  00402018: 00 00              add         byte ptr [eax],al
  0040201A: 00 00              add         byte ptr [eax],al
  0040201C: 00 00              add         byte ptr [eax],al
  0040201E: 00 00              add         byte ptr [eax],al
  00402020: 00 00              add         byte ptr [eax],al
  00402022: 00 00              add         byte ptr [eax],al
  00402024: 00 00              add         byte ptr [eax],al
  00402026: 00 00              add         byte ptr [eax],al
  00402028: 00 00              add         byte ptr [eax],al
  0040202A: 00 00              add         byte ptr [eax],al
  0040202C: 00 00              add         byte ptr [eax],al
  0040202E: 00 00              add         byte ptr [eax],al
  00402030: 00 00              add         byte ptr [eax],al
  00402032: 00 00              add         byte ptr [eax],al
  00402034: 00 00              add         byte ptr [eax],al
  00402036: 00 00              add         byte ptr [eax],al
  00402038: 00 00              add         byte ptr [eax],al
  0040203A: 00 00              add         byte ptr [eax],al
  0040203C: 00 00              add         byte ptr [eax],al
  0040203E: 00 00              add         byte ptr [eax],al
  00402040: 00 00              add         byte ptr [eax],al
  00402042: 00 00              add         byte ptr [eax],al
  00402044: 00 00              add         byte ptr [eax],al
  00402046: 00 00              add         byte ptr [eax],al
  00402048: 00 00              add         byte ptr [eax],al
  0040204A: 00 00              add         byte ptr [eax],al
  0040204C: 00 00              add         byte ptr [eax],al
  0040204E: 00 00              add         byte ptr [eax],al
  00402050: 00 00              add         byte ptr [eax],al
  00402052: 00 00              add         byte ptr [eax],al
  00402054: 00 00              add         byte ptr [eax],al
  00402056: 00 00              add         byte ptr [eax],al
  00402058: 00 00              add         byte ptr [eax],al
  0040205A: 00 00              add         byte ptr [eax],al
  0040205C: 00 00              add         byte ptr [eax],al
  0040205E: 00 00              add         byte ptr [eax],al
  00402060: 00 00              add         byte ptr [eax],al
  00402062: 00 00              add         byte ptr [eax],al
  00402064: 00 00              add         byte ptr [eax],al
  00402066: 00 00              add         byte ptr [eax],al
  00402068: 00 00              add         byte ptr [eax],al
  0040206A: 00 00              add         byte ptr [eax],al
  0040206C: 00 00              add         byte ptr [eax],al
  0040206E: 00 00              add         byte ptr [eax],al
  00402070: 00 00              add         byte ptr [eax],al
  00402072: 00 00              add         byte ptr [eax],al
  00402074: 00 00              add         byte ptr [eax],al
  00402076: 00 00              add         byte ptr [eax],al
  00402078: 00 00              add         byte ptr [eax],al
  0040207A: 00 00              add         byte ptr [eax],al
  0040207C: 00 00              add         byte ptr [eax],al
  0040207E: 00 00              add         byte ptr [eax],al
  00402080: 00 00              add         byte ptr [eax],al
  00402082: 00 00              add         byte ptr [eax],al
  00402084: 00 00              add         byte ptr [eax],al
  00402086: 00 00              add         byte ptr [eax],al
  00402088: 00 00              add         byte ptr [eax],al
  0040208A: 00 00              add         byte ptr [eax],al
  0040208C: 00 00              add         byte ptr [eax],al
  0040208E: 00 00              add         byte ptr [eax],al
  00402090: 00 00              add         byte ptr [eax],al
  00402092: 00 00              add         byte ptr [eax],al
  00402094: 00 00              add         byte ptr [eax],al
  00402096: 00 00              add         byte ptr [eax],al
  00402098: 00 00              add         byte ptr [eax],al
  0040209A: 00 00              add         byte ptr [eax],al
  0040209C: 00 00              add         byte ptr [eax],al
  0040209E: 00 00              add         byte ptr [eax],al
  004020A0: 00 00              add         byte ptr [eax],al
  004020A2: 00 00              add         byte ptr [eax],al
  004020A4: 00 00              add         byte ptr [eax],al
  004020A6: 00 00              add         byte ptr [eax],al
  004020A8: 00 00              add         byte ptr [eax],al
  004020AA: 00 00              add         byte ptr [eax],al
  004020AC: 00 00              add         byte ptr [eax],al
  004020AE: 00 00              add         byte ptr [eax],al
  004020B0: 00 00              add         byte ptr [eax],al
  004020B2: 00 00              add         byte ptr [eax],al
  004020B4: 00 00              add         byte ptr [eax],al
  004020B6: 00 00              add         byte ptr [eax],al
  004020B8: 00 00              add         byte ptr [eax],al
  004020BA: 00 00              add         byte ptr [eax],al
  004020BC: 00 00              add         byte ptr [eax],al
  004020BE: 00 00              add         byte ptr [eax],al
  004020C0: 00 00              add         byte ptr [eax],al
  004020C2: 00 00              add         byte ptr [eax],al
  004020C4: 00 00              add         byte ptr [eax],al
  004020C6: 00 00              add         byte ptr [eax],al
  004020C8: 00 00              add         byte ptr [eax],al
  004020CA: 00 00              add         byte ptr [eax],al
  004020CC: 00 00              add         byte ptr [eax],al
  004020CE: 00 00              add         byte ptr [eax],al
  004020D0: 00 00              add         byte ptr [eax],al
  004020D2: 00 00              add         byte ptr [eax],al
  004020D4: 00 00              add         byte ptr [eax],al
  004020D6: 00 00              add         byte ptr [eax],al
  004020D8: 00 00              add         byte ptr [eax],al
  004020DA: 00 00              add         byte ptr [eax],al
  004020DC: 00 00              add         byte ptr [eax],al
  004020DE: 00 00              add         byte ptr [eax],al
  004020E0: 00 00              add         byte ptr [eax],al
  004020E2: 00 00              add         byte ptr [eax],al
  004020E4: 00 00              add         byte ptr [eax],al
  004020E6: 00 00              add         byte ptr [eax],al
  004020E8: 00 00              add         byte ptr [eax],al
  004020EA: 00 00              add         byte ptr [eax],al
  004020EC: 00 00              add         byte ptr [eax],al
  004020EE: 00 00              add         byte ptr [eax],al
  004020F0: 00 00              add         byte ptr [eax],al
  004020F2: 00 00              add         byte ptr [eax],al
  004020F4: 00 00              add         byte ptr [eax],al
  004020F6: 00 00              add         byte ptr [eax],al
  004020F8: 00 00              add         byte ptr [eax],al
  004020FA: 00 00              add         byte ptr [eax],al
  004020FC: 00 00              add         byte ptr [eax],al
  004020FE: 00 00              add         byte ptr [eax],al
  00402100: 00 00              add         byte ptr [eax],al
  00402102: 00 00              add         byte ptr [eax],al
  00402104: 00 00              add         byte ptr [eax],al
  00402106: 00 00              add         byte ptr [eax],al
  00402108: 00 00              add         byte ptr [eax],al
  0040210A: 00 00              add         byte ptr [eax],al
  0040210C: 00 00              add         byte ptr [eax],al
  0040210E: 00 00              add         byte ptr [eax],al
  00402110: 00 00              add         byte ptr [eax],al
  00402112: 00 00              add         byte ptr [eax],al
  00402114: 00 00              add         byte ptr [eax],al
  00402116: 00 00              add         byte ptr [eax],al
  00402118: 00 00              add         byte ptr [eax],al
  0040211A: 00 00              add         byte ptr [eax],al
  0040211C: 00 00              add         byte ptr [eax],al
  0040211E: 00 00              add         byte ptr [eax],al
  00402120: 00 00              add         byte ptr [eax],al
  00402122: 00 00              add         byte ptr [eax],al
  00402124: 00 00              add         byte ptr [eax],al
  00402126: 00 00              add         byte ptr [eax],al
  00402128: 00 00              add         byte ptr [eax],al
  0040212A: 00 00              add         byte ptr [eax],al
  0040212C: 00 00              add         byte ptr [eax],al
  0040212E: 00 00              add         byte ptr [eax],al
  00402130: 00 00              add         byte ptr [eax],al
  00402132: 00 00              add         byte ptr [eax],al
  00402134: 00 00              add         byte ptr [eax],al
  00402136: 00 00              add         byte ptr [eax],al
  00402138: 00 00              add         byte ptr [eax],al
  0040213A: 00 00              add         byte ptr [eax],al
  0040213C: 00 00              add         byte ptr [eax],al
  0040213E: 00 00              add         byte ptr [eax],al
  00402140: 00 00              add         byte ptr [eax],al
  00402142: 00 00              add         byte ptr [eax],al
  00402144: 00 00              add         byte ptr [eax],al
  00402146: 00 00              add         byte ptr [eax],al
  00402148: 00 00              add         byte ptr [eax],al
  0040214A: 00 00              add         byte ptr [eax],al
  0040214C: 00 00              add         byte ptr [eax],al
  0040214E: 00 00              add         byte ptr [eax],al
  00402150: 00 00              add         byte ptr [eax],al
  00402152: 00 00              add         byte ptr [eax],al
  00402154: 00 00              add         byte ptr [eax],al
  00402156: 00 00              add         byte ptr [eax],al
  00402158: 00 00              add         byte ptr [eax],al
  0040215A: 00 00              add         byte ptr [eax],al
  0040215C: 00 00              add         byte ptr [eax],al
  0040215E: 00 00              add         byte ptr [eax],al
  00402160: 00 00              add         byte ptr [eax],al
  00402162: 00 00              add         byte ptr [eax],al
  00402164: 00 00              add         byte ptr [eax],al
  00402166: 00 00              add         byte ptr [eax],al
  00402168: 00 00              add         byte ptr [eax],al
  0040216A: 00 00              add         byte ptr [eax],al
  0040216C: 00 00              add         byte ptr [eax],al
  0040216E: 00 00              add         byte ptr [eax],al
  00402170: 00 00              add         byte ptr [eax],al
  00402172: 00 00              add         byte ptr [eax],al
  00402174: 00 00              add         byte ptr [eax],al
  00402176: 00 00              add         byte ptr [eax],al
  00402178: 00 00              add         byte ptr [eax],al
  0040217A: 00 00              add         byte ptr [eax],al
  0040217C: 00 00              add         byte ptr [eax],al
  0040217E: 00 00              add         byte ptr [eax],al
  00402180: 00 00              add         byte ptr [eax],al
  00402182: 00 00              add         byte ptr [eax],al
  00402184: 00 00              add         byte ptr [eax],al
  00402186: 00 00              add         byte ptr [eax],al
  00402188: 00 00              add         byte ptr [eax],al
  0040218A: 00 00              add         byte ptr [eax],al
  0040218C: 00 00              add         byte ptr [eax],al
  0040218E: 00 00              add         byte ptr [eax],al
  00402190: 00 00              add         byte ptr [eax],al
  00402192: 00 00              add         byte ptr [eax],al
  00402194: 00 00              add         byte ptr [eax],al
  00402196: 00 00              add         byte ptr [eax],al
  00402198: 00 00              add         byte ptr [eax],al
  0040219A: 00 00              add         byte ptr [eax],al
  0040219C: 00 00              add         byte ptr [eax],al
  0040219E: 00 00              add         byte ptr [eax],al
  004021A0: 00 00              add         byte ptr [eax],al
  004021A2: 00 00              add         byte ptr [eax],al
  004021A4: 00 00              add         byte ptr [eax],al
  004021A6: 00 00              add         byte ptr [eax],al
  004021A8: 00 00              add         byte ptr [eax],al
  004021AA: 00 00              add         byte ptr [eax],al
  004021AC: 00 00              add         byte ptr [eax],al
  004021AE: 00 00              add         byte ptr [eax],al
  004021B0: 00 00              add         byte ptr [eax],al
  004021B2: 00 00              add         byte ptr [eax],al
  004021B4: 00 00              add         byte ptr [eax],al
  004021B6: 00 00              add         byte ptr [eax],al
  004021B8: 00 00              add         byte ptr [eax],al
  004021BA: 00 00              add         byte ptr [eax],al
  004021BC: 00 00              add         byte ptr [eax],al
  004021BE: 00 00              add         byte ptr [eax],al
  004021C0: 00 00              add         byte ptr [eax],al
  004021C2: 00 00              add         byte ptr [eax],al
  004021C4: 00 00              add         byte ptr [eax],al
  004021C6: 00 00              add         byte ptr [eax],al
  004021C8: 00 00              add         byte ptr [eax],al
  004021CA: 00 00              add         byte ptr [eax],al
  004021CC: 00 00              add         byte ptr [eax],al
  004021CE: 00 00              add         byte ptr [eax],al
  004021D0: 00 00              add         byte ptr [eax],al
  004021D2: 00 00              add         byte ptr [eax],al
  004021D4: 00 00              add         byte ptr [eax],al
  004021D6: 00 00              add         byte ptr [eax],al
  004021D8: 00 00              add         byte ptr [eax],al
  004021DA: 00 00              add         byte ptr [eax],al
  004021DC: 00 00              add         byte ptr [eax],al
  004021DE: 00 00              add         byte ptr [eax],al
  004021E0: 00 00              add         byte ptr [eax],al
  004021E2: 00 00              add         byte ptr [eax],al
  004021E4: 00 00              add         byte ptr [eax],al
  004021E6: 00 00              add         byte ptr [eax],al
  004021E8: 00 00              add         byte ptr [eax],al
  004021EA: 00 00              add         byte ptr [eax],al
  004021EC: 00 00              add         byte ptr [eax],al
  004021EE: 00 00              add         byte ptr [eax],al
  004021F0: 00 00              add         byte ptr [eax],al
  004021F2: 00 00              add         byte ptr [eax],al
  004021F4: 00 00              add         byte ptr [eax],al
  004021F6: 00 00              add         byte ptr [eax],al
  004021F8: 00 00              add         byte ptr [eax],al
  004021FA: 00 00              add         byte ptr [eax],al
  004021FC: 00 00              add         byte ptr [eax],al
  004021FE: 00 00              add         byte ptr [eax],al
  00402200: 00 00              add         byte ptr [eax],al
  00402202: 00 00              add         byte ptr [eax],al
  00402204: 00 00              add         byte ptr [eax],al
  00402206: 00 00              add         byte ptr [eax],al
  00402208: 00 00              add         byte ptr [eax],al
  0040220A: 00 00              add         byte ptr [eax],al
  0040220C: 00 00              add         byte ptr [eax],al
  0040220E: 00 00              add         byte ptr [eax],al
  00402210: 00 00              add         byte ptr [eax],al
  00402212: 00 00              add         byte ptr [eax],al
  00402214: 00 00              add         byte ptr [eax],al
  00402216: 00 00              add         byte ptr [eax],al
  00402218: 00 00              add         byte ptr [eax],al
  0040221A: 00 00              add         byte ptr [eax],al
  0040221C: 00 00              add         byte ptr [eax],al
  0040221E: 00 00              add         byte ptr [eax],al
  00402220: 00 00              add         byte ptr [eax],al
  00402222: 00 00              add         byte ptr [eax],al
  00402224: 00 00              add         byte ptr [eax],al
  00402226: 00 00              add         byte ptr [eax],al
  00402228: 00 00              add         byte ptr [eax],al
  0040222A: 00 00              add         byte ptr [eax],al
  0040222C: 00 00              add         byte ptr [eax],al
  0040222E: 00 00              add         byte ptr [eax],al
  00402230: 00 00              add         byte ptr [eax],al
  00402232: 00 00              add         byte ptr [eax],al
  00402234: 00 00              add         byte ptr [eax],al
  00402236: 00 00              add         byte ptr [eax],al
  00402238: 00 00              add         byte ptr [eax],al
  0040223A: 00 00              add         byte ptr [eax],al
  0040223C: 00 00              add         byte ptr [eax],al
  0040223E: 00 00              add         byte ptr [eax],al
  00402240: 00 00              add         byte ptr [eax],al
  00402242: 00 00              add         byte ptr [eax],al
  00402244: 00 00              add         byte ptr [eax],al
  00402246: 00 00              add         byte ptr [eax],al
  00402248: 00 00              add         byte ptr [eax],al
  0040224A: 00 00              add         byte ptr [eax],al
  0040224C: 00 00              add         byte ptr [eax],al
  0040224E: 00 00              add         byte ptr [eax],al
  00402250: 00 00              add         byte ptr [eax],al
  00402252: 00 00              add         byte ptr [eax],al
  00402254: 00 00              add         byte ptr [eax],al
  00402256: 00 00              add         byte ptr [eax],al
  00402258: 00 00              add         byte ptr [eax],al
  0040225A: 00 00              add         byte ptr [eax],al
  0040225C: 00 00              add         byte ptr [eax],al
  0040225E: 00 00              add         byte ptr [eax],al
  00402260: 00 00              add         byte ptr [eax],al
  00402262: 00 00              add         byte ptr [eax],al
  00402264: 00 00              add         byte ptr [eax],al
  00402266: 00 00              add         byte ptr [eax],al
  00402268: 00 00              add         byte ptr [eax],al
  0040226A: 00 00              add         byte ptr [eax],al
  0040226C: 00 00              add         byte ptr [eax],al
  0040226E: 00 00              add         byte ptr [eax],al
  00402270: 00 00              add         byte ptr [eax],al
  00402272: 00 00              add         byte ptr [eax],al
  00402274: 00 00              add         byte ptr [eax],al
  00402276: 00 00              add         byte ptr [eax],al
  00402278: 00 00              add         byte ptr [eax],al
  0040227A: 00 00              add         byte ptr [eax],al
  0040227C: 00 00              add         byte ptr [eax],al
  0040227E: 00 00              add         byte ptr [eax],al
  00402280: 00 00              add         byte ptr [eax],al
  00402282: 00 00              add         byte ptr [eax],al
  00402284: 00 00              add         byte ptr [eax],al
  00402286: 00 00              add         byte ptr [eax],al
  00402288: 00 00              add         byte ptr [eax],al
  0040228A: 00 00              add         byte ptr [eax],al
  0040228C: 00 00              add         byte ptr [eax],al
  0040228E: 00 00              add         byte ptr [eax],al
  00402290: 00 00              add         byte ptr [eax],al
  00402292: 00 00              add         byte ptr [eax],al
  00402294: 00 00              add         byte ptr [eax],al
  00402296: 00 00              add         byte ptr [eax],al
  00402298: 00 00              add         byte ptr [eax],al
  0040229A: 00 00              add         byte ptr [eax],al
  0040229C: 00 00              add         byte ptr [eax],al
  0040229E: 00 00              add         byte ptr [eax],al
  004022A0: 00 00              add         byte ptr [eax],al
  004022A2: 00 00              add         byte ptr [eax],al
  004022A4: 00 00              add         byte ptr [eax],al
  004022A6: 00 00              add         byte ptr [eax],al
  004022A8: 00 00              add         byte ptr [eax],al
  004022AA: 00 00              add         byte ptr [eax],al
  004022AC: 00 00              add         byte ptr [eax],al
  004022AE: 00 00              add         byte ptr [eax],al
  004022B0: 00 00              add         byte ptr [eax],al
  004022B2: 00 00              add         byte ptr [eax],al
  004022B4: 00 00              add         byte ptr [eax],al
  004022B6: 00 00              add         byte ptr [eax],al
  004022B8: 00 00              add         byte ptr [eax],al
  004022BA: 00 00              add         byte ptr [eax],al
  004022BC: 00 00              add         byte ptr [eax],al
  004022BE: 00 00              add         byte ptr [eax],al
  004022C0: 00 00              add         byte ptr [eax],al
  004022C2: 00 00              add         byte ptr [eax],al
  004022C4: 00 00              add         byte ptr [eax],al
  004022C6: 00 00              add         byte ptr [eax],al
  004022C8: 00 00              add         byte ptr [eax],al
  004022CA: 00 00              add         byte ptr [eax],al
  004022CC: 00 00              add         byte ptr [eax],al
  004022CE: 00 00              add         byte ptr [eax],al
  004022D0: 00 00              add         byte ptr [eax],al
  004022D2: 00 00              add         byte ptr [eax],al
  004022D4: 00 00              add         byte ptr [eax],al
  004022D6: 00 00              add         byte ptr [eax],al
  004022D8: 00 00              add         byte ptr [eax],al
  004022DA: 00 00              add         byte ptr [eax],al
  004022DC: 00 00              add         byte ptr [eax],al
  004022DE: 00 00              add         byte ptr [eax],al
  004022E0: 00 00              add         byte ptr [eax],al
  004022E2: 00 00              add         byte ptr [eax],al
  004022E4: 00 00              add         byte ptr [eax],al
  004022E6: 00 00              add         byte ptr [eax],al
  004022E8: 00 00              add         byte ptr [eax],al
  004022EA: 00 00              add         byte ptr [eax],al
  004022EC: 00 00              add         byte ptr [eax],al
  004022EE: 00 00              add         byte ptr [eax],al
  004022F0: 00 00              add         byte ptr [eax],al
  004022F2: 00 00              add         byte ptr [eax],al
  004022F4: 00 00              add         byte ptr [eax],al
  004022F6: 00 00              add         byte ptr [eax],al
  004022F8: 00 00              add         byte ptr [eax],al
  004022FA: 00 00              add         byte ptr [eax],al
  004022FC: 00 00              add         byte ptr [eax],al
  004022FE: 00 00              add         byte ptr [eax],al
  00402300: 00 00              add         byte ptr [eax],al
  00402302: 00 00              add         byte ptr [eax],al
  00402304: 00 00              add         byte ptr [eax],al
  00402306: 00 00              add         byte ptr [eax],al
  00402308: 00 00              add         byte ptr [eax],al
  0040230A: 00 00              add         byte ptr [eax],al
  0040230C: 00 00              add         byte ptr [eax],al
  0040230E: 00 00              add         byte ptr [eax],al
  00402310: 00 00              add         byte ptr [eax],al
  00402312: 00 00              add         byte ptr [eax],al
  00402314: 00 00              add         byte ptr [eax],al
  00402316: 00 00              add         byte ptr [eax],al
  00402318: 00 00              add         byte ptr [eax],al
  0040231A: 00 00              add         byte ptr [eax],al
  0040231C: 00 00              add         byte ptr [eax],al
  0040231E: 00 00              add         byte ptr [eax],al
  00402320: 00 00              add         byte ptr [eax],al
  00402322: 00 00              add         byte ptr [eax],al
  00402324: 00 00              add         byte ptr [eax],al
  00402326: 00 00              add         byte ptr [eax],al
  00402328: 00 00              add         byte ptr [eax],al
  0040232A: 00 00              add         byte ptr [eax],al
  0040232C: 00 00              add         byte ptr [eax],al
  0040232E: 00 00              add         byte ptr [eax],al
  00402330: 00 00              add         byte ptr [eax],al
  00402332: 00 00              add         byte ptr [eax],al
  00402334: 00 00              add         byte ptr [eax],al
  00402336: 00 00              add         byte ptr [eax],al
  00402338: 00 00              add         byte ptr [eax],al
  0040233A: 00 00              add         byte ptr [eax],al
  0040233C: 00 00              add         byte ptr [eax],al
  0040233E: 00 00              add         byte ptr [eax],al
  00402340: 00 00              add         byte ptr [eax],al
  00402342: 00 00              add         byte ptr [eax],al
  00402344: 00 00              add         byte ptr [eax],al
  00402346: 00 00              add         byte ptr [eax],al
  00402348: 00 00              add         byte ptr [eax],al
  0040234A: 00 00              add         byte ptr [eax],al
  0040234C: 00 00              add         byte ptr [eax],al
  0040234E: 00 00              add         byte ptr [eax],al
  00402350: 00 00              add         byte ptr [eax],al
  00402352: 00 00              add         byte ptr [eax],al
  00402354: 00 00              add         byte ptr [eax],al
  00402356: 00 00              add         byte ptr [eax],al
  00402358: 00 00              add         byte ptr [eax],al
  0040235A: 00 00              add         byte ptr [eax],al
  0040235C: 00 00              add         byte ptr [eax],al
  0040235E: 00 00              add         byte ptr [eax],al
  00402360: 00 00              add         byte ptr [eax],al
  00402362: 00 00              add         byte ptr [eax],al
  00402364: 00 00              add         byte ptr [eax],al
  00402366: 00 00              add         byte ptr [eax],al
  00402368: 00 00              add         byte ptr [eax],al
  0040236A: 00 00              add         byte ptr [eax],al
  0040236C: 00 00              add         byte ptr [eax],al
  0040236E: 00 00              add         byte ptr [eax],al
  00402370: 00 00              add         byte ptr [eax],al
  00402372: 00 00              add         byte ptr [eax],al
  00402374: 00 00              add         byte ptr [eax],al
  00402376: 00 00              add         byte ptr [eax],al
  00402378: 00 00              add         byte ptr [eax],al
  0040237A: 00 00              add         byte ptr [eax],al
  0040237C: 00 00              add         byte ptr [eax],al
  0040237E: 00 00              add         byte ptr [eax],al
  00402380: 00 00              add         byte ptr [eax],al
  00402382: 00 00              add         byte ptr [eax],al
  00402384: 00 00              add         byte ptr [eax],al
  00402386: 00 00              add         byte ptr [eax],al
  00402388: 00 00              add         byte ptr [eax],al
  0040238A: 00 00              add         byte ptr [eax],al
  0040238C: 00 00              add         byte ptr [eax],al
  0040238E: 00 00              add         byte ptr [eax],al
  00402390: 00 00              add         byte ptr [eax],al
  00402392: 00 00              add         byte ptr [eax],al
  00402394: 00 00              add         byte ptr [eax],al
  00402396: 00 00              add         byte ptr [eax],al
  00402398: 00 00              add         byte ptr [eax],al
  0040239A: 00 00              add         byte ptr [eax],al
  0040239C: 00 00              add         byte ptr [eax],al
  0040239E: 00 00              add         byte ptr [eax],al
  004023A0: 00 00              add         byte ptr [eax],al
  004023A2: 00 00              add         byte ptr [eax],al
  004023A4: 00 00              add         byte ptr [eax],al
  004023A6: 00 00              add         byte ptr [eax],al
  004023A8: 00 00              add         byte ptr [eax],al
  004023AA: 00 00              add         byte ptr [eax],al
  004023AC: 00 00              add         byte ptr [eax],al
  004023AE: 00 00              add         byte ptr [eax],al
  004023B0: 00 00              add         byte ptr [eax],al
  004023B2: 00 00              add         byte ptr [eax],al
  004023B4: 00 00              add         byte ptr [eax],al
  004023B6: 00 00              add         byte ptr [eax],al
  004023B8: 00 00              add         byte ptr [eax],al
  004023BA: 00 00              add         byte ptr [eax],al
  004023BC: 00 00              add         byte ptr [eax],al
  004023BE: 00 00              add         byte ptr [eax],al
  004023C0: 00 00              add         byte ptr [eax],al
  004023C2: 00 00              add         byte ptr [eax],al
  004023C4: 00 00              add         byte ptr [eax],al
  004023C6: 00 00              add         byte ptr [eax],al
  004023C8: 00 00              add         byte ptr [eax],al
  004023CA: 00 00              add         byte ptr [eax],al
  004023CC: 00 00              add         byte ptr [eax],al
  004023CE: 00 00              add         byte ptr [eax],al
  004023D0: 00 00              add         byte ptr [eax],al
  004023D2: 00 00              add         byte ptr [eax],al
  004023D4: 00 00              add         byte ptr [eax],al
  004023D6: 00 00              add         byte ptr [eax],al
  004023D8: 00 00              add         byte ptr [eax],al
  004023DA: 00 00              add         byte ptr [eax],al
  004023DC: 00 00              add         byte ptr [eax],al
  004023DE: 00 00              add         byte ptr [eax],al
  004023E0: 00 00              add         byte ptr [eax],al
  004023E2: 00 00              add         byte ptr [eax],al
  004023E4: 00 00              add         byte ptr [eax],al
  004023E6: 00 00              add         byte ptr [eax],al

  00403000: 00 00              add         byte ptr [eax],al
  00403002: 00 00              add         byte ptr [eax],al
  00403004: 00 00              add         byte ptr [eax],al
  00403006: 00 00              add         byte ptr [eax],al
  00403008: 00 00              add         byte ptr [eax],al
  0040300A: 00 00              add         byte ptr [eax],al
  0040300C: 00 00              add         byte ptr [eax],al
  0040300E: 00 00              add         byte ptr [eax],al
  00403010: 00 00              add         byte ptr [eax],al
  00403012: 00 00              add         byte ptr [eax],al
  00403014: 00 00              add         byte ptr [eax],al
  00403016: 00 00              add         byte ptr [eax],al
  00403018: 00 00              add         byte ptr [eax],al
  0040301A: 00 00              add         byte ptr [eax],al
  0040301C: 00 00              add         byte ptr [eax],al
  0040301E: 00 00              add         byte ptr [eax],al
  00403020: 00 00              add         byte ptr [eax],al
  00403022: 00 00              add         byte ptr [eax],al
  00403024: 00 00              add         byte ptr [eax],al
  00403026: 00 00              add         byte ptr [eax],al
  00403028: 00 00              add         byte ptr [eax],al
  0040302A: 00 00              add         byte ptr [eax],al
  0040302C: 00 00              add         byte ptr [eax],al
  0040302E: 00 00              add         byte ptr [eax],al
  00403030: 00 00              add         byte ptr [eax],al
  00403032: 00 00              add         byte ptr [eax],al
  00403034: 00 00              add         byte ptr [eax],al
  00403036: 00 00              add         byte ptr [eax],al
  00403038: 00 00              add         byte ptr [eax],al
  0040303A: 00 00              add         byte ptr [eax],al
  0040303C: 00 00              add         byte ptr [eax],al
  0040303E: 00 00              add         byte ptr [eax],al
  00403040: 00 00              add         byte ptr [eax],al
  00403042: 00 00              add         byte ptr [eax],al
  00403044: 00 00              add         byte ptr [eax],al
  00403046: 00 00              add         byte ptr [eax],al
  00403048: 00 00              add         byte ptr [eax],al
  0040304A: 00 00              add         byte ptr [eax],al
  0040304C: 00 00              add         byte ptr [eax],al
  0040304E: 00 00              add         byte ptr [eax],al
  00403050: 00 00              add         byte ptr [eax],al
  00403052: 00 00              add         byte ptr [eax],al
  00403054: 00 00              add         byte ptr [eax],al
  00403056: 00 00              add         byte ptr [eax],al
  00403058: 00 00              add         byte ptr [eax],al
  0040305A: 00 00              add         byte ptr [eax],al
  0040305C: 00 00              add         byte ptr [eax],al
  0040305E: 00 00              add         byte ptr [eax],al
  00403060: 00 00              add         byte ptr [eax],al
  00403062: 00 00              add         byte ptr [eax],al
  00403064: 00 00              add         byte ptr [eax],al
  00403066: 00 00              add         byte ptr [eax],al
  00403068: 00 00              add         byte ptr [eax],al
  0040306A: 00 00              add         byte ptr [eax],al
  0040306C: 00 00              add         byte ptr [eax],al
  0040306E: 00 00              add         byte ptr [eax],al
  00403070: 00 00              add         byte ptr [eax],al
  00403072: 00 00              add         byte ptr [eax],al
  00403074: 00 00              add         byte ptr [eax],al
  00403076: 00 00              add         byte ptr [eax],al
  00403078: 00 00              add         byte ptr [eax],al
  0040307A: 00 00              add         byte ptr [eax],al
  0040307C: 00 00              add         byte ptr [eax],al
  0040307E: 00 00              add         byte ptr [eax],al
  00403080: 00 00              add         byte ptr [eax],al
  00403082: 00 00              add         byte ptr [eax],al
  00403084: 00 00              add         byte ptr [eax],al
  00403086: 00 00              add         byte ptr [eax],al
  00403088: 00 00              add         byte ptr [eax],al
  0040308A: 00 00              add         byte ptr [eax],al
  0040308C: 00 00              add         byte ptr [eax],al
  0040308E: 00 00              add         byte ptr [eax],al
  00403090: 00 00              add         byte ptr [eax],al
  00403092: 00 00              add         byte ptr [eax],al
  00403094: 00 00              add         byte ptr [eax],al
  00403096: 00 00              add         byte ptr [eax],al
  00403098: 00 00              add         byte ptr [eax],al
  0040309A: 00 00              add         byte ptr [eax],al
  0040309C: 00 00              add         byte ptr [eax],al
  0040309E: 00 00              add         byte ptr [eax],al
  004030A0: 00 00              add         byte ptr [eax],al
  004030A2: 00 00              add         byte ptr [eax],al
  004030A4: 00 00              add         byte ptr [eax],al
  004030A6: 00 00              add         byte ptr [eax],al
  004030A8: 00 00              add         byte ptr [eax],al
  004030AA: 00 00              add         byte ptr [eax],al
  004030AC: 00 00              add         byte ptr [eax],al
  004030AE: 00 00              add         byte ptr [eax],al
  004030B0: 00 00              add         byte ptr [eax],al
  004030B2: 00 00              add         byte ptr [eax],al
  004030B4: 00 00              add         byte ptr [eax],al
  004030B6: 00 00              add         byte ptr [eax],al
  004030B8: 00 00              add         byte ptr [eax],al
  004030BA: 00 00              add         byte ptr [eax],al
  004030BC: 00 00              add         byte ptr [eax],al
  004030BE: 00 00              add         byte ptr [eax],al
  004030C0: 00 00              add         byte ptr [eax],al
  004030C2: 00 00              add         byte ptr [eax],al
  004030C4: 00 00              add         byte ptr [eax],al
  004030C6: 00 00              add         byte ptr [eax],al
  004030C8: 00 00              add         byte ptr [eax],al
  004030CA: 00 00              add         byte ptr [eax],al
  004030CC: 00 00              add         byte ptr [eax],al
  004030CE: 00 00              add         byte ptr [eax],al
  004030D0: 00 00              add         byte ptr [eax],al
  004030D2: 00 00              add         byte ptr [eax],al
  004030D4: 00 00              add         byte ptr [eax],al
  004030D6: 00 00              add         byte ptr [eax],al
  004030D8: 00 00              add         byte ptr [eax],al
  004030DA: 00 00              add         byte ptr [eax],al
  004030DC: 00 00              add         byte ptr [eax],al
  004030DE: 00 00              add         byte ptr [eax],al
  004030E0: 00 00              add         byte ptr [eax],al
  004030E2: 00 00              add         byte ptr [eax],al
  004030E4: 00 00              add         byte ptr [eax],al
  004030E6: 00 00              add         byte ptr [eax],al
  004030E8: 00 00              add         byte ptr [eax],al
  004030EA: 00 00              add         byte ptr [eax],al
  004030EC: 00 00              add         byte ptr [eax],al
  004030EE: 00 00              add         byte ptr [eax],al
  004030F0: 00 00              add         byte ptr [eax],al
  004030F2: 00 00              add         byte ptr [eax],al
  004030F4: 00 00              add         byte ptr [eax],al
  004030F6: 00 00              add         byte ptr [eax],al
  004030F8: 00 00              add         byte ptr [eax],al
  004030FA: 00 00              add         byte ptr [eax],al
  004030FC: 00 00              add         byte ptr [eax],al
  004030FE: 00 00              add         byte ptr [eax],al
  00403100: 00 00              add         byte ptr [eax],al
  00403102: 00 00              add         byte ptr [eax],al
  00403104: 00 00              add         byte ptr [eax],al
  00403106: 00 00              add         byte ptr [eax],al
  00403108: 00 00              add         byte ptr [eax],al
  0040310A: 00 00              add         byte ptr [eax],al
  0040310C: 00 00              add         byte ptr [eax],al
  0040310E: 00 00              add         byte ptr [eax],al
  00403110: 00 00              add         byte ptr [eax],al
  00403112: 00 00              add         byte ptr [eax],al
  00403114: 00 00              add         byte ptr [eax],al
  00403116: 00 00              add         byte ptr [eax],al
  00403118: 00 00              add         byte ptr [eax],al
  0040311A: 00 00              add         byte ptr [eax],al
  0040311C: 00 00              add         byte ptr [eax],al
  0040311E: 00 00              add         byte ptr [eax],al
  00403120: 00 00              add         byte ptr [eax],al
  00403122: 00 00              add         byte ptr [eax],al
  00403124: 00 00              add         byte ptr [eax],al
  00403126: 00 00              add         byte ptr [eax],al
  00403128: 00 00              add         byte ptr [eax],al
  0040312A: 00 00              add         byte ptr [eax],al
  0040312C: 00 00              add         byte ptr [eax],al
  0040312E: 00 00              add         byte ptr [eax],al
  00403130: 00 00              add         byte ptr [eax],al
  00403132: 00 00              add         byte ptr [eax],al
  00403134: 00 00              add         byte ptr [eax],al
  00403136: 00 00              add         byte ptr [eax],al
  00403138: 00 00              add         byte ptr [eax],al
  0040313A: 00 00              add         byte ptr [eax],al
  0040313C: 00 00              add         byte ptr [eax],al
  0040313E: 00 00              add         byte ptr [eax],al
  00403140: 00 00              add         byte ptr [eax],al
  00403142: 00 00              add         byte ptr [eax],al
  00403144: 00 00              add         byte ptr [eax],al
  00403146: 00 00              add         byte ptr [eax],al
  00403148: 00 00              add         byte ptr [eax],al
  0040314A: 00 00              add         byte ptr [eax],al
  0040314C: 00 00              add         byte ptr [eax],al
  0040314E: 00 00              add         byte ptr [eax],al
  00403150: 00 00              add         byte ptr [eax],al
  00403152: 00 00              add         byte ptr [eax],al
  00403154: 00 00              add         byte ptr [eax],al
  00403156: 00 00              add         byte ptr [eax],al
  00403158: 00 00              add         byte ptr [eax],al
  0040315A: 00 00              add         byte ptr [eax],al
  0040315C: 00 00              add         byte ptr [eax],al
  0040315E: 00 00              add         byte ptr [eax],al
  00403160: 00 00              add         byte ptr [eax],al
  00403162: 00 00              add         byte ptr [eax],al
  00403164: 00 00              add         byte ptr [eax],al
  00403166: 00 00              add         byte ptr [eax],al
  00403168: 00 00              add         byte ptr [eax],al
  0040316A: 00 00              add         byte ptr [eax],al
  0040316C: 00 00              add         byte ptr [eax],al
  0040316E: 00 00              add         byte ptr [eax],al
  00403170: 00 00              add         byte ptr [eax],al
  00403172: 00 00              add         byte ptr [eax],al
  00403174: 00 00              add         byte ptr [eax],al
  00403176: 00 00              add         byte ptr [eax],al
  00403178: 00 00              add         byte ptr [eax],al
  0040317A: 00 00              add         byte ptr [eax],al
  0040317C: 00 00              add         byte ptr [eax],al
  0040317E: 00 00              add         byte ptr [eax],al
  00403180: 00 00              add         byte ptr [eax],al
  00403182: 00 00              add         byte ptr [eax],al
  00403184: 00 00              add         byte ptr [eax],al
  00403186: 00 00              add         byte ptr [eax],al
  00403188: 00 00              add         byte ptr [eax],al
  0040318A: 00 00              add         byte ptr [eax],al
  0040318C: 00 00              add         byte ptr [eax],al
  0040318E: 00 00              add         byte ptr [eax],al
  00403190: 00 00              add         byte ptr [eax],al
  00403192: 00 00              add         byte ptr [eax],al
  00403194: 00 00              add         byte ptr [eax],al
  00403196: 00 00              add         byte ptr [eax],al
  00403198: 00 00              add         byte ptr [eax],al
  0040319A: 00 00              add         byte ptr [eax],al
  0040319C: 00 00              add         byte ptr [eax],al
  0040319E: 00 00              add         byte ptr [eax],al
  004031A0: 00 00              add         byte ptr [eax],al
  004031A2: 00 00              add         byte ptr [eax],al
  004031A4: 00 00              add         byte ptr [eax],al
  004031A6: 00 00              add         byte ptr [eax],al
  004031A8: 00 00              add         byte ptr [eax],al
  004031AA: 00 00              add         byte ptr [eax],al
  004031AC: 00 00              add         byte ptr [eax],al
  004031AE: 00 00              add         byte ptr [eax],al
  004031B0: 00 00              add         byte ptr [eax],al
  004031B2: 00 00              add         byte ptr [eax],al
  004031B4: 00 00              add         byte ptr [eax],al
  004031B6: 00 00              add         byte ptr [eax],al
  004031B8: 00 00              add         byte ptr [eax],al
  004031BA: 00 00              add         byte ptr [eax],al
  004031BC: 00 00              add         byte ptr [eax],al
  004031BE: 00 00              add         byte ptr [eax],al
  004031C0: 00 00              add         byte ptr [eax],al
  004031C2: 00 00              add         byte ptr [eax],al
  004031C4: 00 00              add         byte ptr [eax],al
  004031C6: 00 00              add         byte ptr [eax],al
  004031C8: 00 00              add         byte ptr [eax],al
  004031CA: 00 00              add         byte ptr [eax],al
  004031CC: 00 00              add         byte ptr [eax],al
  004031CE: 00 00              add         byte ptr [eax],al
  004031D0: 00 00              add         byte ptr [eax],al
  004031D2: 00 00              add         byte ptr [eax],al
  004031D4: 00 00              add         byte ptr [eax],al
  004031D6: 00 00              add         byte ptr [eax],al
  004031D8: 00 00              add         byte ptr [eax],al
  004031DA: 00 00              add         byte ptr [eax],al
  004031DC: 00 00              add         byte ptr [eax],al
  004031DE: 00 00              add         byte ptr [eax],al
  004031E0: 00 00              add         byte ptr [eax],al
  004031E2: 00 00              add         byte ptr [eax],al
  004031E4: 00 00              add         byte ptr [eax],al
  004031E6: 00 00              add         byte ptr [eax],al
  004031E8: 00 00              add         byte ptr [eax],al
  004031EA: 00 00              add         byte ptr [eax],al
  004031EC: 00 00              add         byte ptr [eax],al
  004031EE: 00 00              add         byte ptr [eax],al
  004031F0: 00 00              add         byte ptr [eax],al
  004031F2: 00 00              add         byte ptr [eax],al
  004031F4: 00 00              add         byte ptr [eax],al
  004031F6: 00 00              add         byte ptr [eax],al
  004031F8: 00 00              add         byte ptr [eax],al
  004031FA: 00 00              add         byte ptr [eax],al
  004031FC: 00 00              add         byte ptr [eax],al
  004031FE: 00 00              add         byte ptr [eax],al
  00403200: 00 00              add         byte ptr [eax],al
  00403202: 00 00              add         byte ptr [eax],al
  00403204: 00 00              add         byte ptr [eax],al
  00403206: 00 00              add         byte ptr [eax],al
  00403208: 00 00              add         byte ptr [eax],al
  0040320A: 00 00              add         byte ptr [eax],al
  0040320C: 00 00              add         byte ptr [eax],al
  0040320E: 00 00              add         byte ptr [eax],al
  00403210: 00 00              add         byte ptr [eax],al
  00403212: 00 00              add         byte ptr [eax],al
  00403214: 00 00              add         byte ptr [eax],al
  00403216: 00 00              add         byte ptr [eax],al
  00403218: 00 00              add         byte ptr [eax],al
  0040321A: 00 00              add         byte ptr [eax],al
  0040321C: 00 00              add         byte ptr [eax],al
  0040321E: 00 00              add         byte ptr [eax],al
  00403220: 00 00              add         byte ptr [eax],al
  00403222: 00 00              add         byte ptr [eax],al
  00403224: 00 00              add         byte ptr [eax],al
  00403226: 00 00              add         byte ptr [eax],al
  00403228: 00 00              add         byte ptr [eax],al
  0040322A: 00 00              add         byte ptr [eax],al
  0040322C: 00 00              add         byte ptr [eax],al
  0040322E: 00 00              add         byte ptr [eax],al
  00403230: 00 00              add         byte ptr [eax],al
  00403232: 00 00              add         byte ptr [eax],al
  00403234: 00 00              add         byte ptr [eax],al
  00403236: 00 00              add         byte ptr [eax],al
  00403238: 00 00              add         byte ptr [eax],al
  0040323A: 00 00              add         byte ptr [eax],al
  0040323C: 00 00              add         byte ptr [eax],al
  0040323E: 00 00              add         byte ptr [eax],al
  00403240: 00 00              add         byte ptr [eax],al
  00403242: 00 00              add         byte ptr [eax],al
  00403244: 00 00              add         byte ptr [eax],al
  00403246: 00 00              add         byte ptr [eax],al
  00403248: 00 00              add         byte ptr [eax],al
  0040324A: 00 00              add         byte ptr [eax],al
  0040324C: 00 00              add         byte ptr [eax],al
  0040324E: 00 00              add         byte ptr [eax],al
  00403250: 00 00              add         byte ptr [eax],al
  00403252: 00 00              add         byte ptr [eax],al
  00403254: 00 00              add         byte ptr [eax],al
  00403256: 00 00              add         byte ptr [eax],al
  00403258: 00 00              add         byte ptr [eax],al
  0040325A: 00 00              add         byte ptr [eax],al
  0040325C: 00 00              add         byte ptr [eax],al
  0040325E: 00 00              add         byte ptr [eax],al
  00403260: 00 00              add         byte ptr [eax],al
  00403262: 00 00              add         byte ptr [eax],al
  00403264: 00 00              add         byte ptr [eax],al
  00403266: 00 00              add         byte ptr [eax],al
  00403268: 00 00              add         byte ptr [eax],al
  0040326A: 00 00              add         byte ptr [eax],al
  0040326C: 00 00              add         byte ptr [eax],al
  0040326E: 00 00              add         byte ptr [eax],al
  00403270: 00 00              add         byte ptr [eax],al
  00403272: 00 00              add         byte ptr [eax],al
  00403274: 00 00              add         byte ptr [eax],al
  00403276: 00 00              add         byte ptr [eax],al
  00403278: 00 00              add         byte ptr [eax],al
  0040327A: 00 00              add         byte ptr [eax],al
  0040327C: 00 00              add         byte ptr [eax],al
  0040327E: 00 00              add         byte ptr [eax],al
  00403280: 00 00              add         byte ptr [eax],al
  00403282: 00 00              add         byte ptr [eax],al
  00403284: 00 00              add         byte ptr [eax],al
  00403286: 00 00              add         byte ptr [eax],al
  00403288: 00 00              add         byte ptr [eax],al
  0040328A: 00 00              add         byte ptr [eax],al
  0040328C: 00 00              add         byte ptr [eax],al
  0040328E: 00 00              add         byte ptr [eax],al
  00403290: 00 00              add         byte ptr [eax],al
  00403292: 00 00              add         byte ptr [eax],al
  00403294: 00 00              add         byte ptr [eax],al
  00403296: 00 00              add         byte ptr [eax],al
  00403298: 00 00              add         byte ptr [eax],al
  0040329A: 00 00              add         byte ptr [eax],al
  0040329C: 00 00              add         byte ptr [eax],al
  0040329E: 00 00              add         byte ptr [eax],al
  004032A0: 00 00              add         byte ptr [eax],al
  004032A2: 00 00              add         byte ptr [eax],al
  004032A4: 00 00              add         byte ptr [eax],al
  004032A6: 00 00              add         byte ptr [eax],al
  004032A8: 00 00              add         byte ptr [eax],al
  004032AA: 00 00              add         byte ptr [eax],al
  004032AC: 00 00              add         byte ptr [eax],al
  004032AE: 00 00              add         byte ptr [eax],al
  004032B0: 00 00              add         byte ptr [eax],al
  004032B2: 00 00              add         byte ptr [eax],al
  004032B4: 00 00              add         byte ptr [eax],al
  004032B6: 00 00              add         byte ptr [eax],al
  004032B8: 00 00              add         byte ptr [eax],al
  004032BA: 00 00              add         byte ptr [eax],al
  004032BC: 00 00              add         byte ptr [eax],al
  004032BE: 00 00              add         byte ptr [eax],al
  004032C0: 00 00              add         byte ptr [eax],al
  004032C2: 00 00              add         byte ptr [eax],al
  004032C4: 00 00              add         byte ptr [eax],al
  004032C6: 00 00              add         byte ptr [eax],al
  004032C8: 00 00              add         byte ptr [eax],al
  004032CA: 00 00              add         byte ptr [eax],al
  004032CC: 00 00              add         byte ptr [eax],al
  004032CE: 00 00              add         byte ptr [eax],al
  004032D0: 00 00              add         byte ptr [eax],al
  004032D2: 00 00              add         byte ptr [eax],al
  004032D4: 00 00              add         byte ptr [eax],al
  004032D6: 00 00              add         byte ptr [eax],al
  004032D8: 00 00              add         byte ptr [eax],al
  004032DA: 00 00              add         byte ptr [eax],al
  004032DC: 00 00              add         byte ptr [eax],al
  004032DE: 00 00              add         byte ptr [eax],al
  004032E0: 00 00              add         byte ptr [eax],al
  004032E2: 00 00              add         byte ptr [eax],al
  004032E4: 00 00              add         byte ptr [eax],al
  004032E6: 00 00              add         byte ptr [eax],al
  004032E8: 00 00              add         byte ptr [eax],al
  004032EA: 00 00              add         byte ptr [eax],al
  004032EC: 00 00              add         byte ptr [eax],al
  004032EE: 00 00              add         byte ptr [eax],al
  004032F0: 00 00              add         byte ptr [eax],al
  004032F2: 00 00              add         byte ptr [eax],al
  004032F4: 00 00              add         byte ptr [eax],al
  004032F6: 00 00              add         byte ptr [eax],al
  004032F8: 00 00              add         byte ptr [eax],al
  004032FA: 00 00              add         byte ptr [eax],al
  004032FC: 00 00              add         byte ptr [eax],al
  004032FE: 00 00              add         byte ptr [eax],al
  00403300: 00 00              add         byte ptr [eax],al
  00403302: 00 00              add         byte ptr [eax],al
  00403304: 00 00              add         byte ptr [eax],al
  00403306: 00 00              add         byte ptr [eax],al
  00403308: 00 00              add         byte ptr [eax],al
  0040330A: 00 00              add         byte ptr [eax],al
  0040330C: 00 00              add         byte ptr [eax],al
  0040330E: 00 00              add         byte ptr [eax],al
  00403310: 00 00              add         byte ptr [eax],al
  00403312: 00 00              add         byte ptr [eax],al
  00403314: 00 00              add         byte ptr [eax],al
  00403316: 00 00              add         byte ptr [eax],al
  00403318: 00 00              add         byte ptr [eax],al
  0040331A: 00 00              add         byte ptr [eax],al
  0040331C: 00 00              add         byte ptr [eax],al
  0040331E: 00 00              add         byte ptr [eax],al
  00403320: 00 00              add         byte ptr [eax],al
  00403322: 00 00              add         byte ptr [eax],al
  00403324: 00 00              add         byte ptr [eax],al
  00403326: 00 00              add         byte ptr [eax],al
  00403328: 00 00              add         byte ptr [eax],al
  0040332A: 00 00              add         byte ptr [eax],al
  0040332C: 00 00              add         byte ptr [eax],al
  0040332E: 00 00              add         byte ptr [eax],al
  00403330: 00 00              add         byte ptr [eax],al
  00403332: 00 00              add         byte ptr [eax],al
  00403334: 00 00              add         byte ptr [eax],al
  00403336: 00 00              add         byte ptr [eax],al
  00403338: 00 00              add         byte ptr [eax],al
  0040333A: 00 00              add         byte ptr [eax],al
  0040333C: 00 00              add         byte ptr [eax],al
  0040333E: 00 00              add         byte ptr [eax],al
  00403340: 00 00              add         byte ptr [eax],al
  00403342: 00 00              add         byte ptr [eax],al
  00403344: 00 00              add         byte ptr [eax],al
  00403346: 00 00              add         byte ptr [eax],al
  00403348: 00 00              add         byte ptr [eax],al
  0040334A: 00 00              add         byte ptr [eax],al
  0040334C: 00 00              add         byte ptr [eax],al
  0040334E: 00 00              add         byte ptr [eax],al
  00403350: 00 00              add         byte ptr [eax],al
  00403352: 00 00              add         byte ptr [eax],al
  00403354: 00 00              add         byte ptr [eax],al
  00403356: 00 00              add         byte ptr [eax],al
  00403358: 00 00              add         byte ptr [eax],al
  0040335A: 00 00              add         byte ptr [eax],al
  0040335C: 00 00              add         byte ptr [eax],al
  0040335E: 00 00              add         byte ptr [eax],al
  00403360: 00 00              add         byte ptr [eax],al
  00403362: 00 00              add         byte ptr [eax],al
  00403364: 00 00              add         byte ptr [eax],al
  00403366: 00 00              add         byte ptr [eax],al
  00403368: 00 00              add         byte ptr [eax],al
  0040336A: 00 00              add         byte ptr [eax],al
  0040336C: 00 00              add         byte ptr [eax],al
  0040336E: 00 00              add         byte ptr [eax],al
  00403370: 00 00              add         byte ptr [eax],al
  00403372: 00 00              add         byte ptr [eax],al
  00403374: 00 00              add         byte ptr [eax],al
  00403376: 00 00              add         byte ptr [eax],al
  00403378: 00 00              add         byte ptr [eax],al
  0040337A: 00 00              add         byte ptr [eax],al
  0040337C: 00 00              add         byte ptr [eax],al
  0040337E: 00 00              add         byte ptr [eax],al
  00403380: 00 00              add         byte ptr [eax],al
  00403382: 00 00              add         byte ptr [eax],al
  00403384: 00 00              add         byte ptr [eax],al
  00403386: 00 00              add         byte ptr [eax],al
  00403388: 00 00              add         byte ptr [eax],al
  0040338A: 00 00              add         byte ptr [eax],al
  0040338C: 00 00              add         byte ptr [eax],al
  0040338E: 00 00              add         byte ptr [eax],al
  00403390: 00 00              add         byte ptr [eax],al
  00403392: 00 00              add         byte ptr [eax],al
  00403394: 00 00              add         byte ptr [eax],al
  00403396: 00 00              add         byte ptr [eax],al
  00403398: 00 00              add         byte ptr [eax],al
  0040339A: 00 00              add         byte ptr [eax],al
  0040339C: 00 00              add         byte ptr [eax],al
  0040339E: 00 00              add         byte ptr [eax],al
  004033A0: 00 00              add         byte ptr [eax],al
  004033A2: 00 00              add         byte ptr [eax],al
  004033A4: 00 00              add         byte ptr [eax],al
  004033A6: 00 00              add         byte ptr [eax],al
  004033A8: 00 00              add         byte ptr [eax],al
  004033AA: 00 00              add         byte ptr [eax],al
  004033AC: 00 00              add         byte ptr [eax],al
  004033AE: 00 00              add         byte ptr [eax],al
  004033B0: 00 00              add         byte ptr [eax],al
  004033B2: 00 00              add         byte ptr [eax],al
  004033B4: 00 00              add         byte ptr [eax],al
  004033B6: 00 00              add         byte ptr [eax],al
  004033B8: 00 00              add         byte ptr [eax],al
  004033BA: 00 00              add         byte ptr [eax],al
  004033BC: 00 00              add         byte ptr [eax],al
  004033BE: 00 00              add         byte ptr [eax],al
  004033C0: 00 00              add         byte ptr [eax],al
  004033C2: 00 00              add         byte ptr [eax],al
  004033C4: 00 00              add         byte ptr [eax],al
  004033C6: 00 00              add         byte ptr [eax],al
  004033C8: 00 00              add         byte ptr [eax],al
  004033CA: 00 00              add         byte ptr [eax],al
  004033CC: 00 00              add         byte ptr [eax],al
  004033CE: 00 00              add         byte ptr [eax],al
  004033D0: 00 00              add         byte ptr [eax],al
  004033D2: 00 00              add         byte ptr [eax],al
  004033D4: 00 00              add         byte ptr [eax],al
  004033D6: 00 00              add         byte ptr [eax],al
  004033D8: 00 00              add         byte ptr [eax],al
  004033DA: 00 00              add         byte ptr [eax],al
  004033DC: 00 00              add         byte ptr [eax],al
  004033DE: 00 00              add         byte ptr [eax],al
  004033E0: 00 00              add         byte ptr [eax],al
  004033E2: 00 00              add         byte ptr [eax],al
  004033E4: 00 00              add         byte ptr [eax],al
  004033E6: 00 00              add         byte ptr [eax],al

  00404000: 7C 72              jl          00404074
  00404002: 40                 inc         eax
  00404003: 00 78 72           add         byte ptr [eax+72h],bh
  00404006: 40                 inc         eax
  00404007: 00 F0              add         al,dh
  00404009: 71 40              jno         0040404B
  0040400B: 00 D8              add         al,bl
  0040400D: 71 40              jno         0040404F
  0040400F: 00 70 72           add         byte ptr [eax+72h],dh
  00404012: 40                 inc         eax
  00404013: 00 28              add         byte ptr [eax],ch
  00404015: 72 40              jb          00404057
  00404017: 00 68 72           add         byte ptr [eax+72h],ch
  0040401A: 40                 inc         eax
  0040401B: 00 E0              add         al,ah
  0040401D: 71 40              jno         0040405F
  0040401F: 00 3C 72           add         byte ptr [edx+esi*2],bh
  00404022: 40                 inc         eax
  00404023: 00 7C 72 40        add         byte ptr [edx+esi*2+40h],bh
  00404027: 00 18              add         byte ptr [eax],bl
  00404029: 72 40              jb          0040406B
  0040402B: 00 98 71 40 00 14  add         byte ptr [eax+14004071h],bl
  00404031: 72 40              jb          00404073
  00404033: 00 74 72 40        add         byte ptr [edx+esi*2+40h],dh
  00404037: 00 0C 72           add         byte ptr [edx+esi*2],cl
  0040403A: 40                 inc         eax
  0040403B: 00 18              add         byte ptr [eax],bl
  0040403D: 72 40              jb          0040407F
  0040403F: 00 08              add         byte ptr [eax],cl
  00404041: 72 40              jb          00404083
  00404043: 00 54 72 40        add         byte ptr [edx+esi*2+40h],dl
  00404047: 00 AC 71 40 00 B8  add         byte ptr [ecx+esi*2+71B80040h],ch
            71
  0040404E: 40                 inc         eax
  0040404F: 00 84 72 40 00 84  add         byte ptr [edx+esi*2+72840040h],al
            72
  00404056: 40                 inc         eax
  00404057: 00 E8              add         al,ch
  00404059: 71 40              jno         0040409B
  0040405B: 00 FC              add         ah,bh
  0040405D: 71 40              jno         0040409F
  0040405F: 00 A0 71 40 00 DC  add         byte ptr [eax+DC004071h],ah
  00404065: 71 40              jno         004040A7
  00404067: 00 08              add         byte ptr [eax],cl
  00404069: 72 40              jb          004040AB
  0040406B: 00 F4              add         ah,dh
  0040406D: 71 40              jno         004040AF
  0040406F: 00 64 72 40        add         byte ptr [edx+esi*2+40h],ah
  00404073: 00 EC              add         ah,ch
  00404075: 71 40              jno         004040B7
  00404077: 00 08              add         byte ptr [eax],cl
  00404079: 72 40              jb          004040BB
  0040407B: 00 14 72           add         byte ptr [edx+esi*2],dl
  0040407E: 40                 inc         eax
  0040407F: 00 2C 72           add         byte ptr [edx+esi*2],ch
  00404082: 40                 inc         eax
  00404083: 00 4C 72 40        add         byte ptr [edx+esi*2+40h],cl
  00404087: 00 6C 72 40        add         byte ptr [edx+esi*2+40h],ch
  0040408B: 00 44 72 40        add         byte ptr [edx+esi*2+40h],al
  0040408F: 00 4C 72 40        add         byte ptr [edx+esi*2+40h],cl
  00404093: 00 40 72           add         byte ptr [eax+72h],al
  00404096: 40                 inc         eax
  00404097: 00 38              add         byte ptr [eax],bh
  00404099: 72 40              jb          004040DB
  0040409B: 00 2C 72           add         byte ptr [edx+esi*2],ch
  0040409E: 40                 inc         eax
  0040409F: 00 A8 71 40 00 A8  add         byte ptr [eax+A8004071h],ch
  004040A5: 71 40              jno         004040E7
  004040A7: 00 4C 72 40        add         byte ptr [edx+esi*2+40h],cl
  004040AB: 00 DC              add         ah,bl
  004040AD: 71 40              jno         004040EF
  004040AF: 00 FC              add         ah,bh
  004040B1: 71 40              jno         004040F3
  004040B3: 00 4C 72 40        add         byte ptr [edx+esi*2+40h],cl
  004040B7: 00 24 72           add         byte ptr [edx+esi*2],ah
  004040BA: 40                 inc         eax
  004040BB: 00 F8              add         al,bh
  004040BD: 71 40              jno         004040FF
  004040BF: 00 84 72 40 00 BC  add         byte ptr [edx+esi*2+71BC0040h],al
            71
  004040C6: 40                 inc         eax
  004040C7: 00 94 71 40 00 24  add         byte ptr [ecx+esi*2+72240040h],dl
            72
  004040CE: 40                 inc         eax
  004040CF: 00 64 72 40        add         byte ptr [edx+esi*2+40h],ah
  004040D3: 00 30              add         byte ptr [eax],dh
  004040D5: 72 40              jb          00404117
  004040D7: 00 10              add         byte ptr [eax],dl
  004040D9: 72 40              jb          0040411B
  004040DB: 00 FC              add         ah,bh
  004040DD: 71 40              jno         0040411F
  004040DF: 00 44 72 40        add         byte ptr [edx+esi*2+40h],al
  004040E3: 00 80 72 40 00 68  add         byte ptr [eax+68004072h],al
  004040E9: 72 40              jb          0040412B
  004040EB: 00 E4              add         ah,ah
  004040ED: 71 40              jno         0040412F
  004040EF: 00 60 72           add         byte ptr [eax+72h],ah
  004040F2: 40                 inc         eax
  004040F3: 00 2C 72           add         byte ptr [edx+esi*2],ch
  004040F6: 40                 inc         eax
  004040F7: 00 C8              add         al,cl
  004040F9: 71 40              jno         0040413B
  004040FB: 00 C0              add         al,al
  004040FD: 71 40              jno         0040413F
  004040FF: 00 04 72           add         byte ptr [edx+esi*2],al
  00404102: 40                 inc         eax
  00404103: 00 1C 72           add         byte ptr [edx+esi*2],bl
  00404106: 40                 inc         eax
  00404107: 00 D4              add         ah,dl
  00404109: 71 40              jno         0040414B
  0040410B: 00 50 72           add         byte ptr [eax+72h],dl
  0040410E: 40                 inc         eax
  0040410F: 00 6C 72 40        add         byte ptr [edx+esi*2+40h],ch
  00404113: 00 98 71 40 00 74  add         byte ptr [eax+74004071h],bl
  00404119: 72 40              jb          0040415B
  0040411B: 00 34 72           add         byte ptr [edx+esi*2],dh
  0040411E: 40                 inc         eax
  0040411F: 00 04 72           add         byte ptr [edx+esi*2],al
  00404122: 40                 inc         eax
  00404123: 00 54 72 40        add         byte ptr [edx+esi*2+40h],dl
  00404127: 00 9C 71 40 00 C4  add         byte ptr [ecx+esi*2+71C40040h],bl
            71
  0040412E: 40                 inc         eax
  0040412F: 00 BC 71 40 00 18  add         byte ptr [ecx+esi*2+72180040h],bh
            72
  00404136: 40                 inc         eax
  00404137: 00 40 72           add         byte ptr [eax+72h],al
  0040413A: 40                 inc         eax
  0040413B: 00 50 72           add         byte ptr [eax+72h],dl
  0040413E: 40                 inc         eax
  0040413F: 00 B0 71 40 00 00  add         byte ptr [eax+00004071h],dh
  00404145: 72 40              jb          00404187
  00404147: 00 98 71 40 00 60  add         byte ptr [eax+60004071h],bl
  0040414D: 72 40              jb          0040418F
  0040414F: 00 04 72           add         byte ptr [edx+esi*2],al
  00404152: 40                 inc         eax
  00404153: 00 18              add         byte ptr [eax],bl
  00404155: 72 40              jb          00404197
  00404157: 00 48 72           add         byte ptr [eax+72h],cl
  0040415A: 40                 inc         eax
  0040415B: 00 18              add         byte ptr [eax],bl
  0040415D: 72 40              jb          0040419F
  0040415F: 00 04 72           add         byte ptr [edx+esi*2],al
  00404162: 40                 inc         eax
  00404163: 00 DC              add         ah,bl
  00404165: 71 40              jno         004041A7
  00404167: 00 FC              add         ah,bh
  00404169: 71 40              jno         004041AB
  0040416B: 00 20              add         byte ptr [eax],ah
  0040416D: 72 40              jb          004041AF
  0040416F: 00 CC              add         ah,cl
  00404171: 71 40              jno         004041B3
  00404173: 00 D0              add         al,dl
  00404175: 71 40              jno         004041B7
  00404177: 00 18              add         byte ptr [eax],bl
  00404179: 72 40              jb          004041BB
  0040417B: 00 A4 71 40 00 E8  add         byte ptr [ecx+esi*2+71E80040h],ah
            71
  00404182: 40                 inc         eax
  00404183: 00 CC              add         ah,cl
  00404185: 71 40              jno         004041C7
  00404187: 00 B4 71 40 00 5C  add         byte ptr [ecx+esi*2+725C0040h],dh
            72
  0040418E: 40                 inc         eax
  0040418F: 00 00              add         byte ptr [eax],al
  00404191: 71 40              jno         004041D3
  00404193: 00 50 71           add         byte ptr [eax+71h],dl
  00404196: 40                 inc         eax
  00404197: 00 58 70           add         byte ptr [eax+70h],bl
  0040419A: 40                 inc         eax
  0040419B: 00 84 70 40 00 30  add         byte ptr [eax+esi*2+71300040h],al
            71
  004041A2: 40                 inc         eax
  004041A3: 00 1C 71           add         byte ptr [ecx+esi*2],bl
  004041A6: 40                 inc         eax
  004041A7: 00 80 71 40 00 10  add         byte ptr [eax+10004071h],al
  004041AD: 70 40              jo          004041EF
  004041AF: 00 24 70           add         byte ptr [eax+esi*2],ah
  004041B2: 40                 inc         eax
  004041B3: 00 24 71           add         byte ptr [ecx+esi*2],ah
  004041B6: 40                 inc         eax
  004041B7: 00 74 71 40        add         byte ptr [ecx+esi*2+40h],dh
  004041BB: 00 34 70           add         byte ptr [eax+esi*2],dh
  004041BE: 40                 inc         eax
  004041BF: 00 F8              add         al,bh
  004041C1: 70 40              jo          00404203
  004041C3: 00 CC              add         ah,cl
  004041C5: 70 40              jo          00404207
  004041C7: 00 9C 70 40 00 64  add         byte ptr [eax+esi*2+71640040h],bl
            71
  004041CE: 40                 inc         eax
  004041CF: 00 7C 71 40        add         byte ptr [ecx+esi*2+40h],bh
  004041D3: 00 38              add         byte ptr [eax],bh
  004041D5: 71 40              jno         00404217
  004041D7: 00 6C 71 40        add         byte ptr [ecx+esi*2+40h],ch
  004041DB: 00 1C 70           add         byte ptr [eax+esi*2],bl
  004041DE: 40                 inc         eax
  004041DF: 00 3C 71           add         byte ptr [ecx+esi*2],bh
  004041E2: 40                 inc         eax
  004041E3: 00 60 70           add         byte ptr [eax+70h],ah
  004041E6: 40                 inc         eax
  004041E7: 00 98 70 40 00 10  add         byte ptr [eax+10004070h],bl
  004041ED: 71 40              jno         0040422F
  004041EF: 00 88 70 40 00 C4  add         byte ptr [eax+C4004070h],cl
  004041F5: 70 40              jo          00404237
  004041F7: 00 64 70 40        add         byte ptr [eax+esi*2+40h],ah
  004041FB: 00 54 70 40        add         byte ptr [eax+esi*2+40h],dl
  004041FF: 00 48 71           add         byte ptr [eax+71h],cl
  00404202: 40                 inc         eax
  00404203: 00 70 70           add         byte ptr [eax+70h],dh
  00404206: 40                 inc         eax
  00404207: 00 1C 71           add         byte ptr [ecx+esi*2],bl
  0040420A: 40                 inc         eax
  0040420B: 00 F4              add         ah,dh
  0040420D: 70 40              jo          0040424F
  0040420F: 00 50 70           add         byte ptr [eax+70h],dl
  00404212: 40                 inc         eax
  00404213: 00 A0 70 40 00 68  add         byte ptr [eax+68004070h],ah
  00404219: 70 40              jo          0040425B
  0040421B: 00 78 70           add         byte ptr [eax+70h],bh
  0040421E: 40                 inc         eax
  0040421F: 00 70 71           add         byte ptr [eax+71h],dh
  00404222: 40                 inc         eax
  00404223: 00 84 71 40 00 00  add         byte ptr [ecx+esi*2+71000040h],al
            71
  0040422A: 40                 inc         eax
  0040422B: 00 18              add         byte ptr [eax],bl
  0040422D: 71 40              jno         0040426F
  0040422F: 00 A8 70 40 00 84  add         byte ptr [eax+84004070h],ch
  00404235: 71 40              jno         00404277
  00404237: 00 20              add         byte ptr [eax],ah
  00404239: 71 40              jno         0040427B
  0040423B: 00 EC              add         ah,ch
  0040423D: 70 40              jo          0040427F
  0040423F: 00 B4 70 40 00 7C  add         byte ptr [eax+esi*2+707C0040h],dh
            70
  00404246: 40                 inc         eax
  00404247: 00 60 71           add         byte ptr [eax+71h],ah
  0040424A: 40                 inc         eax
  0040424B: 00 34 71           add         byte ptr [ecx+esi*2],dh
  0040424E: 40                 inc         eax
  0040424F: 00 68 71           add         byte ptr [eax+71h],ch
  00404252: 40                 inc         eax
  00404253: 00 C0              add         al,al
  00404255: 70 40              jo          00404297
  00404257: 00 18              add         byte ptr [eax],bl
  00404259: 70 40              jo          0040429B
  0040425B: 00 40 70           add         byte ptr [eax+70h],al
  0040425E: 40                 inc         eax
  0040425F: 00 A4 70 40 00 DC  add         byte ptr [eax+esi*2+70DC0040h],ah
            70
  00404266: 40                 inc         eax
  00404267: 00 40 71           add         byte ptr [eax+71h],al
  0040426A: 40                 inc         eax
  0040426B: 00 28              add         byte ptr [eax],ch
  0040426D: 70 40              jo          004042AF
  0040426F: 00 B0 70 40 00 D4  add         byte ptr [eax+D4004070h],dh
  00404275: 70 40              jo          004042B7
  00404277: 00 08              add         byte ptr [eax],cl
  00404279: 71 40              jno         004042BB
  0040427B: 00 AC 70 40 00 14  add         byte ptr [eax+esi*2+70140040h],ch
            70
  00404282: 40                 inc         eax
  00404283: 00 14 71           add         byte ptr [ecx+esi*2],dl
  00404286: 40                 inc         eax
  00404287: 00 88 71 40 00 94  add         byte ptr [eax+94004071h],cl
  0040428D: 70 40              jo          004042CF
  0040428F: 00 E8              add         al,ch
  00404291: 70 40              jo          004042D3
  00404293: 00 3C 70           add         byte ptr [eax+esi*2],bh
  00404296: 40                 inc         eax
  00404297: 00 74 70 40        add         byte ptr [eax+esi*2+40h],dh
  0040429B: 00 2C 71           add         byte ptr [ecx+esi*2],ch
  0040429E: 40                 inc         eax
  0040429F: 00 48 70           add         byte ptr [eax+70h],cl
  004042A2: 40                 inc         eax
  004042A3: 00 44 70 40        add         byte ptr [eax+esi*2+40h],al
  004042A7: 00 80 70 40 00 90  add         byte ptr [eax+90004070h],al
  004042AD: 70 40              jo          004042EF
  004042AF: 00 AC 70 40 00 20  add         byte ptr [eax+esi*2+70200040h],ch
            70
  004042B6: 40                 inc         eax
  004042B7: 00 0C 71           add         byte ptr [ecx+esi*2],cl
  004042BA: 40                 inc         eax
  004042BB: 00 E0              add         al,ah
  004042BD: 70 40              jo          004042FF
  004042BF: 00 F0              add         al,dh
  004042C1: 70 40              jo          00404303
  004042C3: 00 6C 70 40        add         byte ptr [eax+esi*2+40h],ch
  004042C7: 00 38              add         byte ptr [eax],bh
  004042C9: 70 40              jo          0040430B
  004042CB: 00 04 71           add         byte ptr [ecx+esi*2],al
  004042CE: 40                 inc         eax
  004042CF: 00 D8              add         al,bl
  004042D1: 70 40              jo          00404313
  004042D3: 00 44 71 40        add         byte ptr [ecx+esi*2+40h],al
  004042D7: 00 D0              add         al,dl
  004042D9: 70 40              jo          0040431B
  004042DB: 00 58 71           add         byte ptr [eax+71h],bl
  004042DE: 40                 inc         eax
  004042DF: 00 28              add         byte ptr [eax],ch
  004042E1: 71 40              jno         00404323
  004042E3: 00 E4              add         ah,ah
  004042E5: 70 40              jo          00404327
  004042E7: 00 4C 70 40        add         byte ptr [eax+esi*2+40h],cl
  004042EB: 00 5C 70 40        add         byte ptr [eax+esi*2+40h],bl
  004042EF: 00 78 71           add         byte ptr [eax+71h],bh
  004042F2: 40                 inc         eax
  004042F3: 00 5C 71 40        add         byte ptr [ecx+esi*2+40h],bl
  004042F7: 00 14 70           add         byte ptr [eax+esi*2],dl
  004042FA: 40                 inc         eax
  004042FB: 00 BC 70 40 00 54  add         byte ptr [eax+esi*2+71540040h],bh
            71
  00404302: 40                 inc         eax
  00404303: 00 B8 70 40 00 FC  add         byte ptr [eax+FC004070h],bh
  00404309: 70 40              jo          0040434B
  0040430B: 00 30              add         byte ptr [eax],dh
  0040430D: 70 40              jo          0040434F
  0040430F: 00 2C 70           add         byte ptr [eax+esi*2],ch
  00404312: 40                 inc         eax
  00404313: 00 4C 71 40        add         byte ptr [ecx+esi*2+40h],cl
  00404317: 00 88 71 40 00 8C  add         byte ptr [eax+8C004071h],cl
  0040431D: 70 40              jo          0040435F
  0040431F: 00 00              add         byte ptr [eax],al
  00404321: 1A 00              sbb         al,byte ptr [eax]
  00404323: 00 E0              add         al,ah
  00404325: 1C 40              sbb         al,40h
  00404327: 00 E1              add         cl,ah
  00404329: 00 00              add         byte ptr [eax],al
  0040432B: 00 A7 65 74 4D 77  add         byte ptr [edi+774D7465h],ah
  00404331: 64 75 6C           jne         004043A0
  00404334: 85 46 69           test        dword ptr [esi+69h],eax
  00404337: 6C                 ins         byte ptr es:[edi],dx
  00404338: 7D 4E              jge         00404388
  0040433A: 61                 popad
  0040433B: 6D                 ins         dword ptr es:[edi],dx
  0040433C: 85 41 00           test        dword ptr [ecx],eax
  0040433F: 00 9F 65 74 43 4F  add         byte ptr [edi+4F437465h],bl
  00404345: 6C                 ins         byte ptr es:[edi],dx
  00404346: 70 75              jo          004043BD
  00404348: 4C                 dec         esp
  00404349: 64 72 4E           jb          0040439A
  0040434C: 41                 inc         ecx
  0040434D: 6C                 ins         byte ptr es:[edi],dx
  0040434E: 65 41              inc         ecx
  00404350: E0 00              loopne      00404352
  00404352: 00 00              add         byte ptr [eax],al
  00404354: 23 73 65           and         esi,dword ptr [ebx+65h]
  00404357: 61                 popad
  00404358: 2C 64              sub         al,64h
  0040435A: 50                 push        eax
  0040435B: 72 3F              jb          0040439C
  0040435D: 62 65 73           bound       esp,qword ptr [ebp+73h]
  00404360: 33 40 00           xor         eax,dword ptr [eax]
  00404363: 00 24 64           add         byte ptr [esp],ah
  00404366: 6C                 ins         byte ptr es:[edi],dx
  00404367: 65 0C 64           or          al,64h
  0040436A: 46                 inc         esi
  0040436B: 69 FC 63 41 00 F4  imul        edi,esp,0F4004163h
  00404371: 71 74              jno         004043E7
  00404373: 72 03              jb          00404378
  00404375: 71 79              jno         004043F0
  00404377: 41                 inc         ecx
  00404378: E0 00              loopne      0040437A
  0040437A: 00 00              add         byte ptr [eax],al
  0040437C: 27                 daa
  0040437D: 64 74 54           je          004043D4
  00404380: FD                 std
  00404381: 6B 70 50 C1        imul        esi,dword ptr [eax+50h],0FFFFFFC1h
  00404385: 74 68              je          004043EF
  00404387: 41                 inc         ecx
  00404388: 00 00              add         byte ptr [eax],al
  0040438A: 00 00              add         byte ptr [eax],al
  0040438C: 00 E0              add         al,ah
  0040438E: 00 00              add         byte ptr [eax],al
  00404390: 00 A7 63 74 54 BD  add         byte ptr [edi+BD547463h],ah
  00404396: 6B 70 46 C9        imul        esi,dword ptr [eax+46h],0FFFFFFC9h
  0040439A: 6C                 ins         byte ptr es:[edi],dx
  0040439B: 65 4E              dec         esi
  0040439D: C1 6B 65 41        shr         dword ptr [ebx+65h],41h
  004043A1: E0 00              loopne      004043A3
  004043A3: 00 00              add         byte ptr [eax],al
  004043A5: B4 71              mov         ah,71h
  004043A7: 74 72              je          0040441B
  004043A9: 83 5F 74 41        sbb         dword ptr [edi+74h],41h
  004043AD: E0 00              loopne      004043AF
  004043AF: 00 00              add         byte ptr [eax],al
  004043B1: 7C 71              jl          00404424
  004043B3: 74 72              je          00404427
  004043B5: 74 63              je          0040441A
  004043B7: 6E                 outs        dx,byte ptr [esi]
  004043B8: 41                 inc         ecx
  004043B9: E0 00              loopne      004043BB
  004043BB: 00 00              add         byte ptr [eax],al
  004043BD: A3 72 65 61 74     mov         dword ptr ds:[74616572h],eax
  004043C2: 63 46 69           arpl        word ptr [esi+69h],ax
  004043C5: 74 63              je          0040442A
  004043C7: 41                 inc         ecx
  004043C8: 00 37              add         byte ptr [edi],dh
  004043CA: 73 69              jae         00404435
  004043CC: 74 3D              je          0040440B
  004043CE: 47                 inc         edi
  004043CF: 69 6C 45 01 00 00  imul        ebp,dword ptr [ebp+eax*2+1],6D230000h
            23 6D
  004043D7: 6F                 outs        dx,dword ptr [esi]
  004043D8: 73 45              jae         0040441F
  004043DA: 49                 dec         ecx
  004043DB: 61                 popad
  004043DC: 6E                 outs        dx,byte ptr [esi]
  004043DD: 3C 6D              cmp         al,6Dh
  004043DF: 65 00 17           add         byte ptr gs:[edi],dl
  004043E2: 68 6E 45 28 64     push        6428456Eh
  004043E7: 63 00              arpl        word ptr [eax],ax
  004043E9: 23 73 65           and         esi,dword ptr [ebx+65h]
  004043EC: 61                 popad
  004043ED: 0C 64              or          al,64h
  004043EF: 4D                 dec         ebp
  004043F0: 75 00              jne         004043F2
  004043F2: 00 00              add         byte ptr [eax],al
  004043F4: 00 00              add         byte ptr [eax],al
  004043F6: 14 64              adc         al,64h
  004043F8: 78 41              js          0040443B
  004043FA: E0 00              loopne      004043FC
  004043FC: 00 00              add         byte ptr [eax],al
  004043FE: 2F                 das
  004043FF: 71 65              jno         00404466
  00404401: 6E                 outs        dx,byte ptr [esi]
  00404402: 25 74 74 65 E8     and         eax,0E8657474h
  00404407: 3F                 aas
  00404408: 00 00              add         byte ptr [eax],al
  0040440A: 1F                 pop         ds
  0040440B: 64 74 54           je          00404462
  0040440E: C9                 leave
  0040440F: 61                 popad
  00404410: 6B 43 C7 73        imul        eax,dword ptr [ebx-39h],73h
  00404414: 6E                 outs        dx,byte ptr [esi]
  00404415: 74 E0              je          004043F7
  00404417: 00 00              add         byte ptr [eax],al
  00404419: 00 9F 63 74 50 B2  add         byte ptr [edi+B2507463h],bl
  0040441F: 6D                 ins         dword ptr es:[edi],dx
  00404420: 63 65 B3           arpl        word ptr [ebp-4Dh],sp
  00404423: 71 48              jno         0040446D
  00404425: 65 C1 70 00 00     sal         dword ptr gs:[eax],0
  0040442A: 98                 cwde
  0040442B: 63 61 70           arpl        word ptr [ecx+70h],sp
  0040442E: A1 6C 6C 6F 83     mov         eax,dword ptr ds:[836F6C6Ch]
  00404433: 00 00              add         byte ptr [eax],al
  00404435: 00 A7 63 74 50 92  add         byte ptr [edi+92507463h],ah
  0040443B: 6D                 ins         dword ptr es:[edi],dx
  0040443C: 63 41 84           arpl        word ptr [ecx-7Ch],ax
  0040443F: 64 72 65           jb          004044A7
  00404442: 73 71              jae         004044B5
  00404444: 00 00              add         byte ptr [eax],al
  00404446: 9C                 pushfd
  00404447: 6D                 ins         dword ptr es:[edi],dx
  00404448: 61                 popad
  00404449: 64 94              xchg        eax,esp
  0040444B: 67 62 72 41        bound       esi,qword ptr [bp+si+41h]
  0040444F: 6F                 outs        dx,dword ptr [esi]
  00404450: 79 45              jns         00404497
  00404452: 58                 pop         eax
  00404453: 42                 inc         edx
  00404454: 00 00              add         byte ptr [eax],al
  00404456: 25 79 69 74 00     and         eax,746979h
  0040445B: 00 00              add         byte ptr [eax],al
  0040445D: 00 00              add         byte ptr [eax],al
  0040445F: 2C 69              sub         al,69h
  00404461: 72 65              jb          004044C8
  00404463: 41                 inc         ecx
  00404464: 65 00 00           add         byte ptr gs:[eax],al
  00404467: 1F                 pop         ds
  00404468: 66 74 43           je          000044AE
  0040446B: 35 6F 72 65 36     xor         eax,3665726Fh
  00404470: 75 50              jne         004044C2
  00404472: 72 0F              jb          00404483
  00404474: 60                 pushad
  00404475: 65 73 13           jae         0040448B
  00404478: 01 00              add         dword ptr [eax],eax
  0040447A: 00 1F              add         byte ptr [edi],bl
  0040447C: 71 65              jno         004044E3
  0040447E: 6E                 outs        dx,byte ptr [esi]
  0040447F: 30 6F 6F           xor         byte ptr [edi+6Fh],ch
  00404482: 63 05 70 73 00 04  arpl        word ptr ds:[04007370h],ax
  00404488: 70 74              jo          004044FE
  0040448A: 72 03              jb          0040448F
  0040448C: 6E                 outs        dx,byte ptr [esi]
  0040448D: 70 69              jo          004044F8
  0040448F: 21 01              and         dword ptr [ecx],eax
  00404491: 00 00              add         byte ptr [eax],al
  00404493: A7                 cmps        dword ptr [esi],dword ptr es:[edi]
  00404494: 65 74 4D           je          004044E4
  00404497: C7
  00404498: 64 75 6C           jne         00404507
  0040449B: C5 48 61           lds         ecx,fword ptr [eax+61h]
  0040449E: 6E                 outs        dx,byte ptr [esi]
  0040449F: BC 6C 65 41 E0     mov         esp,0E041656Ch
  004044A4: 00 00              add         byte ptr [eax],al
  004044A6: 00 8E 69 72 74 B5  add         byte ptr [esi+B5747269h],cl
  004044AC: 61                 popad
  004044AD: 6C                 ins         byte ptr es:[edi],dx
  004044AE: 41                 inc         ecx
  004044AF: B4 6C              mov         ah,6Ch
  004044B1: 6F                 outs        dx,dword ptr [esi]
  004044B2: 63 E0              arpl        ax,sp
  004044B4: 00 00              add         byte ptr [eax],al
  004044B6: 00 AE 69 72 74 95  add         byte ptr [esi+95747269h],ch
  004044BC: 61                 popad
  004044BD: 6C                 ins         byte ptr es:[edi],dx
  004044BE: 41                 inc         ecx
  004044BF: 74 6C              je          0040452D
  004044C1: 6F                 outs        dx,dword ptr [esi]
  004044C2: 63 00              arpl        word ptr [eax],ax
  004044C4: 00 00              add         byte ptr [eax],al
  004044C6: 00 00              add         byte ptr [eax],al
  004044C8: A5                 movs        dword ptr es:[edi],dword ptr [esi]
  004044C9: 78 00              js          004044CB
  004044CB: 00 8F 6E 69 74 85  add         byte ptr [edi+8574696Eh],cl
  004044D1: 50                 push        eax
  004044D2: 72 6F              jb          00404543
  004044D4: 83 65 73 73        and         dword ptr [ebp+73h],73h
  004044D8: 2D 66 6D 6F 52     sub         eax,526F6D66h
  004044DD: 7A 00              jp          004044DF
  004044DF: 00 23              add         byte ptr [ebx],ah
  004044E1: 6F                 outs        dx,dword ptr [esi]
  004044E2: 65 61              popad
  004044E4: 4C                 dec         esp
  004044E5: 66 52              push        dx
  004044E7: 65 4D              dec         ebp
  004044E9: 6C                 ins         byte ptr es:[edi],dx
  004044EA: 74 65              je          00404551
  004044EC: 0C 69              or          al,69h
  004044EE: 72 65              jb          00404555
  004044F0: 41                 inc         ecx
  004044F1: 65 00 00           add         byte ptr gs:[eax],al
  004044F4: 0E                 push        cs
  004044F5: 6A 72              push        72h
  004044F7: 74 15              je          0040450E
  004044F9: 62 6C 46 12        bound       ebp,qword ptr [esi+eax*2+12h]
  004044FD: 66 65 00 23        add         byte ptr gs:[ebx],ah
  00404501: 6F                 outs        dx,dword ptr [esi]
  00404502: 65 61              popad
  00404504: 0C 66              or          al,66h
  00404506: 54                 push        esp
  00404507: 6F                 outs        dx,dword ptr [esi]
  00404508: 0F
  00404509: 6D                 ins         dword ptr es:[edi],dx
  0040450A: 68 65 04 71 33     push        33710465h
  0040450F: 32 13              xor         dl,byte ptr [ebx]
  00404511: 6B 61 70 F3        imul        esp,dword ptr [ecx+70h],0FFFFFFF3h
  00404515: 68 6F 74 E0 00     push        0E0746Fh
  0040451A: 00 00              add         byte ptr [eax],al
  0040451C: B0 6E              mov         al,6Eh
  0040451E: 6F                 outs        dx,dword ptr [esi]
  0040451F: 63 C5              arpl        bp,ax
  00404521: 6F                 outs        dx,dword ptr [esi]
  00404522: 73 33              jae         00404557
  00404524: 12 43 69           adc         al,byte ptr [ebx+69h]
  00404527: 72 B3              jb          004044DC
  00404529: 74 00              je          0040452B
  0040452B: 00 00              add         byte ptr [eax],al
  0040452D: 00 00              add         byte ptr [eax],al
  0040452F: 00 00              add         byte ptr [eax],al
  00404531: 90                 nop
  00404532: 6E                 outs        dx,byte ptr [esi]
  00404533: 6F                 outs        dx,dword ptr [esi]
  00404534: 63 C5              arpl        bp,ax
  00404536: 6F                 outs        dx,dword ptr [esi]
  00404537: 73 33              jae         0040456C
  00404539: F2 4A              xacquire dec edx
  0040453B: 65 78 94           js          004044D2
  0040453E: 00 00              add         byte ptr [eax],al
  00404540: 00 9D 78 69 74 B0  add         byte ptr [ebp+B0746978h],bl
  00404546: 6E                 outs        dx,byte ptr [esi]
  00404547: 6F                 outs        dx,dword ptr [esi]
  00404548: 63 7D 6F           arpl        word ptr [ebp+6Fh],di
  0040454B: 73 00              jae         0040454D
  0040454D: 93                 xchg        eax,ebx
  0040454E: 6C                 ins         byte ptr es:[edi],dx
  0040454F: 65 65 70 00        jo          00404553
  00404553: 00 00              add         byte ptr [eax],al
  00404555: 99                 cdq
  00404556: 6A 74              push        74h
  00404558: 65 72 6A           jb          004045C5
  0040455B: 65 74 2F           je          0040458D
  0040455E: 71 65              jno         004045C5
  00404560: 6E                 outs        dx,byte ptr [esi]
  00404561: 21 01              and         dword ptr [ecx],eax
  00404563: 00 00              add         byte ptr [eax],al
  00404565: 19 6B 74           sbb         dword ptr [ebx+74h],ebp
  00404568: 65 52              push        edx
  0040456A: 6B 65 74 2F        imul        esp,dword ptr [ebp+74h],2Fh
  0040456E: 71 65              jno         004045D5
  00404570: 6E                 outs        dx,byte ptr [esi]
  00404571: 0D 6F 6C 41 E0     or          eax,0E0416C6Fh
  00404576: 00 00              add         byte ptr [eax],al
  00404578: 00 19              add         byte ptr [ecx],bl
  0040457A: 6B 74 65 12 6B     imul        esi,dword ptr [ebp+12h],6Bh
  0040457F: 65 74 23           je          004045A5
  00404582: 6D                 ins         dword ptr es:[edi],dx
  00404583: 6F                 outs        dx,dword ptr [esi]
  00404584: 73 05              jae         0040458B
  00404586: 49                 dec         ecx
  00404587: 61                 popad
  00404588: 6E                 outs        dx,byte ptr [esi]
  00404589: FC                 cld
  0040458A: 6C                 ins         byte ptr es:[edi],dx
  0040458B: 65 00 29           add         byte ptr gs:[ecx],ch
  0040458E: 6B 74 65 F2 6A     imul        esi,dword ptr [ebp-0Eh],6Ah
  00404593: 65 74 00           je          00404596
  00404596: 00 00              add         byte ptr [eax],al
  00404598: 00 00              add         byte ptr [eax],al
  0040459A: 12 64 61 64        adc         ah,byte ptr [ecx+64h]
  0040459E: 1E                 push        ds
  0040459F: 68 6C 65 E0 00     push        0E0656Ch
  004045A4: 00 00              add         byte ptr [eax],al
  004045A6: CF                 iretd
  004045A7: 6D                 ins         dword ptr es:[edi],dx
  004045A8: 70 72              jo          0040461C
  004045AA: B9 6A 74 66 A1     mov         ecx,0A166746Ah
  004045AF: 00 00              add         byte ptr [eax],al
  004045B1: 00 A7 63 74 43 AD  add         byte ptr [edi+AD437463h],ah
  004045B7: 6E                 outs        dx,byte ptr [esi]
  004045B8: 73 6F              jae         00404629
  004045BA: B2 50              mov         dl,50h
  004045BC: 6F                 outs        dx,dword ptr [esi]
  004045BD: 73 E0              jae         0040459F
  004045BF: 00 00              add         byte ptr [eax],al
  004045C1: 00 AD 63 73 73 81  add         byte ptr [ebp+81737363h],ch
  004045C7: 61                 popad
  004045C8: 65 42              inc         edx
  004045CA: 7F 78              jg          00404644
  004045CC: 41                 inc         ecx
  004045CD: 00 93 6E 61 6E 84  add         byte ptr [ebx+846E616Eh],dl
  004045D3: 00 00              add         byte ptr [eax],al
  004045D5: 00 72 5F           add         byte ptr [edx+5Fh],dh
  004045D8: 6E                 outs        dx,byte ptr [esi]
  004045D9: 64 E0 00           loopne      004045DC
  004045DC: 00 00              add         byte ptr [eax],al
  004045DE: 73 74              jae         00404654
  004045E0: 72 63              jb          00404645
  004045E2: 48                 dec         eax
  004045E3: 6F                 outs        dx,dword ptr [esi]
  004045E4: 00 00              add         byte ptr [eax],al
  004045E6: 53                 push        ebx
  004045E7: 75 72              jne         0040465B
  004045E9: 63 50 78           arpl        word ptr [eax+78h],dx
  004045EC: 00 00              add         byte ptr [eax],al
  004045EE: 4C                 dec         esp
  004045EF: 68 6D 65 E0 00     push        0E0656Dh
  004045F4: 00 00              add         byte ptr [eax],al
  004045F6: 27                 daa
  004045F7: 71 65              jno         0040465E
  004045F9: 6E                 outs        dx,byte ptr [esi]
  004045FA: 10 6F 6F           adc         byte ptr [edi+6Fh],ch
  004045FD: 63 00              arpl        word ptr [eax],ax
  004045FF: 00 00              add         byte ptr [eax],al
  00404601: 00 00              add         byte ptr [eax],al
  00404603: 3D 6E 73 54 0F     cmp         eax,0F54736Eh
  00404608: 66 65 6E           outs        dx,byte ptr gs:[esi]
  0040460B: E0 00              loopne      0040460D
  0040460D: 00 00              add         byte ptr [eax],al
  0040460F: 1C 6A              sbb         al,6Ah
  00404611: 6F                 outs        dx,dword ptr [esi]
  00404612: 6B 0D 71 50 72 09  imul        ecx,dword ptr ds:[09725071h],73h
            73
  00404619: 69 6C FD 61 65 56  imul        ebp,dword ptr [ebp+edi*8+61h],6D015665h
            01 6D
  00404621: 75 65              jne         00404688
  00404623: 21 01              and         dword ptr [ecx],eax
  00404625: 00 00              add         byte ptr [eax],al
  00404627: A1 64 6A 75 D3     mov         eax,dword ptr ds:[D3756A64h]
  0040462C: 74 54              je          00404682
  0040462E: 6F                 outs        dx,dword ptr [esi]
  0040462F: BB 63 6E 50 D2     mov         ebx,0D2506E63h
  00404634: 67 76 69           jbe         004046A0
  00404637: CC                 int         3
  00404638: 63 67 65           arpl        word ptr [edi+65h],sp
  0040463B: B3 00              mov         bl,0
  0040463D: 00 00              add         byte ptr [eax],al
  0040463F: D8 FE              fdivr       st,st(6)
  00404641: 3F                 aas
  00404642: 00 C4              add         ah,al
  00404644: FE
  00404645: 3F                 aas
  00404646: 00 D0              add         al,dl
  00404648: FE
  00404649: 3F                 aas
  0040464A: 00 A0 FE 3F 00 9C  add         byte ptr [eax+9C003FFEh],ah
  00404650: FE
  00404651: 3F                 aas
  00404652: 00 A8 FE 3F 00 88  add         byte ptr [eax+88003FFEh],ch
  00404658: FE
  00404659: 3F                 aas
  0040465A: 00 74 FE 3F        add         byte ptr [esi+edi*8+3Fh],dh
  0040465E: 00 58 FE           add         byte ptr [eax-2],bl
  00404661: 3F                 aas
  00404662: 00 4C FE 3F        add         byte ptr [esi+edi*8+3Fh],cl
  00404666: 00 00              add         byte ptr [eax],al
  00404668: 00 00              add         byte ptr [eax],al
  0040466A: 00 00              add         byte ptr [eax],al
  0040466C: 80 03 40           add         byte ptr [ebx],40h
  0040466F: 00 84 03 40 00 88  add         byte ptr [ebx+eax+03880040h],al
            03
  00404676: 40                 inc         eax
  00404677: 00 A0 03 40 00 90  add         byte ptr [eax+90004003h],ah
  0040467D: 03 40 00           add         eax,dword ptr [eax]
  00404680: 94                 xchg        eax,esp
  00404681: 03 40 00           add         eax,dword ptr [eax]
  00404684: BC 03 40 00 A4     mov         esp,0A4004003h
  00404689: 03 40 00           add         eax,dword ptr [eax]
  0040468C: E8 03 40 00 F8     call        F8408694
  00404691: 03 40 00           add         eax,dword ptr [eax]
  00404694: B8 03 40 00 CC     mov         eax,0CC004003h
  00404699: 03 40 00           add         eax,dword ptr [eax]
  0040469C: 28 04 40           sub         byte ptr [eax+eax*2],al
  0040469F: 00 0C 04           add         byte ptr [esp+eax],cl
  004046A2: 40                 inc         eax
  004046A3: 00 00              add         byte ptr [eax],al
  004046A5: 04 40              add         al,40h
  004046A7: 00 EC              add         ah,ch
  004046A9: 03 40 00           add         eax,dword ptr [eax]
  004046AC: 64 04 40           add         al,40h
  004046AF: 00 6C 04 40        add         byte ptr [esp+eax+40h],ch
  004046B3: 00 78 04           add         byte ptr [eax+4],bh
  004046B6: 40                 inc         eax
  004046B7: 00 84 04 40 00 28  add         byte ptr [esp+eax+04280040h],al
            04
  004046BE: 40                 inc         eax
  004046BF: 00 3C 04           add         byte ptr [esp+eax],bh
  004046C2: 40                 inc         eax
  004046C3: 00 34 04           add         byte ptr [esp+eax],dh
  004046C6: 40                 inc         eax
  004046C7: 00 DC              add         ah,bl
  004046C9: FC                 cld
  004046CA: 3F                 aas
  004046CB: 00 F0              add         al,dh
  004046CD: FC                 cld
  004046CE: 3F                 aas
  004046CF: 00 00              add         byte ptr [eax],al
  004046D1: 00 00              add         byte ptr [eax],al
  004046D3: 00 00              add         byte ptr [eax],al
  004046D5: F8                 clc
  004046D6: FC                 cld
  004046D7: 3F                 aas
  004046D8: 00 B8 FC 3F 00 C4  add         byte ptr [eax+C4003FFCh],bh
  004046DE: FC                 cld
  004046DF: 3F                 aas
  004046E0: 00 90 FC 3F 00 7C  add         byte ptr [eax+7C003FFCh],dl
  004046E6: FC                 cld
  004046E7: 3F                 aas
  004046E8: 00 70 FC           add         byte ptr [eax-4],dh
  004046EB: 3F                 aas
  004046EC: 00 60 FD           add         byte ptr [eax-3],ah
  004046EF: 3F                 aas
  004046F0: 00 6C FC 3F        add         byte ptr [esp+edi*8+3Fh],ch
  004046F4: 00 6C FC 3F        add         byte ptr [esp+edi*8+3Fh],ch
  004046F8: 00 6C FC 3F        add         byte ptr [esp+edi*8+3Fh],ch
  004046FC: 00 7C FC 3F        add         byte ptr [esp+edi*8+3Fh],bh
  00404700: 00 8C FC 3F 00 6C  add         byte ptr [esp+edi*8+FC6C003Fh],cl
            FC
  00404707: 3F                 aas
  00404708: 00 98 FC 3F 00 C0  add         byte ptr [eax+C0003FFCh],bl
  0040470E: FC                 cld
  0040470F: 3F                 aas
  00404710: 00 27              add         byte ptr [edi],ah
  00404712: 5E                 pop         esi
  00404713: 74 50              je          00404765
  00404715: 12 68 63           adc         ch,byte ptr [eax+63h]
  00404718: 41                 inc         ecx
  00404719: 04 5D              add         al,5Dh
  0040471B: 72 65              jb          00404782
  0040471D: 13 74 00 00        adc         esi,dword ptr [eax+eax]
  00404721: 2C 68              sub         al,68h
  00404723: 61                 popad
  00404724: 64 24 6A           and         al,6Ah
  00404727: 62 72 01           bound       esi,qword ptr [edx+1]
  0040472A: 73 79              jae         004047A5
  0040472C: 45                 inc         ebp
  0040472D: E8 41 00 00 CB     call        CB404773
  00404732: 5D                 pop         ebp
  00404733: 72 6E              jb          004047A3
  00404735: BD 64 33 32 00     mov         ebp,323364h
  0040473A: 00 00              add         byte ptr [eax],al
  0040473C: 00 00              add         byte ptr [eax],al
  0040473E: FE
  0040473F: 5C                 pop         esp
  00404740: 6C                 ins         byte ptr es:[edi],dx
  00404741: 6C                 ins         byte ptr es:[edi],dx
  00404742: E0 00              loopne      00404744
  00404744: 00 00              add         byte ptr [eax],al
  00404746: B7 69              mov         bh,69h
  00404748: 6E                 outs        dx,byte ptr [esi]
  00404749: 69 C6 5D 74 2E C4  imul        eax,esi,0C42E745Dh
  0040474F: 64 6C              ins         byte ptr es:[edi],dx
  00404751: 00 AD 73 65 72 D3  add         byte ptr [ebp+D3726573h],ch
  00404757: 32 2E              xor         ch,byte ptr [esi]
  00404759: 64 84 64 00 00     test        byte ptr fs:[eax+eax],ah
  0040475E: 7D 73              jge         004047D3
  00404760: 76 63              jbe         004047C5
  00404762: 92                 xchg        eax,edx
  00404763: 6C                 ins         byte ptr es:[edi],dx
  00404764: 2E
  00404765: 64 8C 64 00 00     mov         word ptr fs:[eax+eax],fs
  0040476A: 81 5C 76 61 70 69  sbb         dword ptr [esi+esi*2+61h],32336970h
            33 32
  00404772: B6 5C              mov         dh,5Ch
  00404774: 6C                 ins         byte ptr es:[edi],dx
  00404775: 6C                 ins         byte ptr es:[edi],dx
  00404776: E0 00              loopne      00404778
  00404778: 00 00              add         byte ptr [eax],al
  0040477A: 43                 inc         ebx
  0040477B: 64
  0040477C: 64
  0040477D: 2E 45              inc         ebp
  0040477F: 79 65              jns         004047E6
  00404781: 20 F7              and         bh,dh
  00404783: 61                 popad
  00404784: 20 70 49           and         byte ptr [eax+49h],dh
  00404787: 67 67 20 05        and         byte ptr [di],al
  0040478B: 67 20 31           and         byte ptr [bx+di],dh
  0040478E: 00 24 77           add         byte ptr [edi+esi*2],ah
  00404791: 20 F2              and         dl,dh
  00404793: 30 30              xor         byte ptr [eax],dh
  00404795: 30 C0              xor         al,al
  00404797: 2F                 das
  00404798: 39 32              cmp         dword ptr [edx],esi
  0040479A: C6
  0040479B: 2F                 das
  0040479C: 36 38 BE 2F 32 33  cmp         byte ptr ss:[esi+0033322Fh],bh
            00
  004047A3: 00 00              add         byte ptr [eax],al
  004047A5: 00 00              add         byte ptr [eax],al
  004047A7: B6 32              mov         dh,32h
  004047A9: 35 34 C0 36 20     xor         eax,2036C034h
  004047AE: 6E                 outs        dx,byte ptr [esi]
  004047AF: ED                 in          eax,dx
  004047B0: 64 20 26           and         byte ptr fs:[esi],ah
  004047B3: C0 5C 65 6C C0     rcr         byte ptr [ebp+6Ch],0C0h
  004047B8: 1B 73 00           sbb         esi,dword ptr [ebx]
  004047BB: B3 5B              mov         bl,5Bh
  004047BD: 44                 inc         esp
  004047BE: 65 C2 6B 67        ret         676Bh
  004047C2: 50                 push        eax
  004047C3: D2 67 76           shl         byte ptr [edi+76h],cl
  004047C6: 69 B4 5B 67 65 E0  imul        esi,dword ptr [ebx+ebx*2+00E06567h],65C60000h
            00 00 00 C6 65
  004047D1: 74 65              je          00404838
  004047D3: B0 5F              mov         al,5Fh
  004047D5: 64
  004047D6: 2E BD 78 65 00 99  mov         ebp,99006578h
  004047DC: 4B                 dec         ebx
  004047DD: 6F                 outs        dx,dword ptr [esi]
  004047DE: 39 A3 69 31 49 7F  cmp         dword ptr [ebx+7F493169h],esp
  004047E4: 00 00              add         byte ptr [eax],al
  004047E6: 00 89 4B 6F 39 A3  add         byte ptr [ecx+A3396F4Bh],cl
  004047EC: 69 31 49 87 00 00  imul        esi,dword ptr [ecx],8749h
  004047F2: 00 95 71 65 72 B5  add         byte ptr [ebp+B5726571h],dl
  004047F8: 3F                 aas
  004047F9: 67 65 4E           dec         esi
  004047FC: 6D                 ins         dword ptr es:[edi],dx
  004047FD: 3A 20              cmp         ah,byte ptr [eax]
  004047FF: 27                 daa
  00404800: 71 65              jno         00404867
  00404802: 72 41              jb          00404845
  00404804: 26 31 30           xor         dword ptr es:[eax],esi
  00404807: F6 2E              imul        byte ptr [esi]
  00404809: 30 20              xor         byte ptr [eax],ah
  0040480B: 00 00              add         byte ptr [eax],al
  0040480D: 00 00              add         byte ptr [eax],al
  0040480F: 00 10              add         byte ptr [eax],dl
  00404811: 73 65              jae         00404878
  00404813: 73 2C              jae         00404841
  00404815: 66 2F              das
  00404817: 32 FE              xor         bh,dh
  00404819: 32 2E              xor         ch,byte ptr [esi]
  0040481B: 33 F0              xor         esi,eax
  0040481D: 00 00              add         byte ptr [eax],al
  0040481F: 00 08              add         byte ptr [eax],cl
  00404821: 6D                 ins         dword ptr es:[edi],dx
  00404822: 74 70              je          00404894
  00404824: DA 25 2F 6E 16 6E  fisub       dword ptr ds:[6E166E2Fh]
  0040482A: 2E 66 F9           stc
  0040482D: 6C                 ins         byte ptr es:[edi],dx
  0040482E: 73 70              jae         004048A0
  00404830: 09 62 65           or          dword ptr [edx+65h],esp
  00404833: 2E 09 67 2F        or          dword ptr cs:[edi+2Fh],esp
  00404837: 73 F8              jae         00404831
  00404839: 65 77 74           ja          004048B0
  0040483C: F8                 clc
  0040483D: 72 65              jb          004048A4
  0040483F: 61                 popad
  00404840: C4 26              les         esp,fword ptr [esi]
  00404842: 70 68              jo          004048AC
  00404844: D0 35 74 3D 13 33  sal         byte ptr ds:[33133D74h],1
  0040484A: 32 34 0E           xor         dh,byte ptr [esi+ecx]
  0040484D: 2D 00 00 C8 6C     sub         eax,6CC80000h
  00404852: 74 70              je          004048C4
  00404854: FA                 cli
  00404855: 25 2F 6E B6 6D     and         eax,6DB66E2Fh
  0040485A: 2E 66 B9 6C 73     mov         cx,736Ch
  0040485F: 70 89              jo          004047EA
  00404861: 61                 popad
  00404862: 65
  00404863: 2E 89 66 2F        mov         dword ptr cs:[esi+2Fh],esp
  00404867: 73 78              jae         004048E1
  00404869: 65 77 74           ja          004048E0
  0040486C: 78 72              js          004048E0
  0040486E: 65 61              popad
  00404870: 84 26              test        byte ptr [esi],ah
  00404872: 70 68              jo          004048DC
  00404874: 00 00              add         byte ptr [eax],al
  00404876: 00 00              add         byte ptr [eax],al
  00404878: 00 70 35           add         byte ptr [eax+35h],dh
  0040487B: 74 3D              je          004048BA
  0040487D: B3 32              mov         bl,32h
  0040487F: 32 34 AE           xor         dh,byte ptr [esi+ebp*4]
  00404882: 2C 00              sub         al,0
  00404884: 00 48 6D           add         byte ptr [eax+6Dh],cl
  00404887: 74 70              je          004048F9
  00404889: 1A 24 2F           sbb         ah,byte ptr [edi+ebp]
  0040488C: 6E                 outs        dx,byte ptr [esi]
  0040488D: 56                 push        esi
  0040488E: 6C                 ins         byte ptr es:[edi],dx
  0040488F: 2E 66 39 6D 73     cmp         word ptr cs:[ebp+73h],bp
  00404894: 70 49              jo          004048DF
  00404896: 60                 pushad
  00404897: 65
  00404898: 2E 49              dec         ecx
  0040489A: 63 2F              arpl        word ptr [edi],bp
  0040489C: 73 38              jae         004048D6
  0040489E: 64 77 74           ja          00404915
  004048A1: 38 6F 65           cmp         byte ptr [edi+65h],ch
  004048A4: 61                 popad
  004048A5: 04 23              add         al,23h
  004048A7: 70 68              jo          00404911
  004048A9: 10 34 74           adc         byte ptr [esp+esi*2],dh
  004048AC: 3D D3 2E 32 34     cmp         eax,34322ED3h
  004048B1: CE                 into
  004048B2: 2C 00              sub         al,0
  004048B4: 00 FE              add         dh,bh
  004048B6: 21 23              and         dword ptr [ebx],esp
  004048B8: 4C                 dec         esp
  004048B9: 1C 01              sbb         al,1
  004048BB: 00 00              add         byte ptr [eax],al
  004048BD: B0 31              mov         al,31h
  004048BF: 32 33              xor         dh,byte ptr [ebx]
  004048C1: AC                 lods        byte ptr [esi]
  004048C2: 2D 36 37 18 3A     sub         eax,3A183736h
  004048C7: 61                 popad
  004048C8: 62
  004048C9: C3                 ret
  004048CA: 5C                 pop         esp
  004048CB: 65 66 E0 00        loopne      000048CF
  004048CF: 00 00              add         byte ptr [eax],al
  004048D1: E0 00              loopne      004048D3
  004048D3: 00 00              add         byte ptr [eax],al
  004048D5: 95                 xchg        eax,ebp
  004048D6: 87 EC              xchg        ebp,esp
  004048D8: 83 44 31 C7 45     add         dword ptr [ecx+esi-39h],45h
  004048DD: 00 00              add         byte ptr [eax],al
  004048DF: 00 00              add         byte ptr [eax],al
  004048E1: 00 0C 04           add         byte ptr [esp+eax],cl
  004048E4: 00 00              add         byte ptr [eax],al
  004048E6: E0 A1              loopne      00404889
  004048E8: 90                 nop
  004048E9: 1B A0 00 89 45 0C  sbb         esp,dword ptr [eax+0C458900h]
  004048EF: 88 0D 80 EB 40 00  mov         byte ptr ds:[0040EB80h],cl
  004048F5: 89 95 F8 8B 15 64  mov         dword ptr [ebp+64158BF8h],edx
  004048FB: 18 40 00           sbb         byte ptr [eax],al
  004048FE: 69 4E FC 8D A5 D4  imul        ecx,dword ptr [esi-4],50D4A58Dh
            50
  00404905: 8D 95 E0 51 FF F5  lea         edx,[ebp+F5FF51E0h]
  0040490B: D4 1A              aamb        1Ah
  0040490D: 40                 inc         eax
  0040490E: E0 BB              loopne      004048CB
  00404910: 45                 inc         ebp
  00404911: F0 E0 00           lock loopne 00404914
  00404914: 00 00              add         byte ptr [eax],al
  00404916: BB 09 8B 55 B0     mov         ebx,0B0558B09h
  0040491B: 7F C2              jg          004048DF
  0040491D: 01 69 4D           add         dword ptr [ecx+4Dh],ebp
  00404920: F0 8B 25 F1 3B 45  lock mov    esp,dword ptr ds:[D4453BF1h]
            D4
  00404927: 75 57              jne         00404980
  00404929: 8B 2D F1 0F B6 2C  mov         ebp,dword ptr ds:[2CB60FF1h]
  0040492F: 06                 push        es
  00404930: E0 03              loopne      00404935
  00404932: 35 F1 52 FF ED     xor         eax,0EDFF52F1h
  00404937: 60                 pushad
  00404938: 1B 40 E0           sbb         eax,dword ptr [eax-20h]
  0040493B: 66 00 FF           add         bh,bh
  0040493E: 0D ED 83 C4 E4     or          eax,0E4C483EDh
  00404943: 89 45 D8           mov         dword ptr [ebp-28h],eax
  00404946: 00 00              add         byte ptr [eax],al
  00404948: 00 00              add         byte ptr [eax],al
  0040494A: 00 55 3D           add         byte ptr [ebp+3Dh],dl
  0040494D: D0 50 5F           rcl         byte ptr [eax+5Fh],1
  00404950: 0D 78 1B A0 00     or          eax,0A01B78h
  00404955: 8B 4D 50           mov         ecx,dword ptr [ebp+50h]
  00404958: 03 AF 4D D4 FF 4C  add         ebp,dword ptr [edi+4CFFD44Dh]
  0040495E: D8 E3              fsub        st,st(3)
  00404960: 45                 inc         ebp
  00404961: D0 51 37           rcl         byte ptr [ecx+37h],1
  00404964: 4D                 dec         ebp
  00404965: F8                 clc
  00404966: 83 24 FC FE        and         dword ptr [esp+edi*8],0FFFFFFFEh
  0040496A: 55                 push        ebp
  0040496B: 24 2F              and         al,2Fh
  0040496D: D2 B9 F0 00 00 00  sar         byte ptr [ecx+000000F0h],cl
  00404973: 0F F1 8B 45 D8 FF  psllw       mm1,mmword ptr [ebx+44FFD845h]
            44
  0040497A: F0 5A              lock pop    edx
  0040497C: 86 58 07           xchg        bl,byte ptr [eax+7]
  0040497F: A0 00 88 08 0B     mov         al,byte ptr ds:[0B088800h]
  00404984: 98                 cwde
  00404985: 8B E5              mov         esp,ebp
  00404987: 8D BF CC CC 14 C4  lea         edi,[edi+C414CCCCh]
  0040498D: CC                 int         3
  0040498E: CC                 int         3
  0040498F: 35 86 EC 51 9F     xor         eax,9F51EC86h
  00404994: 3C FC              cmp         al,0FCh
  00404996: 00 E0              add         al,ah
  00404998: 00 00              add         byte ptr [eax],al
  0040499A: EB D9              jmp         00404975
  0040499C: 85 45 FC           test        dword ptr [ebp-4],eax
  0040499F: 63 C1              arpl        cx,ax
  004049A1: 01 89 1D F5 8B 4D  add         dword ptr [ecx+4D8BF51Dh],ecx
  004049A7: AC                 lods        byte ptr [esi]
  004049A8: 36 4D              dec         ebp
  004049AA: 10 33              adc         byte ptr [ebx],dh
  004049AC: 04 8B              add         al,8Bh
  004049AE: 55                 push        ebp
  004049AF: 00 00              add         byte ptr [eax],al
  004049B1: 00 00              add         byte ptr [eax],al
  004049B3: 00 E8              add         al,ch
  004049B5: FD                 std
  004049B6: 54                 push        esp
  004049B7: FC                 cld
  004049B8: 6A 3C              push        3Ch
  004049BA: 0C 88              or          al,88h
  004049BC: E2 E5              loop        004049A3
  004049BE: E2 8B              loop        0040494B
  004049C0: 7D 54              jge         00404A16
  004049C2: C3                 ret
  004049C3: CC                 int         3
  004049C4: 15 86 EC 83 84     adc         eax,8483EC86h
  004049C9: 09 C7              or          edi,eax
  004049CB: 45                 inc         ebp
  004049CC: 6C                 ins         byte ptr es:[edi],dx
  004049CD: 01 00              add         dword ptr [eax],eax
  004049CF: 00 E0              add         al,ah
  004049D1: E5 09              in          eax,9
  004049D3: 8B A5 F4 83 C0 E1  mov         esp,dword ptr [ebp+E1C083F4h]
  004049D9: 87 45 FC           xchg        eax,dword ptr [ebp-4]
  004049DC: 5B                 pop         ebx
  004049DD: 44                 inc         esp
  004049DE: FC                 cld
  004049DF: 3B 95 10 73 23 6B  cmp         edx,dword ptr [ebp+6B237310h]
  004049E5: 4C                 dec         esp
  004049E6: 08 03              or          byte ptr [ebx],al
  004049E8: 8D
  004049E9: F4                 hlt
  004049EA: 0F B6 E2           movzx       esp,dl
  004049ED: 87 45 F8           xchg        eax,dword ptr [ebp-8]
  004049F0: 5B                 pop         ebx
  004049F1: 44                 inc         esp
  004049F2: 0C 03              or          al,3
  004049F4: AD                 lods        dword ptr [esi]
  004049F5: F4                 hlt
  004049F6: 0F B6 F1           movzx       esi,cl
  004049F9: 37                 aaa
  004049FA: 55                 push        ebp
  004049FB: F8                 clc
  004049FC: 94                 xchg        eax,esp
  004049FD: F9                 stc
  004049FE: B7 01              mov         bh,1
  00404A00: E0 00              loopne      00404A02
  00404A02: 00 EB              add         bl,ch
  00404A04: E4 E5              in          al,0E5h
  00404A06: CC                 int         3
  00404A07: 33 20              xor         esp,dword ptr [eax]
  00404A09: 86 E5              xchg        ah,ch
  00404A0B: 5D                 pop         ebp
  00404A0C: 23 C5              and         eax,ebp
  00404A0E: CC                 int         3
  00404A0F: CC                 int         3
  00404A10: 14 C5              adc         al,0C5h
  00404A12: CC                 int         3
  00404A13: CC                 int         3
  00404A14: 35 86 EC 51 00     xor         eax,51EC86h
  00404A19: 00 00              add         byte ptr [eax],al
  00404A1B: 00 00              add         byte ptr [eax],al
  00404A1D: 2E 4A              dec         edx
  00404A1F: 33 C9              xor         ecx,ecx
  00404A21: 44                 inc         esp
  00404A22: 86 71 30           xchg        dh,byte ptr [ecx+30h]
  00404A25: 5B                 pop         ebx
  00404A26: 6A 0C              push        0Ch
  00404A28: 8B 36              mov         esi,dword ptr [esi]
  00404A2A: 15 8B 46 E8 87     adc         eax,87E8468Bh
  00404A2F: 45                 inc         ebp
  00404A30: FC                 cld
  00404A31: 5B                 pop         ebx
  00404A32: 72 20              jb          00404A54
  00404A34: 8B EE              mov         ebp,esi
  00404A36: 80 3F 6B           cmp         byte ptr [edi],6Bh
  00404A39: 14 FA              adc         al,0FAh
  00404A3B: 7F 3F              jg          00404A7C
  00404A3D: 2B 6D 02           sub         ebp,dword ptr [ebp+2]
  00404A40: EB 79              jmp         00404ABB
  00404A42: 51                 push        ecx
  00404A43: 5E                 pop         esi
  00404A44: 8B 7D 53           mov         edi,dword ptr [ebp+53h]
  00404A47: C3                 ret
  00404A48: CC                 int         3
  00404A49: 15 86 EC 83 84     adc         eax,8483EC86h
  00404A4E: 1C 8B              sbb         al,8Bh
  00404A50: 45                 inc         ebp
  00404A51: D8 87 45 E0 5B 43  fadd        dword ptr [edi+435BE045h]
  00404A57: E0 8B              loopne      004049E4
  00404A59: B5 E0              mov         ch,0E0h
  00404A5B: 03 51 14           add         edx,dword ptr [ecx+14h]
  00404A5E: 88 55 E4           mov         byte ptr [ebp-1Ch],dl
  00404A61: 5B                 pop         ebx
  00404A62: 3B E4              cmp         esp,esp
  00404A64: 8B 98 78 03 4D E8  mov         ebx,dword ptr [eax+E84D0378h]
  00404A6A: 87 4D F8           xchg        ecx,dword ptr [ebp-8]
  00404A6D: 6B 4B F8 8B        imul        ecx,dword ptr [ebx-8],0FFFFFF8Bh
  00404A71: A2 1C 03 45 D8     mov         byte ptr ds:[D845031Ch],al
  00404A76: 87 45 E8           xchg        eax,dword ptr [ebp-18h]
  00404A79: 6B 43 F8 8B        imul        eax,dword ptr [ebx-8],0FFFFFF8Bh
  00404A7D: B1 20              mov         cl,20h
  00404A7F: 03 55 00           add         edx,dword ptr [ebp]
  00404A82: 00 00              add         byte ptr [eax],al
  00404A84: 00 00              add         byte ptr [eax],al
  00404A86: D8 87 55 F0 5B 3B  fadd        dword ptr [edi+3B5BF055h]
  00404A8C: F8                 clc
  00404A8D: 8B A8 14 03 4D E8  mov         ebp,dword ptr [eax+E84D0314h]
  00404A93: 87 4D FC           xchg        ecx,dword ptr [ebp-4]
  00404A96: 27                 daa
  00404A97: 3B F4              cmp         esi,esp
  00404A99: 00 E0              add         al,ah
  00404A9B: 00 00              add         byte ptr [eax],al
  00404A9D: EB E9              jmp         00404A88
  00404A9F: 7B 55              jnp         00404AF6
  00404AA1: F4                 hlt
  00404AA2: 63 C3              arpl        bx,ax
  00404AA4: 01 89 35 F5 8B 45  add         dword ptr [ecx+458BF535h],ecx
  00404AAA: C8 7C 4D F4        enter       4D7Ch,0F4h
  00404AAE: FB                 sti
  00404AAF: 38 18              cmp         byte ptr [eax],bl
  00404AB1: 73 28              jae         00404ADB
  00404AB3: 7C 55              jl          00404B0A
  00404AB5: F0 5B              lock pop    ebx
  00404AB7: 03 03              add         eax,dword ptr [ebx]
  00404AB9: 45                 inc         ebp
  00404ABA: D8 79 45           fdivr       dword ptr [ecx+45h]
  00404ABD: DC 0A              fmul        qword ptr [edx]
  00404ABF: FF 67 C0           jmp         dword ptr [edi-40h]
  00404AC2: DD 40 00           fld         qword ptr [eax]
  00404AC5: 8B 1D CD 51 E8 E0  mov         ebx,dword ptr ds:[E0E851CDh]
  00404ACB: EF                 out         dx,eax
  00404ACC: FF
  00404ACD: FF 63 C5           jmp         dword ptr [ebx-3Bh]
  00404AD0: 0C 85              or          al,85h
  00404AD2: A0 76 1B 8B 15     mov         al,byte ptr ds:[158B1B76h]
  00404AD7: F5                 cmc
  00404AD8: 8B 45 78           mov         eax,dword ptr [ebp+78h]
  00404ADB: 00 B7 0C B0 79 4D  add         byte ptr [edi+4D79B00Ch],dh
  00404AE1: EC                 in          al,dx
  00404AE2: 6B 56 EC 8B        imul        edx,dword ptr [esi-14h],0FFFFFF8Bh
  00404AE6: A5                 movs        dword ptr es:[edi],dword ptr [esi]
  00404AE7: EC                 in          al,dx
  00404AE8: 8B 04 00           mov         eax,dword ptr [eax+eax]
  00404AEB: 00 00              add         byte ptr [eax],al
  00404AED: 00 00              add         byte ptr [eax],al
  00404AEF: 70 04              jo          00404AF5
  00404AF1: 45                 inc         ebp
  00404AF2: 08 4B FE           or          byte ptr [ebx-2],cl
  00404AF5: 8A 4D 30           mov         cl,byte ptr [ebp+30h]
  00404AF8: 84 C1              test        cl,al
  00404AFA: 04 59              add         al,59h
  00404AFC: 3E F0 EB 7C        ht lock jmp 00404B7C
  00404B00: 34 C0              xor         al,0C0h
  00404B02: 8B 05 4E C3 CC 24  mov         eax,dword ptr ds:[24CCC34Eh]
  00404B08: BD CC CC 1C BD     mov         ebp,0BD1CCCCCh
  00404B0D: CC                 int         3
  00404B0E: CC                 int         3
  00404B0F: 14 BD              adc         al,0BDh
  00404B11: CC                 int         3
  00404B12: CC                 int         3
  00404B13: 95                 xchg        eax,ebp
  00404B14: 7B EC              jnp         00404B02
  00404B16: 83 04 09 E8        add         dword ptr [ecx+ecx],0FFFFFFE8h
  00404B1A: 05 EF EF FF 89     add         eax,89FFEFEFh
  00404B1F: 9D                 popfd
  00404B20: D8 8B 45 C8 50 E8  fmul        dword ptr [ebx+E850C845h]
  00404B26: 29 D7              sub         edi,edx
  00404B28: EF                 out         dx,eax
  00404B29: FF 83 A4 04 A3 20  inc         dword ptr [ebx+20A304A4h]
  00404B2F: EB 40              jmp         00404B71
  00404B31: 00 68 90           add         byte ptr [eax-70h],ch
  00404B34: 05 40 00 6B 3D     add         eax,3D6B0040h
  00404B39: E8 51 AF 15 20     call        2055FA8F
  00404B3E: 1B 20              sbb         esp,dword ptr [eax]
  00404B40: 01 A3 24 FB 40 00  add         dword ptr [ebx+0040FB24h],esp
  00404B46: 6A E0              push        0FFFFFFE0h
  00404B48: 5A                 pop         edx
  00404B49: 00 68 80           add         byte ptr [eax-80h],ch
  00404B4C: 05 40 00 87 15     add         eax,15870040h
  00404B51: 24 1B              and         al,1Bh
  00404B53: 00 00              add         byte ptr [eax],al
  00404B55: 00 00              add         byte ptr [eax],al
  00404B57: 00 20              add         byte ptr [eax],ah
  00404B59: 01 89 45 88 C7 45  add         dword ptr [ecx+45C78845h],ecx
  00404B5F: FC                 cld
  00404B60: E0 00              loopne      00404B62
  00404B62: 00 00              add         byte ptr [eax],al
  00404B64: 7B F9              jnp         00404B5F
  00404B66: 8A 55 5C           mov         dl,byte ptr [ebp+5Ch]
  00404B69: 83 C2 01           add         edx,1
  00404B6C: 69 55 FC 83 CD EC  imul        edx,dword ptr [ebp-4],23ECCD83h
            23
  00404B73: 73 01              jae         00404B76
  00404B75: 7C 45              jl          00404BBC
  00404B77: FC                 cld
  00404B78: 6B FC 84           imul        edi,esp,0FFFFFF84h
  00404B7B: F8                 clc
  00404B7C: DC 40 00           fadd        qword ptr [eax]
  00404B7F: 51                 push        ecx
  00404B80: 5B                 pop         ebx
  00404B81: 55                 push        ebp
  00404B82: E8 52 27 15 20     call        205572D9
  00404B87: 1B A0 00 8B 4D 14  sbb         esp,dword ptr [eax+144D8B00h]
  00404B8D: 79 04              jns         00404B93
  00404B8F: 8D 28              lea         ebp,[eax]
  00404B91: 0A 40 00           or          al,byte ptr [eax]
  00404B94: FB                 sti
  00404B95: CF                 iretd
  00404B96: 6A 00              push        0
  00404B98: 8A 00              mov         al,byte ptr [eax]
  00404B9A: 68 F0 DD 40 00     push        40DDF0h
  00404B9F: FF D5              call        ebp
  00404BA1: 24 1B              and         al,1Bh
  00404BA3: 40                 inc         eax
  00404BA4: E0 79              loopne      00404C1F
  00404BA6: 45                 inc         ebp
  00404BA7: EC                 in          al,dx
  00404BA8: A7                 cmps        dword ptr [esi],dword ptr es:[edi]
  00404BA9: 44                 inc         esp
  00404BAA: FC                 cld
  00404BAB: 23 E0              and         esp,eax
  00404BAD: 00 00              add         byte ptr [eax],al
  00404BAF: EB D9              jmp         00404B8A
  00404BB1: 79 55              jns         00404C08
  00404BB3: FC                 cld
  00404BB4: 63 C3              arpl        bx,ax
  00404BB6: 01 89 15 ED 83 7D  add         dword ptr [ecx+7D83ED15h],ecx
  00404BBC: 00 00              add         byte ptr [eax],al
  00404BBE: 00 00              add         byte ptr [eax],al
  00404BC0: 00 B4 26 73 21 5B  add         byte ptr [esi+445B2173h],dh
            44
  00404BC7: FC                 cld
  00404BC8: 8B D4              mov         edx,esp
  00404BCA: 83 F8 04           cmp         eax,4
  00404BCD: 20 01              and         byte ptr [ecx],al
  00404BCF: 51                 push        ecx
  00404BD0: 8B 2D DD 52 FF F5  mov         ebp,dword ptr ds:[F5FF52DDh]
  00404BD6: 20 1B              and         byte ptr [ebx],bl
  00404BD8: 40                 inc         eax
  00404BD9: E0 79              loopne      00404C54
  00404BDB: 4D                 dec         ebp
  00404BDC: FC                 cld
  00404BDD: 69 05 8D D8 DA 40  imul        eax,dword ptr ds:[40DAD88Dh],5B90EB00h
            00 EB 90 5B
  00404BE7: 00 6A E0           add         byte ptr [edx-20h],ch
  00404BEA: 58                 pop         eax
  00404BEB: FC                 cld
  00404BEC: 05 A0 00 FF 15     add         eax,15FF00A0h
  00404BF1: FC                 cld
  00404BF2: 09 40 00           or          dword ptr [eax],eax
  00404BF5: 59                 pop         ecx
  00404BF6: 44                 inc         esp
  00404BF7: F0 8B ED           lock mov    ebp,ebp
  00404BFA: 94                 xchg        eax,esp
  00404BFB: 05 40 E0 52 8B     add         eax,8B52E040h
  00404C00: 45                 inc         ebp
  00404C01: 30 51 FF           xor         byte ptr [ecx-1],dl
  00404C04: 15 00 0A 40 00     adc         eax,400A00h
  00404C09: 83 75 1B 40        xor         dword ptr [ebp+1Bh],40h
  00404C0D: E0 79              loopne      00404C88
  00404C0F: 0D 9C DD 40 00     or          eax,40DD9Ch
  00404C14: 51                 push        ecx
  00404C15: 5B                 pop         ebx
  00404C16: 54                 push        esp
  00404C17: F0 52              lock push   edx
  00404C19: 07                 pop         es
  00404C1A: 14 20              adc         al,20h
  00404C1C: 1B A0 00 A3 7C DB  sbb         esp,dword ptr [eax+DB7CA300h]
  00404C22: 40                 inc         eax
  00404C23: 00 A1 00 00 00 00  add         byte ptr [ecx+00000000h],ah
  00404C29: 00 48 04           add         byte ptr [eax+4],cl
  00404C2C: 40                 inc         eax
  00404C2D: 00 90 79 4D F0 31  add         byte ptr [eax+31F04D79h],dl
  00404C33: EE                 out         dx,al
  00404C34: 15 20 FB 40 00     adc         eax,40FB20h
  00404C39: A3 48 0A 40 00     mov         dword ptr ds:[00400A48h],eax
  00404C3E: 3A 01              cmp         al,byte ptr [ecx]
  00404C40: 6A 00              push        0
  00404C42: 48                 dec         eax
  00404C43: F9                 stc
  00404C44: 05 40 E0 ED 15     add         eax,15EDE040h
  00404C49: 24 CB              and         al,0CBh
  00404C4B: 40                 inc         eax
  00404C4C: 00 89 1D F5 C7 45  add         byte ptr [ecx+45C7F51Dh],cl
  00404C52: 9C                 pushfd
  00404C53: 1A 00              sbb         al,byte ptr [eax]
  00404C55: 00 E0              add         al,ah
  00404C57: D9
  00404C58: 09 8B 35 ED 83 C2  or          dword ptr [ebx+C283ED35h],ecx
  00404C5E: E1 77              loope       00404CD7
  00404C60: 55                 push        ebp
  00404C61: FC                 cld
  00404C62: 63 6B FC           arpl        word ptr [ebx-4],bp
  00404C65: 2F                 das
  00404C66: F3 1F              rep pop     ds
  00404C68: 8B 45 6C           mov         eax,dword ptr [ebp+6Ch]
  00404C6B: 79 0C              jns         00404C79
  00404C6D: 85 68 04           test        dword ptr [eax+4],ebp
  00404C70: 40                 inc         eax
  00404C71: 00 B1 79 55 F4 B2  add         byte ptr [ecx+B2F45579h],dh
  00404C77: ED                 in          eax,dx
  00404C78: 15 20 EB 40 00     adc         eax,40EB20h
  00404C7D: 8B 95 EC 89 04 6D  mov         edx,dword ptr [ebp+6D0489ECh]
  00404C83: C8 1A 40 E0        enter       401Ah,0E0h
  00404C87: D9 D0              fnop
  00404C89: 6A E0              push        0FFFFFFE0h
  00404C8B: 5A                 pop         edx
  00404C8C: 00 68 00           add         byte ptr [eax],ch
  00404C8F: 00 00              add         byte ptr [eax],al
  00404C91: 00 00              add         byte ptr [eax],al
  00404C93: CC                 int         3
  00404C94: 06                 push        es
  00404C95: 40                 inc         eax
  00404C96: 00 1F              add         byte ptr [edi],bl
  00404C98: 13 24 1B           adc         esp,dword ptr [ebx+ebx]
  00404C9B: A0 00 89 45 08     mov         al,byte ptr ds:[08458900h]
  00404CA0: C5 45 FC           lds         eax,fword ptr [ebp-4]
  00404CA3: B7 00              mov         bh,0
  00404CA5: 00 00              add         byte ptr [eax],al
  00404CA7: 0B F7              or          esi,edi
  00404CA9: 8A 55 F4           mov         dl,byte ptr [ebp-0Ch]
  00404CAC: 80 C2 01           add         dl,1
  00404CAF: 59                 pop         ecx
  00404CB0: 53                 push        ebx
  00404CB1: FC                 cld
  00404CB2: 83 65 EC 32        and         dword ptr [ebp-14h],32h
  00404CB6: 73 01              jae         00404CB9
  00404CB8: 78 45              js          00404CFF
  00404CBA: FC                 cld
  00404CBB: 6B FD 84           imul        edi,ebp,0FFFFFF84h
  00404CBE: F8                 clc
  00404CBF: E4 40              in          al,40h
  00404CC1: 00 51 5B           add         byte ptr [ecx+5Bh],dl
  00404CC4: 56                 push        esi
  00404CC5: F8                 clc
  00404CC6: 52                 push        edx
  00404CC7: BF 16 20 1B 20     mov         edi,201B2016h
  00404CCC: 01 8B 4D AC 7A 04  add         dword ptr [ebx+047AAC4Dh],ecx
  00404CD2: 8D 88 07 40 00 8B  lea         ecx,[eax+8B004007h]
  00404CD8: D1 8B E5 35 C0 CC  ror         dword ptr [ebx+CCC035E5h],1
  00404CDE: CC                 int         3
  00404CDF: 9C                 pushfd
  00404CE0: BD CC CC 94 BD     mov         ebp,0BD94CCCCh
  00404CE5: CC                 int         3
  00404CE6: CC                 int         3
  00404CE7: 15 78 EC 81 84     adc         eax,8481EC78h
  00404CEC: 61                 popad
  00404CED: 01 00              add         dword ptr [eax],eax
  00404CEF: E0 56              loopne      00404D47
  00404CF1: 44                 inc         esp
  00404CF2: 6A E0              push        0FFFFFFE0h
  00404CF4: 7D 45              jge         00404D3B
  00404CF6: A8 00              test        al,0
  00404CF8: 00 00              add         byte ptr [eax],al
  00404CFA: 00 00              add         byte ptr [eax],al
  00404CFC: B0 D8              mov         al,0D8h
  00404CFE: BA FC 57 EC 83     mov         edx,83EC57FCh
  00404D03: C4
  00404D04: DC 56 10           fcom        qword ptr [esi+10h]
  00404D07: 6A E0              push        0FFFFFFE0h
  00404D09: 7D 4D              jge         00404D58
  00404D0B: F0 91              lock xchg   eax,ecx
  00404D0D: D8 AA FC 37 EC 83  fsubr       dword ptr [edx+83EC37FCh]
  00404D13: C4
  00404D14: DC C3              fadd        st(3),st
  00404D16: 45                 inc         ebp
  00404D17: A8 9C              test        al,9Ch
  00404D19: 00 00              add         byte ptr [eax],al
  00404D1B: 00 27              add         byte ptr [edi],ah
  00404D1D: 46                 inc         esi
  00404D1E: D4 01              aamb        1
  00404D20: E0 00              loopne      00404D22
  00404D22: 00 66 5B           add         byte ptr [esi+5Bh],ah
  00404D25: 56                 push        esi
  00404D26: 0C 66              or          al,66h
  00404D28: 59                 pop         ecx
  00404D29: 56                 push        esi
  00404D2A: D8 8D A5 F0 50 8D  fmul        dword ptr [ebp+8D50F0A5h]
  00404D30: A5                 movs        dword ptr es:[edi],dword ptr [esi]
  00404D31: 98                 cwde
  00404D32: 51                 push        ecx
  00404D33: 6A E0              push        0FFFFFFE0h
  00404D35: 56                 push        esi
  00404D36: 00 6A E0           add         byte ptr [edx-20h],ch
  00404D39: 56                 push        esi
  00404D3A: 00 6A E0           add         byte ptr [edx-20h],ch
  00404D3D: 56                 push        esi
  00404D3E: 00 8B 2D F9 51 6A  add         byte ptr [ebx+6A51F92Dh],cl
  00404D44: E0 EB              loopne      00404D31
  00404D46: 15 E0 EA 40 00     adc         eax,40EAE0h
  00404D4B: 8B 25 F1 50 FF CD  mov         esp,dword ptr ds:[CDFF50F1h]
  00404D51: 04 1B              add         al,1Bh
  00404D53: 40                 inc         eax
  00404D54: E0 77              loopne      00404DCD
  00404D56: 4D                 dec         ebp
  00404D57: F4                 hlt
  00404D58: 11 EC              adc         esp,ebp
  00404D5A: 15 04 FB 40 00     adc         eax,40FB04h
  00404D5F: 8B 00              mov         eax,dword ptr [eax]
  00404D61: 00 00              add         byte ptr [eax],al
  00404D63: 00 00              add         byte ptr [eax],al
  00404D65: 7D 4D              jge         00404DB4
  00404D67: C3                 ret
  00404D68: CC                 int         3
  00404D69: 9C                 pushfd
  00404D6A: BC CC CC 94 BC     mov         esp,0BC94CCCCh
  00404D6F: CC                 int         3
  00404D70: CC                 int         3
  00404D71: 15 78 EC 81 84     adc         eax,8481EC78h
  00404D76: 20 04 00           and         byte ptr [eax+eax],al
  00404D79: E0 A1              loopne      00404D1C
  00404D7B: 74 1B              je          00404D98
  00404D7D: 20 01              and         byte ptr [ecx],al
  00404D7F: 89 45 54           mov         dword ptr [ebp+54h],eax
  00404D82: 58                 pop         eax
  00404D83: D0 19              rcr         byte ptr [ecx],1
  00404D85: A0 00 68 24 E6     mov         al,byte ptr ds:[E6246800h]
  00404D8A: 40                 inc         eax
  00404D8B: 00 8D 55 E0 FB FF  add         byte ptr [ebp+FFFBE055h],cl
  00404D91: 3F                 aas
  00404D92: 51                 push        ecx
  00404D93: FF 55 2C           call        dword ptr [ebp+2Ch]
  00404D96: 7F C4              jg          00404D5C
  00404D98: 0C BA              or          al,0BAh
  00404D9A: 00 8D 95 40 E7 FF  add         byte ptr [ebp+FFE74095h],cl
  00404DA0: FF B2 D8 4A FF 17  push        dword ptr [edx+17FF4AD8h]
  00404DA6: EB 83              jmp         00404D2B
  00404DA8: C4
  00404DA9: D8 A8 01 00 E0 00  fsubr       dword ptr [eax+00E00001h]
  00404DAF: 8B E5              mov         esp,ebp
  00404DB1: 9D                 popfd
  00404DB2: BF CC CC 24 BC     mov         edi,0BC24CCCCh
  00404DB7: CC                 int         3
  00404DB8: CC                 int         3
  00404DB9: 1C BC              sbb         al,0BCh
  00404DBB: CC                 int         3
  00404DBC: CC                 int         3
  00404DBD: 14 BC              adc         al,0BCh
  00404DBF: CC                 int         3
  00404DC0: CC                 int         3
  00404DC1: 35 76 EC 68 B0     xor         eax,0B068EC76h
  00404DC6: 08 40 00           or          byte ptr [eax],al
  00404DC9: 00 00              add         byte ptr [eax],al
  00404DCB: 00 00              add         byte ptr [eax],al
  00404DCD: 00 CF              add         bh,cl
  00404DCF: 14 E4              adc         al,0E4h
  00404DD1: 1A 20              sbb         ah,byte ptr [eax]
  00404DD3: 01 85 C0 35 FC 67  add         dword ptr [ebp+67FC35C0h],eax
  00404DD9: F4                 hlt
  00404DDA: E1 00              loope       00404DDC
  00404DDC: 00 FF              add         bh,bh
  00404DDE: D5 60              aadb        60h
  00404DE0: 1B 40 E0           sbb         eax,dword ptr [eax-20h]
  00404DE3: D5 E4              aadb        0E4h
  00404DE5: 5D                 pop         ebp
  00404DE6: A3 BD CC CC A4     mov         dword ptr ds:[A4CCCCBDh],eax
  00404DEB: BD CC CC 9C BD     mov         ebp,0BD9CCCCCh
  00404DF0: CC                 int         3
  00404DF1: CC                 int         3
  00404DF2: 94                 xchg        eax,esp
  00404DF3: BD CC CC 15 76     mov         ebp,7615CCCCh
  00404DF8: EC                 in          al,dx
  00404DF9: 83 84 11 8B 45 D8  add         dword ptr [ecx+edx+7DD8458Bh],78h
            7D 78
  00404E01: 04 E0              add         al,0E0h
  00404E03: F9                 stc
  00404E04: 83 88 E0 00 00 8B  or          dword ptr [eax+8B0000E0h],0FFFFFFA5h
            A5
  00404E0B: F8                 clc
  00404E0C: 8A 51 E4           mov         dl,byte ptr [ecx-1Ch]
  00404E0F: 7D EA              jge         00404DFB
  00404E11: 08 31              or          byte ptr [ecx],dh
  00404E13: D7                 xlat        byte ptr [ebx]
  00404E14: 89 55 34           mov         dword ptr [ebp+34h],edx
  00404E17: 76 45              jbe         00404E5E
  00404E19: 08 63 C1           or          byte ptr [ebx-3Fh],ah
  00404E1C: 08 89 A5 F0 C7 45  or          byte ptr [ecx+45C7F0A5h],cl
  00404E22: 24 01              and         al,1
  00404E24: 00 00              add         byte ptr [eax],al
  00404E26: E0 D5              loopne      00404DFD
  00404E28: 09 8B A5 EC 83 C1  or          dword ptr [ebx+C183ECA5h],ecx
  00404E2E: E1 77              loope       00404EA7
  00404E30: 4D                 dec         ebp
  00404E31: FC                 cld
  00404E32: 00 00              add         byte ptr [eax],al
  00404E34: 00 00              add         byte ptr [eax],al
  00404E36: 00 5B 54           add         byte ptr [ebx+54h],bl
  00404E39: FC                 cld
  00404E3A: 3B 95 F4 73 46 6B  cmp         edx,dword ptr [ebp+6B4673F4h]
  00404E40: 44                 inc         esp
  00404E41: FC                 cld
  00404E42: 8B 9D F0 0F B7 CC  mov         ebx,dword ptr [ebp+CCB70FF0h]
  00404E48: 3F                 aas
  00404E49: C1 FA EC           sar         edx,0ECh
  00404E4C: 7D FA              jge         00404E48
  00404E4E: 03 4D 2F           add         ecx,dword ptr [ebp+2Fh]
  00404E51: 8B 45 CC           mov         eax,dword ptr [ebp-34h]
  00404E54: 75 4D              jne         00404EA3
  00404E56: F0 D7              lock xlat   byte ptr [ebx]
  00404E58: B1 14              mov         cl,14h
  00404E5A: 41                 inc         ecx
  00404E5B: 61                 popad
  00404E5C: DE FF              fdivp       st(7),st
  00404E5E: 0F E0 00           pavgb       mm0,mmword ptr [eax]
  00404E61: 89 55 A8           mov         dword ptr [ebp-58h],edx
  00404E64: 75 45              jne         00404EAB
  00404E66: 08 5B 3B           or          byte ptr [ebx+3Bh],bl
  00404E69: 0C 03              or          al,3
  00404E6B: E8 75 55 F8 6B     call        6C38A3E5
  00404E70: 04 11              add         al,11h
  00404E72: 03 25 11 8B 4D D8  add         esp,dword ptr ds:[D84D8B11h]
  00404E78: 75 55              jne         00404ECF
  00404E7A: 0C E3              or          al,0E3h
  00404E7C: 0F 8B 4D 78 77 04  jnp         04B7C6CF
  00404E82: 0A 7B 97           or          bh,byte ptr [ebx-69h]
  00404E85: 8B 55 D8           mov         edx,dword ptr [ebp-28h]
  00404E88: 75 45              jne         00404ECF
  00404E8A: 08 E3              or          bl,ah
  00404E8C: 3E 04 89           add         al,89h
  00404E8F: 9D                 popfd
  00404E90: F8                 clc
  00404E91: E8 6B 4F E9 FF     call        00299E01
  00404E96: 8B 3D 4B C3 CC 00  mov         edi,dword ptr ds:[00CCC34Bh]
  00404E9C: 00 00              add         byte ptr [eax],al
  00404E9E: 00 00              add         byte ptr [eax],al
  00404EA0: 95                 xchg        eax,ebp
  00404EA1: 75 EC              jne         00404E8F
  00404EA3: 83 44 0C 8D 45     add         dword ptr [esp+ecx-73h],45h
  00404EA8: 2C 50              sub         al,50h
  00404EAA: 6A 28              push        28h
  00404EAC: 27                 daa
  00404EAD: 13 2C 1B           adc         ebp,dword ptr [ebx+ebx]
  00404EB0: A0 00 50 FF ED     mov         al,byte ptr ds:[EDFF5000h]
  00404EB5: 94                 xchg        eax,esp
  00404EB6: 1B 40 E0           sbb         eax,dword ptr [eax-20h]
  00404EB9: 83 C0 75           add         eax,75h
  00404EBC: DC 2D C0 EB 80 7B  fsubr       qword ptr ds:[7B80EBC0h]
  00404EC2: 4D                 dec         ebp
  00404EC3: E4 91              in          al,91h
  00404EC5: 58                 pop         eax
  00404EC6: 60                 pushad
  00404EC7: 06                 push        es
  00404EC8: A0 00 6A 00 E7     mov         al,byte ptr ds:[E7006A00h]
  00404ECD: 12 98 1B 20 01 85  adc         bl,byte ptr [eax+8501201Bh]
  00404ED3: C0 4D FD 32        ror         byte ptr [ebp-3],32h
  00404ED7: C0 BB 40 C7 45 B4  sar         byte ptr [ebx+B445C740h],2
            02
  00404EDE: 00 00              add         byte ptr [eax],al
  00404EE0: E0 7B              loopne      00404F5D
  00404EE2: 55                 push        ebp
  00404EE3: E4 69              in          al,69h
  00404EE5: 4E                 dec         esi
  00404EE6: F0 8B 25 D9 89 45  lock mov    esp,dword ptr ds:[AC4589D9h]
            AC
  00404EED: C0 45 F8 E2        rol         byte ptr [ebp-8],0E2h
  00404EF1: 00 00              add         byte ptr [eax],al
  00404EF3: 00 0A              add         byte ptr [edx],cl
  00404EF5: 01 6A 00           add         dword ptr [edx],ebp
  00404EF8: FA                 cli
  00404EF9: 10 8D 4D 74 52 6A  adc         byte ptr [ebp+6A52744Dh],cl
  00404EFF: 00 6B 4E           add         byte ptr [ebx+4Eh],ch
  00404F02: FC                 cld
  00404F03: 52                 push        edx
  00404F04: 00 00              add         byte ptr [eax],al
  00404F06: 00 00              add         byte ptr [eax],al
  00404F08: 00 77 0E           add         byte ptr [edi+0Eh],dh
  00404F0B: 9C                 pushfd
  00404F0C: 1B 20              sbb         esp,dword ptr [eax]
  00404F0E: 01 85 C0 ED FC 32  add         dword ptr [ebp+32FCEDC0h],eax
  00404F14: C0 4B F8 8A        ror         byte ptr [ebx-8],8Ah
  00404F18: 45                 inc         ebp
  00404F19: 54                 push        esp
  00404F1A: 51                 push        ecx
  00404F1B: FF 15 E4 0B 40 00  call        dword ptr ds:[00400BE4h]
  00404F21: 88 02              mov         byte ptr [edx],al
  00404F23: 00 00              add         byte ptr [eax],al
  00404F25: E0 7B              loopne      00404FA2
  00404F27: E5 5D              in          eax,5Dh
  00404F29: 23 B5 CC CC 1C B5  and         esi,dword ptr [ebp+B51CCCCCh]
  00404F2F: CC                 int         3
  00404F30: CC                 int         3
  00404F31: 14 B5              adc         al,0B5h
  00404F33: CC                 int         3
  00404F34: CC                 int         3
  00404F35: B5 7B              mov         ch,7Bh
  00404F37: EC                 in          al,dx
  00404F38: 81 04 31 01 00 E0  add         dword ptr [ecx+esi],0BFE00001h
            BF
  00404F3F: 85 D0              test        eax,edx
  00404F41: 06                 push        es
  00404F42: E8 FF 28 E1 00     call        01217846
  00404F47: 00 6A E0           add         byte ptr [edx-20h],ch
  00404F4A: 5A                 pop         edx
  00404F4B: 02 FF              add         bh,bh
  00404F4D: D5 50              aadb        50h
  00404F4F: 1B 40 E0           sbb         eax,dword ptr [eax-20h]
  00404F52: 79 45              jns         00404F99
  00404F54: FC                 cld
  00404F55: 6D                 ins         dword ptr es:[edi],dx
  00404F56: 7D D0              jge         00404F28
  00404F58: FE
  00404F59: D7                 xlat        byte ptr [ebx]
  00404F5A: E7 50              out         50h,eax
  00404F5C: 8B 1D E5 51 FF ED  mov         ebx,dword ptr ds:[EDFF51E5h]
  00404F62: 4C                 dec         esp
  00404F63: 1B 40 E0           sbb         eax,dword ptr [eax-20h]
  00404F66: 83 F8 01           cmp         eax,1
  00404F69: 2D 36 8D 95 00     sub         eax,958D36h
  00404F6E: 00 00              add         byte ptr [eax],al
  00404F70: 00 00              add         byte ptr [eax],al
  00404F72: 90                 nop
  00404F73: E6 FF              out         0FFh,al
  00404F75: FF 12              call        dword ptr [edx]
  00404F77: 7C 45              jl          00404FBE
  00404F79: FC                 cld
  00404F7A: 30 E8              xor         al,ch
  00404F7C: 15 58 FB 40 00     adc         eax,40FB58h
  00404F81: 83 88 01 75 37 5B  or          dword ptr [eax+5B377501h],35h
            35
  00404F88: 08 51 6D           or          byte ptr [ecx+6Dh],dl
  00404F8B: 8D
  00404F8C: F4                 hlt
  00404F8D: FE
  00404F8E: 77 E7              ja          00404F77
  00404F90: 52                 push        edx
  00404F91: FF D5              call        ebp
  00404F93: 2C 1B              sub         al,1Bh
  00404F95: 40                 inc         eax
  00404F96: E0 7D              loopne      00405015
  00404F98: C0 75 00 7C        sal         byte ptr [ebp],7Ch
  00404F9C: 45                 inc         ebp
  00404F9D: FC                 cld
  00404F9E: B0 E7              mov         al,0E7h
  00404FA0: 15 04 EB 40 00     adc         eax,40EB04h
  00404FA5: 8B 55 C8           mov         edx,dword ptr [ebp-38h]
  00404FA8: FE
  00404FA9: FF
  00404FAA: 3F                 aas
  00404FAB: 51                 push        ecx
  00404FAC: 6A 00              push        0
  00404FAE: C8 2A 04 00        enter       42Ah,0
  00404FB2: E0 E7              loopne      00404F9B
  00404FB4: 15 30 CB 40 00     adc         eax,40CB30h
  00404FB9: EB EE              jmp         00404FA9
  00404FBB: DB
  00404FBC: B3 8B              mov         bl,8Bh
  00404FBE: AD                 lods        dword ptr [esi]
  00404FBF: E4 52              in          al,52h
  00404FC1: FF F5              push        ebp
  00404FC3: FC                 cld
  00404FC4: 1A 40 E0           sbb         al,byte ptr [eax-20h]
  00404FC7: 33 C0              xor         eax,eax
  00404FC9: 8B 05 45 C3 CC 24  mov         eax,dword ptr ds:[24CCC345h]
  00404FCF: B4 CC              mov         ah,0CCh
  00404FD1: CC                 int         3
  00404FD2: 1C B4              sbb         al,0B4h
  00404FD4: CC                 int         3
  00404FD5: CC                 int         3
  00404FD6: 00 00              add         byte ptr [eax],al
  00404FD8: 00 00              add         byte ptr [eax],al
  00404FDA: 00 14 B4           add         byte ptr [esp+esi*4],dl
  00404FDD: CC                 int         3
  00404FDE: CC                 int         3
  00404FDF: 35 7A EC 51 9F     xor         eax,9F51EC7Ah
  00404FE4: 3C FC              cmp         al,0FCh
  00404FE6: 00 E0              add         al,ah
  00404FE8: 00 00              add         byte ptr [eax],al
  00404FEA: EB D9              jmp         00404FC5
  00404FEC: 79 45              jns         00405033
  00404FEE: FC                 cld
  00404FEF: 63 C1              arpl        cx,ax
  00404FF1: 01 89 1D E5 8B 4D  add         dword ptr [ecx+4D8BE51Dh],ecx
  00404FF7: AC                 lods        byte ptr [esi]
  00404FF8: 2A 4D 10           sub         cl,byte ptr [ebp+10h]
  00404FFB: 33 13              xor         edx,dword ptr [ebx]
  00404FFD: 8B 55 E8           mov         edx,dword ptr [ebp-18h]
  00405000: 01 55 FC           add         dword ptr [ebp-4],edx
  00405003: 6B 3C 0C 03        imul        edi,dword ptr [esp+ecx],3
  00405007: 25 E5 8A 08 58     and         eax,58088AE5h
  0040500C: FB                 sti
  0040500D: EA DD 6B DC 5D C3  jmp         A4C3:5DDC6BDD
            A4
  00405014: B5 CC              mov         ch,0CCh
  00405016: CC                 int         3
  00405017: 9C                 pushfd
  00405018: B5 CC              mov         ch,0CCh
  0040501A: CC                 int         3
  0040501B: 94                 xchg        eax,esp
  0040501C: B5 CC              mov         ch,0CCh
  0040501E: CC                 int         3
  0040501F: B5 79              mov         ch,79h
  00405021: EC                 in          al,dx
  00405022: 83 44 21 C7 45     add         dword ptr [ecx-39h],45h
  00405027: 54                 push        esp
  00405028: 01 00              add         dword ptr [eax],eax
  0040502A: 00 E0              add         al,ah
  0040502C: BD 45 E4 E0 00     mov         ebp,0E0E445h
  00405031: 00 00              add         byte ptr [eax],al
  00405033: 1F                 pop         ds
  00405034: 3C F0              cmp         al,0F0h
  00405036: 00 E0              add         al,ah
  00405038: 00 00              add         byte ptr [eax],al
  0040503A: 8B 9D F8 4F E8 00  mov         ebx,dword ptr [ebp+00E84FF8h]
  00405040: 00 00              add         byte ptr [eax],al
  00405042: 00 00              add         byte ptr [eax],al
  00405044: 1C E7              sbb         al,0E7h
  00405046: FF
  00405047: FF 63 BD           jmp         dword ptr [ebx-43h]
  0040504A: 04 89              add         al,89h
  0040504C: A5                 movs        dword ptr es:[edi],dword ptr [esi]
  0040504D: EC                 in          al,dx
  0040504E: 83 7D 0C 01        cmp         dword ptr [ebp+0Ch],1
  00405052: 75 07              jne         0040505B
  00405054: B3 C0              mov         bl,0C0h
  00405056: E9 19 E1 00 00     jmp         00413174
  0040505B: C7
  0040505C: A5                 movs        dword ptr es:[edi],dword ptr [esi]
  0040505D: E8 00 1E E0 00     call        01206E62
  00405062: 6A 40              push        40h
  00405064: 48                 dec         eax
  00405065: 01 30              add         dword ptr [eax],esi
  00405067: 00 E0              add         al,ah
  00405069: 79 4D              jns         004050B8
  0040506B: F8                 clc
  0040506C: 31 5B 00           xor         dword ptr [ebx],ebx
  0040506F: FF
  00405070: ED                 in          eax,dx
  00405071: 24 1B              and         al,1Bh
  00405073: 40                 inc         eax
  00405074: E0 77              loopne      004050ED
  00405076: 45                 inc         ebp
  00405077: F0 63 63 F0        lock arpl   word ptr [ebx-10h],sp
  0040507B: 00 35 FC E8 CD E0  add         byte ptr ds:[E0CDE8FCh],dh
  00405081: 00 00              add         byte ptr [eax],al
  00405083: 68 E0 0A 00 00     push        0AE0h
  00405088: 08 01              or          byte ptr [ecx],al
  0040508A: 02 40 E0           add         al,byte ptr [eax-20h]
  0040508D: 79 55              jns         004050E4
  0040508F: F0 61              lock popad
  00405091: C2 00 02           ret         200h
  00405094: E0 00              loopne      00405096
  00405096: 52                 push        edx
  00405097: E8 28 E6 FF FF     call        004036C4
  0040509C: 63 BC 0C 6A 20 59  arpl        word ptr [esp+ecx+0059206Ah],di
            00
  004050A3: 30 E0              xor         al,ah
  004050A5: 00 8B 45 00 00 00  add         byte ptr [ebx+00000045h],cl
  004050AB: 00 00              add         byte ptr [eax],al
  004050AD: 58                 pop         eax
  004050AE: 50                 push        eax
  004050AF: 6A 00              push        0
  004050B1: 5B                 pop         ebx
  004050B2: 33 F4              xor         esi,esp
  004050B4: 51                 push        ecx
  004050B5: 47                 inc         edi
  004050B6: 0B 40 1B           or          eax,dword ptr [eax+1Bh]
  004050B9: A0 00 89 45 40     mov         al,byte ptr ds:[40458900h]
  004050BE: 81 7D E0 E0 6B 05  cmp         dword ptr [ebp-20h],0E9056BE0h
            E9
  004050C5: 54                 push        esp
  004050C6: 00 00              add         byte ptr [eax],al
  004050C8: 00 6B 0B           add         byte ptr [ebx+0Bh],ch
  004050CB: 00 02              add         byte ptr [edx],al
  004050CD: A0 00 89 55 FC     mov         al,byte ptr ds:[FC558900h]
  004050D2: A7                 cmps        dword ptr [esi],dword ptr es:[edi]
  004050D3: 00 02              add         byte ptr [edx],al
  004050D5: A0 00 2D 00 E2     mov         al,byte ptr ds:[E2002D00h]
  004050DA: 00 00              add         byte ptr [eax],al
  004050DC: 8B A5 E0 2B C8 91  mov         esp,dword ptr [ebp+91C82BE0h]
  004050E2: 79 55              jns         00405139
  004050E4: F0 92              lock xchg   eax,edx
  004050E6: 79 45              jns         0040512D
  004050E8: EC                 in          al,dx
  004050E9: 30 D9              xor         cl,bl
  004050EB: 2A FD              sub         bh,ch
  004050ED: D7                 xlat        byte ptr [ebx]
  004050EE: E4 83              in          al,83h
  004050F0: C4
  004050F1: DC 75 4D           fdiv        qword ptr [ebp+4Dh]
  004050F4: FC                 cld
  004050F5: 31 78 55           xor         dword ptr [eax+55h],edi
  004050F8: F8                 clc
  004050F9: 12 78 45           adc         bh,byte ptr [eax+45h]
  004050FC: F0 10 78 4D        lock adc    byte ptr [eax+4Dh],bh
  00405100: E0 11              loopne      00405113
  00405102: 78 55              js          00405159
  00405104: F4                 hlt
  00405105: 12 E4              adc         ah,ah
  00405107: 15 44 FB 40 00     adc         eax,40FB44h
  0040510C: 8D 1D D9 50 6A 00  lea         ebx,ds:[006A50D9h]
  00405112: 00 00              add         byte ptr [eax],al
  00405114: 00 00              add         byte ptr [eax],al
  00405116: E0 56              loopne      0040516E
  00405118: 00 B9 E0 FE 3F 00  add         byte ptr [ecx+003FFEE0h],bh
  0040511E: 61                 popad
  0040511F: DA 00              fiadd       dword ptr [eax]
  00405121: 02 E0              add         ah,al
  00405123: 00 BA 50 D0 40 00  add         byte ptr [edx+0040D050h],bh
  00405129: 2B 91 00 55 E0 B2  sub         edx,dword ptr [ecx+B2E05500h]
  0040512F: 56                 push        esi
  00405130: 00 6A E0           add         byte ptr [edx-20h],ch
  00405133: 77 45              ja          0040517A
  00405135: F4                 hlt
  00405136: B0 E3              mov         al,0E3h
  00405138: 15 48 EB 40 00     adc         eax,40EB48h
  0040513D: 89 A5 DC 83 7D 3C  mov         dword ptr [ebp+3C7D83DCh],esp
  00405143: 01 75 02           add         dword ptr [ebp+2],esi
  00405146: 3B 0F              cmp         ecx,dword ptr [edi]
  00405148: 8B 4D 3C           mov         ecx,dword ptr [ebp+3Ch]
  0040514B: 52                 push        edx
  0040514C: FF 15 E4 07 40 00  call        dword ptr ds:[004007E4h]
  00405152: D3 CE              ror         esi,cl
  00405154: 0F 85 F2 E3 FF FF  jne         0040354C
  0040515A: 63 66 F0           arpl        word ptr [esi-10h],sp
  0040515D: 00 74 11 68        add         byte ptr [ecx+edx+68h],dh
  00405161: 00 60 01           add         byte ptr [eax+1],ah
  00405164: 00 6A E0           add         byte ptr [edx-20h],ch
  00405167: 77 45              ja          004051AE
  00405169: F0 90              lock xchg   eax,eax
  0040516B: E3 15              jecxz       00405182
  0040516D: 4C                 dec         esp
  0040516E: FB                 sti
  0040516F: 40                 inc         eax
  00405170: 00 8B 25 ED 51 FF  add         byte ptr [ebx+FF51ED25h],cl
  00405176: F5                 cmc
  00405177: FC                 cld
  00405178: 1A 40 00           sbb         al,byte ptr [eax]
  0040517B: 00 00              add         byte ptr [eax],al
  0040517D: 00 00              add         byte ptr [eax],al
  0040517F: E0 77              loopne      004051F8
  00405181: 45                 inc         ebp
  00405182: E4 6B              in          al,6Bh
  00405184: DD 5D C3           fstp        qword ptr [ebp-3Dh]
  00405187: A4                 movs        byte ptr es:[edi],byte ptr [esi]
  00405188: B4 CC              mov         ah,0CCh
  0040518A: CC                 int         3
  0040518B: 9C                 pushfd
  0040518C: B4 CC              mov         ah,0CCh
  0040518E: CC                 int         3
  0040518F: 94                 xchg        eax,esp
  00405190: B4 CC              mov         ah,0CCh
  00405192: CC                 int         3
  00405193: 35 78 EC 83 D5     xor         eax,0D583EC78h
  00405198: DC 1B              fcomp       qword ptr [ebx]
  0040519A: 40                 inc         eax
  0040519B: E0 00              loopne      0040519D
  0040519D: 74 0C              je          004051AB
  0040519F: 5B                 pop         ebx
  004051A0: 3D 08 50 7F 0D     cmp         eax,0D7F5008h
  004051A5: 5C                 pop         esp
  004051A6: 1B 20              sbb         esp,dword ptr [eax]
  004051A8: 01 EB              add         ebx,ebp
  004051AA: 0A 5B 35           or          bl,byte ptr [ebx+35h]
  004051AD: 08 51 67           or          byte ptr [ecx+67h],dl
  004051B0: 0D 28 1B A0 00     or          eax,0A01B28h
  004051B5: 5D                 pop         ebp
  004051B6: C3                 ret
  004051B7: 24 B4              and         al,0B4h
  004051B9: CC                 int         3
  004051BA: CC                 int         3
  004051BB: 1C B4              sbb         al,0B4h
  004051BD: CC                 int         3
  004051BE: CC                 int         3
  004051BF: 14 B4              adc         al,0B4h
  004051C1: CC                 int         3
  004051C2: CC                 int         3
  004051C3: 95                 xchg        eax,ebp
  004051C4: 77 EC              ja          004051B2
  004051C6: E8 58 E9 FF FF     call        00403B23
  004051CB: 26 FD              std
  004051CD: DF 1B              fistp       word ptr [ebx]
  004051CF: A0 00 00 6A C0     mov         al,byte ptr ds:[C06A0000h]
  004051D4: 58                 pop         eax
  004051D5: C0 1B A0           rcr         byte ptr [ebx],0A0h
  004051D8: 00 E8              add         al,ch
  004051DA: 65 17              pop         ss
  004051DC: E3 FF              jecxz       004051DD
  004051DE: 83 1C F8 67        sbb         dword ptr [eax+edi*8],67h
  004051E2: 04 00              add         al,0
  004051E4: 00 00              add         byte ptr [eax],al
  004051E6: 00 00              add         byte ptr [eax],al
  004051E8: E1 00              loope       004051EA
  004051EA: 00 68 10           add         byte ptr [eax+10h],ch
  004051ED: 09 40 00           or          dword ptr [eax],eax
  004051F0: 7A 00              jp          004051F2
  004051F2: FF 15 08 06 40 00  call        dword ptr ds:[00400608h]
  004051F8: C8 B6 FC FF        enter       0FCB6h,0FFh
  004051FC: D7                 xlat        byte ptr [ebx]
  004051FD: 59                 pop         ecx
  004051FE: 74 06              je          00405206
  00405200: 20 01              and         byte ptr [ecx],al
  00405202: E8 31 C6 E2 FF     call        00231838
  00405207: 83 A4 FD 84 C0 2D  and         dword ptr [ebp+edi*8+F72DC084h],69h
            F7 69
  0040520F: 01 B8 0E 00 00 E0  add         dword ptr [eax+E000000Eh],edi
  00405215: 7D C4              jge         004051DB
  00405217: 04 0A              add         al,0Ah
  00405219: 01 FF              add         edi,edi
  0040521B: 15 34 06 40 00     adc         eax,400634h
  00405220: D3 C0              rol         eax,cl
  00405222: 5D                 pop         ebp
  00405223: C3                 ret
  00405224: 94                 xchg        eax,esp
  00405225: B5 CC              mov         ch,0CCh
  00405227: CC                 int         3
  00405228: 15 76 EC 81 84     adc         eax,8481EC76h
  0040522D: 25 04 00 E0 B9     and         eax,0B9E00004h
  00405232: 85 64 66 E2        test        dword ptr [esi-1Eh],esp
  00405236: FF 00              inc         dword ptr [eax]
  00405238: E0 00              loopne      0040523A
  0040523A: 00 8B 9D F8 A2 E4  add         byte ptr [ebx+E4A2F89Dh],cl
  00405240: EB 40              jmp         00405282
  00405242: 00 E8              add         al,ch
  00405244: 00 E8              add         al,ch
  00405246: FF
  00405247: FF 6B F4           jmp         fword ptr [ebx-0Ch]
  0040524A: 8B 1B              mov         ebx,dword ptr [ebx]
  0040524C: 00 00              add         byte ptr [eax],al
  0040524E: 00 00              add         byte ptr [eax],al
  00405250: 00 A0 00 89 8D 88  add         byte ptr [eax+888D8900h],ah
  00405256: E2 FF              loop        00405257
  00405258: FF 5B 0C           call        fword ptr [ebx+0Ch]
  0040525B: 88 1B              mov         byte ptr [ebx],bl
  0040525D: A0 00 89 95 A8     mov         al,byte ptr ds:[A8958900h]
  00405262: E2 FF              loop        00405263
  00405264: FF 41 6D           inc         dword ptr [ecx+6Dh]
  00405267: 1B 40 E0           sbb         eax,dword ptr [eax-20h]
  0040526A: 77 85              ja          004051F1
  0040526C: 54                 push        esp
  0040526D: FE
  0040526E: E1 FF              loope       0040526F
  00405270: 68 60 FB 3F 00     push        3FFB60h
  00405275: 7A FF              jp          00405276
  00405277: 67 01 E0           add         eax,esp
  0040527A: 01 00              add         dword ptr [eax],eax
  0040527C: FF F5              push        ebp
  0040527E: 10 1B              adc         byte ptr [ebx],bl
  00405280: 40                 inc         eax
  00405281: E0 77              loopne      004052FA
  00405283: 85 60 CE           test        dword ptr [eax-32h],esp
  00405286: E1 FF              loope       00405287
  00405288: 83 85 60 FE FF BF  add         dword ptr [ebp+BFFFFE60h],0
            00
  0040528F: 75 17              jne         004052A8
  00405291: 48                 dec         eax
  00405292: 75 06              jne         0040529A
  00405294: 40                 inc         eax
  00405295: E0 56              loopne      004052ED
  00405297: 01 6A E0           add         dword ptr [edx-20h],ebp
  0040529A: E1 15              loope       004052B1
  0040529C: 0C FB              or          al,0FBh
  0040529E: 40                 inc         eax
  0040529F: 00 89 5D 60 FE FF  add         byte ptr [ecx+FFFE605Dh],cl
  004052A5: 8F
  004052A6: D5 0D              aadb        0Dh
  004052A8: 68 C0 FC FF FF     push        0FFFFFCC0h
  004052AD: 88 D5              mov         ch,dl
  004052AF: FE
  004052B0: FF 77 7D           push        dword ptr [edi+7Dh]
  004052B3: C4 04 00           les         eax,fword ptr [eax+eax]
  004052B6: 00 00              add         byte ptr [eax],al
  004052B8: 00 00              add         byte ptr [eax],al
  004052BA: FA                 cli
  004052BB: 00 6A 00           add         byte ptr [edx],ch
  004052BE: FA                 cli
  004052BF: 00 6A 00           add         byte ptr [edx],ch
  004052C2: C8 88 06 40        enter       688h,40h
  004052C6: E0 E1              loopne      004052A9
  004052C8: 15 64 EB 40 00     adc         eax,40EB64h
  004052CD: 89 5D 24           mov         dword ptr [ebp+24h],ebx
  004052D0: FE
  004052D1: FF
  004052D2: 3F                 aas
  004052D3: 7D BD              jge         00405292
  004052D5: 3C 36              cmp         al,36h
  004052D7: E1 FF              loope       004052D8
  004052D9: 00 B5 F3 67 3F E2  add         byte ptr [ebp+E23F67F3h],dh
  004052DF: 00 00              add         byte ptr [eax],al
  004052E1: E8 5C E2 FF FF     call        00403542
  004052E6: 63 BC 04 FF F5 0C  arpl        word ptr [esp+eax+1B0CF5FFh],di
            1B
  004052ED: 40                 inc         eax
  004052EE: E0 9D              loopne      0040528D
  004052F0: A4                 movs        byte ptr es:[edi],byte ptr [esi]
  004052F1: 1B A0 00 FF 15 D8  sbb         esp,dword ptr [eax+D815FF00h]
  004052F7: 05 40 00 43 98     add         eax,98430040h
  004052FC: 1B 40 E0           sbb         eax,dword ptr [eax-20h]
  004052FF: 58                 pop         eax
  00405300: C0 C6 0D           rol         dh,0Dh
  00405303: 01 6A 00           add         dword ptr [edx],ebp
  00405306: 6B 0E A8           imul        ecx,dword ptr [esi],0FFFFFFA8h
  00405309: 1B 20              sbb         esp,dword ptr [eax]
  0040530B: 01 51 FF           add         dword ptr [ecx-1],edx
  0040530E: ED                 in          eax,dx
  0040530F: FC                 cld
  00405310: 1A 40 E0           sbb         al,byte ptr [eax-20h]
  00405313: 89 85 4C B6 E0 FF  mov         dword ptr [ebp+FFE0B64Ch],eax
  00405319: 83 6D 4D FE        sub         dword ptr [ebp+4Dh],0FFFFFFFEh
  0040531D: FF 00              inc         dword ptr [eax]
  0040531F: 00 00              add         byte ptr [eax],al
  00405321: 00 00              add         byte ptr [eax],al
  00405323: A7                 cmps        dword ptr [esi],dword ptr es:[edi]
  00405324: 01 75 0D           add         dword ptr [ebp+0Dh],esi
  00405327: 08 20              or          byte ptr [eax],ah
  00405329: 02 00              add         al,byte ptr [eax]
  0040532B: E0 E8              loopne      00405315
  0040532D: 76 FE              jbe         0040532D
  0040532F: 8F
  00405330: E0 83              loopne      004052B5
  00405332: C4
  00405333: DC 9A 01 00 E0 00  fcomp       qword ptr [edx+00E00001h]
  00405339: 85 D2              test        edx,edx
  0040533B: E7 84              out         84h,eax
  0040533D: B6 03              mov         dh,3
  0040533F: E0 00              loopne      00405341
  00405341: B8 01 E0 00 00     mov         eax,0E001h
  00405346: 85 20              test        dword ptr [eax],esp
  00405348: 55                 push        ebp
  00405349: 48                 dec         eax
  0040534A: FF
  0040534B: ED                 in          eax,dx
  0040534C: F4                 hlt
  0040534D: 1A 40 E0           sbb         al,byte ptr [eax-20h]
  00405350: 2B 05 A4 EB 40 00  sub         eax,dword ptr ds:[0040EBA4h]
  00405356: 33 12              xor         edx,dword ptr [edx]
  00405358: 9A E8 03 E0 00 F7  call        F1F7:00E003E8
            F1
  0040535F: ED                 in          eax,dx
  00405360: 38 02              cmp         byte ptr [edx],al
  00405362: 00 E0              add         al,ah
  00405364: 56                 push        esi
  00405365: 2C 8B              sub         al,8Bh
  00405367: 75 1D              jne         00405386
  00405369: FE
  0040536A: FF 17              call        dword ptr [edi]
  0040536C: 33 FF              xor         edi,edi
  0040536E: 15 7C FB 3F 00     adc         eax,3FFB7Ch
  00405373: 63 5E 08           arpl        word ptr [esi+8],bx
  00405376: 00 74 07 E8        add         byte ptr [edi+eax-18h],dh
  0040537A: 39 FA              cmp         edx,edi
  0040537C: DF
  0040537D: FF
  0040537E: EB E5              jmp         00405365
  00405380: E8 82 FA E7 DF     call        E0284E07
  00405385: 68 B4 00 00 00     push        0B4h
  0040538A: 00 00              add         byte ptr [eax],al
  0040538C: E5 00              in          eax,0
  0040538E: 00 E8              add         al,ch
  00405390: F8                 clc
  00405391: DE FF              fdivp       st(7),st
  00405393: FF 63 C4           jmp         dword ptr [ebx-3Ch]
  00405396: 04 6A              add         al,6Ah
  00405398: FD                 std
  00405399: 68 C0 06 20 01     push        12006C0h
  0040539E: FF 95 28 DF FF FF  call        dword ptr [ebp+FFFFDF28h]
  004053A4: 63 C4              arpl        sp,ax
  004053A6: 08 89 5D 44 FE FF  or          byte ptr [ecx+FFFE445Dh],cl
  004053AC: 9F                 lahf
  004053AD: 83 BD 44 96 DF FF  cmp         dword ptr [ebp+FFDF9644h],0
            00
  004053B4: 15 F6 67 F0 DE     adc         eax,0DEF067F6h
  004053B9: 40                 inc         eax
  004053BA: 00 68 C0           add         byte ptr [eax-40h],ch
  004053BD: F5                 cmc
  004053BE: 3F                 aas
  004053BF: 00 77 75           add         byte ptr [edi+75h],dh
  004053C2: 58                 pop         eax
  004053C3: FE
  004053C4: 6F                 outs        dx,dword ptr [esi]
  004053C5: DF 83 C4 D8 EB 1E  fild        word ptr [ebx+1EEBD8C4h]
  004053CB: 68 20 FB 3F 00     push        3FFB20h
  004053D0: 81 04 02 40 E0 30  add         dword ptr [edx+eax],6830E040h
            68
  004053D7: 20 DF              and         bh,bl
  004053D9: 40                 inc         eax
  004053DA: 00 68 00           add         byte ptr [eax],ch
  004053DD: F6 3F              idiv        byte ptr [edi]
  004053DF: 00 37              add         byte ptr [edi],dh
  004053E1: 75 54              jne         00405437
  004053E3: FE
  004053E4: 2F                 das
  004053E5: DF 83 C4 D0 8D 8D  fild        word ptr [ebx+8D8DD0C4h]
  004053EB: FC                 cld
  004053EC: 1C DF              sbb         al,0DFh
  004053EE: FF 51 00           call        dword ptr [ecx]
  004053F1: 00 00              add         byte ptr [eax],al
  004053F3: 00 00              add         byte ptr [eax],al
  004053F5: 88 00              mov         byte ptr [eax],al
  004053F7: 03 00              add         eax,dword ptr [eax]
  004053F9: 64 6A 00           push        0
  004053FC: 6A E0              push        0FFFFFFE0h
  004053FE: 68 20 15 A0 00     push        0A01520h
  00405403: 8B 95 B4 DE FF FF  mov         edx,dword ptr [ebp+FFFFDEB4h]
  00405409: 92                 xchg        eax,edx
  0040540A: DF 15 68 CB 40 00  fist        word ptr ds:[0040CB68h]
  00405410: 89 65 41           mov         dword ptr [ebp+41h],esp
  00405413: FE
  00405414: FF D7              call        edi
  00405416: 82 BD 40 CE DE FF  cmp         byte ptr [ebp+FFDECE40h],0
            00
  0040541D: 4D                 dec         ebp
  0040541E: 04 E9              add         al,0E9h
  00405420: 1A BF DE FF C7 5D  sbb         bh,byte ptr [edi+5DC7FFDEh]
  00405426: 01 FD              add         ebp,edi
  00405428: FF AF 01 00 00 E0  jmp         fword ptr [edi+E0000001h]
  0040542E: C5 85 6C 9E DE FF  lds         eax,fword ptr [ebp+FFDE9E6Ch]
  00405434: 00 E0              add         al,ah
  00405436: 00 00              add         byte ptr [eax],al
  00405438: C7
  00405439: 65 31 FE           xor         esi,edi
  0040543C: FF 87 00 00 00 E0  inc         dword ptr [edi+E0000000h]
  00405442: 81 BD 50 76 DE FF  cmp         dword ptr [ebp+FFDE7650h],8D2FF400h
            00 F4 2F 8D
  0040544C: 85 10              test        dword ptr [eax],edx
  0040544E: DF
  0040544F: FF
  00405450: FF B0 97 C0 C6 05  push        dword ptr [eax+05C6C097h]
  00405456: 01 2B              add         dword ptr [ebx],ebp
  00405458: 8D 00              lea         eax,[eax]
  0040545A: 00 00              add         byte ptr [eax],al
  0040545C: 00 00              add         byte ptr [eax],al
  0040545E: BC DE FF FF B1     mov         esp,0B1FFFFDEh
  00405463: 89 95 4C 3E DE FF  mov         dword ptr [ebp+FFDE3E4Ch],edx
  00405469: 03 4D 6D           add         ecx,dword ptr [ebp+6Dh]
  0040546C: FE
  0040546D: FF 2F              jmp         fword ptr [edi]
  0040546F: 33 8B 85 A0 DE FF  xor         ecx,dword ptr [ebx+FFDEA085h]
  00405475: FF B0 DD 15 70 FB  push        dword ptr [eax+FB7015DDh]
  0040547B: 40                 inc         eax
  0040547C: 00 85 20 54 0C C7  add         byte ptr [ebp+C70C5420h],al
  00405482: 5D                 pop         ebp
  00405483: 01 FD              add         ebp,edi
  00405485: FF
  00405486: FF
  00405487: FF
  00405488: FF
  00405489: FF E0              jmp         eax
  0040548B: E9 14 8B 5D 6D     jmp         6D9DDFA4
  00405490: FE
  00405491: FF E7              jmp         edi
  00405493: 01 8D 50 DE DD FF  add         dword ptr [ebp+FFDDDE50h],ecx
  00405499: 89 65 6C           mov         dword ptr [ebp+6Ch],esp
  0040549C: FE
  0040549D: FF CF              dec         edi
  0040549F: E9 A6 8B 6D 40     jmp         40ADE04A
  004054A4: FE
  004054A5: FF
  004054A6: BF 32 FF 15 44     mov         edi,4415FF32h
  004054AB: FA                 cli
  004054AC: 3F                 aas
  004054AD: 00 63 9B           add         byte ptr [ebx-65h],ah
  004054B0: 00 FD              add         ch,bh
  004054B2: A7                 cmps        dword ptr [esi],dword ptr es:[edi]
  004054B3: DD 00              fld         qword ptr [eax]
  004054B5: 74 F7              je          004054AE
  004054B7: 9F                 lahf
  004054B8: A0 1B 20 01 69     mov         al,byte ptr ds:[6901201Bh]
  004054BD: C0 78 01 00        sar         byte ptr [eax+1],0
  004054C1: 00 00              add         byte ptr [eax],al
  004054C3: 00 00              add         byte ptr [eax],al
  004054C5: 00 00              add         byte ptr [eax],al
  004054C7: 30 DE              xor         dh,bl
  004054C9: 15 60 DB 40 00     adc         eax,40DB60h
  004054CE: E9 ED DE FF FF     jmp         004033C0
  004054D3: 61                 popad
  004054D4: 9B                 wait
  004054D5: 6C                 ins         byte ptr es:[edi],dx
  004054D6: FE
  004054D7: 67 DD 9A 02 E0     fstp        qword ptr [bp+si+E002h]
  004054DC: 00 0F              add         byte ptr [edi],cl
  004054DE: 85 75 00           test        dword ptr [ebp],esi
  004054E1: 00 00              add         byte ptr [eax],al
  004054E3: 27                 daa
  004054E4: 03 A0 1B A0 00 3C  add         esp,dword ptr [eax+3C00A01Bh]
  004054EA: 00 E0              add         al,ah
  004054EC: 00 83 BD BC DE FF  add         byte ptr [ebx+FFDEBCBDh],al
  004054F2: FF E1              jmp         ecx
  004054F4: 52                 push        edx
  004054F5: 67 6A DD           push        0FFFFFFDDh
  004054F8: 89 8D 70 1E DD FF  mov         dword ptr [ebp+FFDD1E70h],ecx
  004054FE: 51                 push        ecx
  004054FF: 08 45 F8           or          byte ptr [ebp-8],al
  00405502: FF 0F              dec         dword ptr [edi]
  00405504: 81 C4 08 78 38 1B  add         esp,1B387808h
  0040550A: 00 E0              add         al,ah
  0040550C: DD 15 60 DB 40 00  fst         qword ptr ds:[0040DB60h]
  00405512: C7
  00405513: 65 68 FE FF E7 FE  push        0FEE7FFFEh
  00405519: FF
  0040551A: FF E0              jmp         eax
  0040551C: E7 0F              out         0Fh,eax
  0040551E: 8B 6D 69           mov         ebp,dword ptr [ebp+69h]
  00405521: FE
  00405522: FF CF              dec         edi
  00405524: 80 C2 01           add         dl,1
  00405527: 59                 pop         ecx
  00405528: 76 68              jbe         00405592
  0040552A: FE 00              inc         byte ptr [eax]
  0040552C: 00 00              add         byte ptr [eax],al
  0040552E: 00 00              add         byte ptr [eax],al
  00405530: BF DC 8B 85 48     mov         edi,48858BDCh
  00405535: DB
  00405536: FF
  00405537: FF
  00405538: EB 85              jmp         004054BF
  0040553A: 64
  0040553B: FE
  0040553C: A7                 cmps        dword ptr [esi],dword ptr es:[edi]
  0040553D: DC 73 22           fdiv        qword ptr [ebx+22h]
  00405540: 0A 06              or          al,byte ptr [esi]
  00405542: 8B 8D 08 DB FF FF  mov         ecx,dword ptr [ebp+FFFFDB08h]
  00405548: 5B                 pop         ebx
  00405549: 75 8D              jne         004054D8
  0040554B: 70 86              jo          004054D3
  0040554D: DC FF              fdiv        st(7),st
  0040554F: 52                 push        edx
  00405550: 88 D8              mov         al,bl
  00405552: F7 FF              idiv        eax,edi
  00405554: 77 80              ja          004054D6
  00405556: C4 08              les         ecx,fword ptr [eax]
  00405558: FA                 cli
  00405559: 00 FF              add         bh,bh
  0040555B: 15 00 F8 3F 00     adc         eax,3FF800h
  00405560: 4B                 dec         ebx
  00405561: C2 C7 85           ret         85C7h
  00405564: BC DA FF FF E0     mov         esp,0E0FFFFDAh
  00405569: 00 00              add         byte ptr [eax],al
  0040556B: 00 81 A1 1B 40 E0  add         byte ptr [ecx+E0401BA1h],al
  00405571: 69 C0 E8 E3 00 00  imul        eax,eax,0E3E8h
  00405577: 50                 push        eax
  00405578: 2F                 das
  00405579: F6 5F 1B           neg         byte ptr [edi+1Bh]
  0040557C: A0 00 E9 CA 1D     mov         al,byte ptr ds:[1DCAE900h]
  00405581: DC FF              fdiv        st(7),st
  00405583: EB EA              jmp         0040556F
  00405585: C3                 ret
  00405586: 05 A0 EB 40 00     add         eax,40EBA0h
  0040558B: 00 E0              add         al,ah
  0040558D: 00 00              add         byte ptr [eax],al
  0040558F: 8D 6D 09           lea         ebp,[ebp+9]
  00405592: FD                 std
  00405593: FF 00              inc         dword ptr [eax]
  00405595: 00 00              add         byte ptr [eax],al
  00405597: 00 00              add         byte ptr [eax],al
  00405599: F7 31              div         eax,dword ptr [ecx]
  0040559B: 68 2C E1 00 00     push        0E12Ch
  004055A0: FF CD              dec         ebp
  004055A2: EC                 in          al,dx
  004055A3: 1A 40 E0           sbb         al,byte ptr [eax-20h]
  004055A6: 8D 95 C8 DB DB FF  lea         edx,[ebp+FFDBDBC8h]
  004055AC: 52                 push        edx
  004055AD: 3A 01              cmp         al,byte ptr [ecx]
  004055AF: 68 50 DF 40 00     push        40DF50h
  004055B4: 8D 65 08           lea         esp,[ebp+8]
  004055B7: FD                 std
  004055B8: FF B7 30 FF 15 B0  push        dword ptr [edi+B015FF30h]
  004055BE: F6 3F              idiv        byte ptr [edi]
  004055C0: 00 38              add         byte ptr [eax],bh
  004055C2: 05 01 00 E0 66     add         eax,66E00001h
  004055C7: 00 8B E5 A8 1B 40  add         byte ptr [ebx+401BA8E5h],cl
  004055CD: E0 31              loopne      00405600
  004055CF: FF 15 E4 F7 3F 00  call        dword ptr ds:[003FF7E4h]
  004055D5: 6B 75 64 FE        imul        esi,dword ptr [ebp+64h],0FFFFFFFEh
  004055D9: 77 DB              ja          004055B6
  004055DB: 89 84 55 50 FE FF  mov         dword ptr [ebp+edx*2+67FFFE50h],eax
            67
  004055E2: 87 85 64 5E DB FF  xchg        eax,dword ptr [ebp+FFDB5E64h]
  004055E8: 8B 64 85 70        mov         esp,dword ptr [ebp+eax*4+70h]
  004055EC: FE 4F DB           dec         byte ptr [edi-25h]
  004055EF: 89 8D 1C D7 FF FF  mov         dword ptr [ebp+FFFFD71Ch],ecx
  004055F5: 6D                 ins         dword ptr es:[edi],dx
  004055F6: 75 C8              jne         004055C0
  004055F8: FB                 sti
  004055F9: 37                 aaa
  004055FA: DB 52 8B           fist        dword ptr [edx-75h]
  004055FD: 00 00              add         byte ptr [eax],al
  004055FF: 00 00              add         byte ptr [eax],al
  00405601: 00 65 C4           add         byte ptr [ebp-3Ch],ah
  00405604: FB                 sti
  00405605: FF 27              jmp         dword ptr [edi]
  00405607: 30 FF              xor         bh,bh
  00405609: 15 08 F6 3F 00     adc         eax,3FF608h
  0040560E: 6B 8D 64 FE 0F DB  imul        ecx,dword ptr [ebp+DB0FFE64h],0FFFFFF83h
            83
  00405615: C1 E1 89           shl         ecx,89h
  00405618: 8D 64 FE DA        lea         esp,[esi+edi*8-26h]
  0040561C: FF 6A E0           jmp         fword ptr [edx-20h]
  0040561F: 66 06              push        es
  00405621: 6A E2              push        0FFFFFFE2h
  00405623: 66 00 6A E0        add         byte ptr [edx-20h],ch
  00405627: 68 FF 01 FF 00     push        0FF01FFh
  0040562C: 8D 95 A8 D6 FF FF  lea         edx,[ebp+FFFFD6A8h]
  00405632: 32 DA              xor         bl,dl
  00405634: 15 FC EA 40 00     adc         eax,40EAFCh
  00405639: 89 65 3D           mov         dword ptr [ebp+3Dh],esp
  0040563C: FE
  0040563D: FF B7 7E BD 5C AE  push        dword ptr [edi+AE5CBD7Eh]
  00405643: DA
  00405644: FF
  00405645: FF 2D 04 E9 0A 9D  jmp         fword ptr ds:[9D0AE904h]
  0040564B: DA
  0040564C: FF C7              inc         edi
  0040564E: 5D                 pop         ebp
  0040564F: 69 FE FF 8F 01 00  imul        edi,esi,18FFFh
  00405655: 00 E0              add         al,ah
  00405657: E5 0F              in          eax,0Fh
  00405659: 8B 65 69           mov         esp,dword ptr [ebp+69h]
  0040565C: FE
  0040565D: FF 77 7E           push        dword ptr [edi+7Eh]
  00405660: C0 04 59 84        rol         byte ptr [ecx+ebx*2],84h
  00405664: 68 FE 00 00 00     push        0FEh
  00405669: 00 00              add         byte ptr [eax],al
  0040566B: 67 DA 8B 8D C8     fimul       dword ptr [bp+di+C88Dh]
  00405670: DA
  00405671: FF
  00405672: FF 1B              call        fword ptr [ebx]
  00405674: 8C 6C FE 4F        mov         word ptr [esi+edi*8+4Fh],gs
  00405678: DA 73 4C           fidiv       dword ptr [ebx+4Ch]
  0040567B: 5B                 pop         ebx
  0040567C: 74 4C              je          004056CA
  0040567E: FE
  0040567F: 3F                 aas
  00405680: DA 03              fiadd       dword ptr [ebx]
  00405682: 95                 xchg        eax,ebp
  00405683: C8 DA FF FF        enter       0FFDAh,0FFh
  00405687: 5B                 pop         ebx
  00405688: FF 02              inc         dword ptr [edx]
  0040568A: 85 B8 DA FF FF 6B  test        dword ptr [eax+6BFFFFDAh],edi
  00405690: 8C 4C FE 17        mov         word ptr [esi+edi*8+17h],cs
  00405694: DA 03              fiadd       dword ptr [ebx]
  00405696: 8D 78 DA           lea         edi,[eax-26h]
  00405699: FF
  0040569A: FF 59 00           call        fword ptr [ecx]
  0040569D: 8B 95 88 DA FF FF  mov         edx,dword ptr [ebp+FFFFDA88h]
  004056A3: 61                 popad
  004056A4: BF BF A7 E0 00     mov         edi,0E0A7BFh
  004056A9: 8B 85 94 DA FF FF  mov         eax,dword ptr [ebp+FFFFDA94h]
  004056AF: E3 83              jecxz       00405634
  004056B1: 68 FE D7 D9 33     push        33D9D7FEh
  004056B6: 10 5B 8B           adc         byte ptr [ebx-75h],bl
  004056B9: 4C                 dec         esp
  004056BA: FE C7              inc         bh
  004056BC: D9 03              fld         dword ptr [ebx]
  004056BE: 8D 48 DB           lea         ecx,[eax-25h]
  004056C1: FF
  004056C2: FF 69 EF           jmp         fword ptr [ecx-11h]
  004056C5: EA 97 3A 01 8D 95  jmp         DC95:8D013A97
            DC
  004056CC: DB
  004056CD: FF
  004056CE: FF 00              inc         dword ptr [eax]
  004056D0: 00 00              add         byte ptr [eax],al
  004056D2: 00 00              add         byte ptr [eax],al
  004056D4: 32 86 85 6C 96 D9  xor         al,byte ptr [esi+D9966C85h]
  004056DA: FF 50 5B           call        dword ptr [eax+5Bh]
  004056DD: 8B 4C FE 87        mov         ecx,dword ptr [esi+edi*8-79h]
  004056E1: D9 51 8B           fst         dword ptr [ecx-75h]
  004056E4: 55                 push        ebp
  004056E5: 3C FE              cmp         al,0FEh
  004056E7: FF 77 2E           push        dword ptr [edi+2Eh]
  004056EA: FF 15 E0 F5 3F 00  call        dword ptr ds:[003FF5E0h]
  004056F0: 5B                 pop         ebx
  004056F1: 83 5C FE 5F D9     sbb         dword ptr [esi+edi*8+5Fh],0FFFFFFD9h
  004056F6: 50                 push        eax
  004056F7: FF
  004056F8: ED                 in          eax,dx
  004056F9: 04 1B              add         al,1Bh
  004056FB: 40                 inc         eax
  004056FC: E0 85              loopne      00405683
  004056FE: 0D 04 E2 40 00     or          eax,40E204h
  00405703: 83 21 FF           and         dword ptr [ecx],0FFFFFFFFh
  00405706: 88 0D DC FE 3F 00  mov         byte ptr ds:[003FFEDCh],cl
  0040570C: 5B                 pop         ebx
  0040570D: F3 9F              rep lahf
  0040570F: 1B A0 00 69 D2 08  sbb         esp,dword ptr [eax+08D26900h]
  00405715: FD                 std
  00405716: FF
  00405717: FF B2 D9 15 60 EB  push        dword ptr [edx+EB6015D9h]
  0040571D: 40                 inc         eax
  0040571E: 00 E9              add         cl,ch
  00405720: C5
  00405721: DC FF              fdiv        st(7),st
  00405723: FF 6B E3           jmp         fword ptr [ebx-1Dh]
  00405726: 5D                 pop         ebp
  00405727: C3                 ret
  00405728: 24 CC              and         al,0CCh
  0040572A: CC                 int         3
  0040572B: CC                 int         3
  0040572C: 1C CC              sbb         al,0CCh
  0040572E: CC                 int         3
  0040572F: CC                 int         3
  00405730: 14 CC              adc         al,0CCh
  00405732: CC                 int         3
  00405733: CC                 int         3
  00405734: E0 00              loopne      00405736
  00405736: 00 00              add         byte ptr [eax],al
  00405738: 00 00              add         byte ptr [eax],al
  0040573A: 00 00              add         byte ptr [eax],al
  0040573C: 00 E0              add         al,ah
  0040573E: 00 00              add         byte ptr [eax],al
  00405740: 00 E0              add         al,ah
  00405742: 00 00              add         byte ptr [eax],al
  00405744: 00 E0              add         al,ah
  00405746: 00 00              add         byte ptr [eax],al
  00405748: 00 E0              add         al,ah
  0040574A: 00 00              add         byte ptr [eax],al
  0040574C: 00 E0              add         al,ah
  0040574E: 00 00              add         byte ptr [eax],al
  00405750: 00 E0              add         al,ah
  00405752: 00 00              add         byte ptr [eax],al
  00405754: 00 E0              add         al,ah
  00405756: 00 00              add         byte ptr [eax],al
  00405758: 00 E0              add         al,ah
  0040575A: 00 00              add         byte ptr [eax],al
  0040575C: 00 E0              add         al,ah
  0040575E: 00 00              add         byte ptr [eax],al
  00405760: 00 E0              add         al,ah
  00405762: 00 00              add         byte ptr [eax],al
  00405764: 00 E0              add         al,ah
  00405766: 00 00              add         byte ptr [eax],al
  00405768: 00 E0              add         al,ah
  0040576A: 00 00              add         byte ptr [eax],al
  0040576C: 00 E0              add         al,ah
  0040576E: 00 00              add         byte ptr [eax],al
  00405770: 00 E0              add         al,ah
  00405772: 00 00              add         byte ptr [eax],al
  00405774: 00 E0              add         al,ah
  00405776: 00 00              add         byte ptr [eax],al
  00405778: 00 E0              add         al,ah
  0040577A: 00 00              add         byte ptr [eax],al
  0040577C: 00 E0              add         al,ah
  0040577E: 00 00              add         byte ptr [eax],al
  00405780: 00 E0              add         al,ah
  00405782: 00 00              add         byte ptr [eax],al
  00405784: 00 E0              add         al,ah
  00405786: 00 00              add         byte ptr [eax],al
  00405788: 00 E0              add         al,ah
  0040578A: 00 00              add         byte ptr [eax],al
  0040578C: 00 E0              add         al,ah
  0040578E: 00 00              add         byte ptr [eax],al
  00405790: 00 E0              add         al,ah
  00405792: 00 00              add         byte ptr [eax],al
  00405794: 00 E0              add         al,ah
  00405796: 00 00              add         byte ptr [eax],al
  00405798: 00 E0              add         al,ah
  0040579A: 00 00              add         byte ptr [eax],al
  0040579C: 00 E0              add         al,ah
  0040579E: 00 00              add         byte ptr [eax],al
  004057A0: 00 00              add         byte ptr [eax],al
  004057A2: 00 00              add         byte ptr [eax],al
  004057A4: 00 00              add         byte ptr [eax],al
  004057A6: E0 00              loopne      004057A8
  004057A8: 00 00              add         byte ptr [eax],al
  004057AA: E0 00              loopne      004057AC
  004057AC: 00 00              add         byte ptr [eax],al
  004057AE: E0 00              loopne      004057B0
  004057B0: 00 00              add         byte ptr [eax],al
  004057B2: E0 00              loopne      004057B4
  004057B4: 00 00              add         byte ptr [eax],al
  004057B6: E0 00              loopne      004057B8
  004057B8: 00 00              add         byte ptr [eax],al
  004057BA: E0 00              loopne      004057BC
  004057BC: 00 00              add         byte ptr [eax],al
  004057BE: E0 00              loopne      004057C0
  004057C0: 00 00              add         byte ptr [eax],al
  004057C2: E0 00              loopne      004057C4
  004057C4: 00 00              add         byte ptr [eax],al
  004057C6: E0 00              loopne      004057C8
  004057C8: 00 00              add         byte ptr [eax],al
  004057CA: E0 00              loopne      004057CC
  004057CC: 00 00              add         byte ptr [eax],al
  004057CE: E0 00              loopne      004057D0
  004057D0: 00 00              add         byte ptr [eax],al
  004057D2: E0 00              loopne      004057D4
  004057D4: 00 00              add         byte ptr [eax],al
  004057D6: E0 00              loopne      004057D8
  004057D8: 00 00              add         byte ptr [eax],al
  004057DA: E0 00              loopne      004057DC
  004057DC: 00 00              add         byte ptr [eax],al
  004057DE: E0 00              loopne      004057E0
  004057E0: 00 00              add         byte ptr [eax],al
  004057E2: E0 00              loopne      004057E4
  004057E4: 00 00              add         byte ptr [eax],al
  004057E6: E0 00              loopne      004057E8
  004057E8: 00 00              add         byte ptr [eax],al
  004057EA: E0 00              loopne      004057EC
  004057EC: 00 00              add         byte ptr [eax],al
  004057EE: E0 00              loopne      004057F0
  004057F0: 00 00              add         byte ptr [eax],al
  004057F2: E0 00              loopne      004057F4
  004057F4: 00 00              add         byte ptr [eax],al
  004057F6: E0 00              loopne      004057F8
  004057F8: 00 00              add         byte ptr [eax],al
  004057FA: E0 00              loopne      004057FC
  004057FC: 00 00              add         byte ptr [eax],al
  004057FE: E0 00              loopne      00405800
  00405800: 00 00              add         byte ptr [eax],al
  00405802: E0 00              loopne      00405804
  00405804: 00 00              add         byte ptr [eax],al
  00405806: E0 00              loopne      00405808
  00405808: 00 00              add         byte ptr [eax],al
  0040580A: 00 00              add         byte ptr [eax],al
  0040580C: 00 00              add         byte ptr [eax],al
  0040580E: 00 E0              add         al,ah
  00405810: 00 00              add         byte ptr [eax],al
  00405812: 00 E0              add         al,ah
  00405814: 00 00              add         byte ptr [eax],al
  00405816: 00 E0              add         al,ah
  00405818: 00 00              add         byte ptr [eax],al
  0040581A: 00 E0              add         al,ah
  0040581C: 00 00              add         byte ptr [eax],al
  0040581E: 00 E0              add         al,ah
  00405820: 00 00              add         byte ptr [eax],al
  00405822: 00 E0              add         al,ah
  00405824: 00 00              add         byte ptr [eax],al
  00405826: 00 E0              add         al,ah
  00405828: 00 00              add         byte ptr [eax],al
  0040582A: 00 E0              add         al,ah
  0040582C: 00 00              add         byte ptr [eax],al
  0040582E: 00 E0              add         al,ah
  00405830: 00 00              add         byte ptr [eax],al
  00405832: 00 E0              add         al,ah
  00405834: 00 00              add         byte ptr [eax],al
  00405836: 00 E0              add         al,ah
  00405838: 00 00              add         byte ptr [eax],al
  0040583A: 00 E0              add         al,ah
  0040583C: 00 00              add         byte ptr [eax],al
  0040583E: 00 E0              add         al,ah
  00405840: 00 00              add         byte ptr [eax],al
  00405842: 00 E0              add         al,ah
  00405844: 00 00              add         byte ptr [eax],al
  00405846: 00 E0              add         al,ah
  00405848: 00 00              add         byte ptr [eax],al
  0040584A: 00 E0              add         al,ah
  0040584C: 00 00              add         byte ptr [eax],al
  0040584E: 00 E0              add         al,ah
  00405850: 00 00              add         byte ptr [eax],al
  00405852: 00 E0              add         al,ah
  00405854: 00 00              add         byte ptr [eax],al
  00405856: 00 E0              add         al,ah
  00405858: 00 00              add         byte ptr [eax],al
  0040585A: 00 E0              add         al,ah
  0040585C: 00 00              add         byte ptr [eax],al
  0040585E: 00 E0              add         al,ah
  00405860: 00 00              add         byte ptr [eax],al
  00405862: 00 E0              add         al,ah
  00405864: 00 00              add         byte ptr [eax],al
  00405866: 00 E0              add         al,ah
  00405868: 00 00              add         byte ptr [eax],al
  0040586A: 00 E0              add         al,ah
  0040586C: 00 00              add         byte ptr [eax],al
  0040586E: 00 E0              add         al,ah
  00405870: 00 00              add         byte ptr [eax],al
  00405872: 00 00              add         byte ptr [eax],al
  00405874: 00 00              add         byte ptr [eax],al
  00405876: 00 00              add         byte ptr [eax],al
  00405878: E0 00              loopne      0040587A
  0040587A: 00 00              add         byte ptr [eax],al
  0040587C: E0 00              loopne      0040587E
  0040587E: 00 00              add         byte ptr [eax],al
  00405880: E0 00              loopne      00405882
  00405882: 00 00              add         byte ptr [eax],al
  00405884: E0 00              loopne      00405886
  00405886: 00 00              add         byte ptr [eax],al
  00405888: E0 00              loopne      0040588A
  0040588A: 00 00              add         byte ptr [eax],al
  0040588C: E0 00              loopne      0040588E
  0040588E: 00 00              add         byte ptr [eax],al
  00405890: E0 00              loopne      00405892
  00405892: 00 00              add         byte ptr [eax],al
  00405894: E0 00              loopne      00405896
  00405896: 00 00              add         byte ptr [eax],al
  00405898: E0 00              loopne      0040589A
  0040589A: 00 00              add         byte ptr [eax],al
  0040589C: E0 00              loopne      0040589E
  0040589E: 00 00              add         byte ptr [eax],al
  004058A0: E0 00              loopne      004058A2
  004058A2: 00 00              add         byte ptr [eax],al
  004058A4: E0 00              loopne      004058A6
  004058A6: 00 00              add         byte ptr [eax],al
  004058A8: E0 00              loopne      004058AA
  004058AA: 00 00              add         byte ptr [eax],al
  004058AC: E0 00              loopne      004058AE
  004058AE: 00 00              add         byte ptr [eax],al
  004058B0: E0 00              loopne      004058B2
  004058B2: 00 00              add         byte ptr [eax],al
  004058B4: E0 00              loopne      004058B6
  004058B6: 00 00              add         byte ptr [eax],al
  004058B8: E0 00              loopne      004058BA
  004058BA: 00 00              add         byte ptr [eax],al
  004058BC: E0 00              loopne      004058BE
  004058BE: 00 00              add         byte ptr [eax],al
  004058C0: E0 00              loopne      004058C2
  004058C2: 00 00              add         byte ptr [eax],al
  004058C4: E0 00              loopne      004058C6
  004058C6: 00 00              add         byte ptr [eax],al
  004058C8: E0 00              loopne      004058CA
  004058CA: 00 00              add         byte ptr [eax],al
  004058CC: E0 00              loopne      004058CE
  004058CE: 00 00              add         byte ptr [eax],al
  004058D0: E0 00              loopne      004058D2
  004058D2: 00 00              add         byte ptr [eax],al
  004058D4: E0 00              loopne      004058D6
  004058D6: 00 00              add         byte ptr [eax],al
  004058D8: E0 00              loopne      004058DA
  004058DA: 00 00              add         byte ptr [eax],al
  004058DC: 00 00              add         byte ptr [eax],al
  004058DE: 00 00              add         byte ptr [eax],al
  004058E0: 00 E0              add         al,ah
  004058E2: 00 00              add         byte ptr [eax],al
  004058E4: 00 E0              add         al,ah
  004058E6: 00 00              add         byte ptr [eax],al
  004058E8: 00 E0              add         al,ah
  004058EA: 00 00              add         byte ptr [eax],al
  004058EC: 00 E0              add         al,ah
  004058EE: 00 00              add         byte ptr [eax],al
  004058F0: 00 E0              add         al,ah
  004058F2: 00 00              add         byte ptr [eax],al
  004058F4: 00 E0              add         al,ah
  004058F6: 00 00              add         byte ptr [eax],al
  004058F8: 00 E0              add         al,ah
  004058FA: 00 00              add         byte ptr [eax],al
  004058FC: 00 E0              add         al,ah
  004058FE: 00 00              add         byte ptr [eax],al
  00405900: 00 E0              add         al,ah
  00405902: 00 00              add         byte ptr [eax],al
  00405904: 00 E0              add         al,ah
  00405906: 00 00              add         byte ptr [eax],al
  00405908: 00 E0              add         al,ah
  0040590A: 00 00              add         byte ptr [eax],al
  0040590C: 00 E0              add         al,ah
  0040590E: 00 00              add         byte ptr [eax],al
  00405910: 00 E0              add         al,ah
  00405912: 00 00              add         byte ptr [eax],al
  00405914: 00 E0              add         al,ah
  00405916: 00 00              add         byte ptr [eax],al
  00405918: 00 E0              add         al,ah
  0040591A: 00 00              add         byte ptr [eax],al
  0040591C: 00 E0              add         al,ah
  0040591E: 00 00              add         byte ptr [eax],al
  00405920: 00 E0              add         al,ah
  00405922: 00 00              add         byte ptr [eax],al
  00405924: 00 E0              add         al,ah
  00405926: 00 00              add         byte ptr [eax],al
  00405928: 00 E0              add         al,ah
  0040592A: 00 00              add         byte ptr [eax],al
  0040592C: 00 E0              add         al,ah
  0040592E: 00 00              add         byte ptr [eax],al
  00405930: 00 E0              add         al,ah
  00405932: 00 00              add         byte ptr [eax],al
  00405934: 00 E0              add         al,ah
  00405936: 00 00              add         byte ptr [eax],al
  00405938: 00 E0              add         al,ah
  0040593A: 00 00              add         byte ptr [eax],al
  0040593C: 00 E0              add         al,ah
  0040593E: 00 00              add         byte ptr [eax],al
  00405940: 00 E0              add         al,ah
  00405942: 00 00              add         byte ptr [eax],al
  00405944: 00 00              add         byte ptr [eax],al
  00405946: 00 00              add         byte ptr [eax],al
  00405948: 00 00              add         byte ptr [eax],al
  0040594A: E0 00              loopne      0040594C
  0040594C: 00 00              add         byte ptr [eax],al
  0040594E: E0 00              loopne      00405950
  00405950: 00 00              add         byte ptr [eax],al
  00405952: E0 00              loopne      00405954
  00405954: 00 00              add         byte ptr [eax],al
  00405956: E0 00              loopne      00405958
  00405958: 00 00              add         byte ptr [eax],al
  0040595A: E0 00              loopne      0040595C
  0040595C: 00 00              add         byte ptr [eax],al
  0040595E: E0 00              loopne      00405960
  00405960: 00 00              add         byte ptr [eax],al
  00405962: E0 00              loopne      00405964
  00405964: 00 00              add         byte ptr [eax],al
  00405966: E0 00              loopne      00405968
  00405968: 00 00              add         byte ptr [eax],al
  0040596A: E0 00              loopne      0040596C
  0040596C: 00 00              add         byte ptr [eax],al
  0040596E: E0 00              loopne      00405970
  00405970: 00 00              add         byte ptr [eax],al
  00405972: E0 00              loopne      00405974
  00405974: 00 00              add         byte ptr [eax],al
  00405976: E0 00              loopne      00405978
  00405978: 00 00              add         byte ptr [eax],al
  0040597A: E0 00              loopne      0040597C
  0040597C: 00 00              add         byte ptr [eax],al
  0040597E: E0 00              loopne      00405980
  00405980: 00 00              add         byte ptr [eax],al
  00405982: E0 00              loopne      00405984
  00405984: 00 00              add         byte ptr [eax],al
  00405986: E0 00              loopne      00405988
  00405988: 00 00              add         byte ptr [eax],al
  0040598A: E0 00              loopne      0040598C
  0040598C: 00 00              add         byte ptr [eax],al
  0040598E: E0 00              loopne      00405990
  00405990: 00 00              add         byte ptr [eax],al
  00405992: E0 00              loopne      00405994
  00405994: 00 00              add         byte ptr [eax],al
  00405996: E0 00              loopne      00405998
  00405998: 00 00              add         byte ptr [eax],al
  0040599A: E0 00              loopne      0040599C
  0040599C: 00 00              add         byte ptr [eax],al
  0040599E: E0 00              loopne      004059A0
  004059A0: 00 00              add         byte ptr [eax],al
  004059A2: E0 00              loopne      004059A4
  004059A4: 00 00              add         byte ptr [eax],al
  004059A6: E0 00              loopne      004059A8
  004059A8: 00 00              add         byte ptr [eax],al
  004059AA: E0 00              loopne      004059AC
  004059AC: 00 00              add         byte ptr [eax],al
  004059AE: 00 00              add         byte ptr [eax],al
  004059B0: 00 00              add         byte ptr [eax],al
  004059B2: 00 E0              add         al,ah
  004059B4: 00 00              add         byte ptr [eax],al
  004059B6: 00 E0              add         al,ah
  004059B8: 00 00              add         byte ptr [eax],al
  004059BA: 00 E0              add         al,ah
  004059BC: 00 00              add         byte ptr [eax],al
  004059BE: 00 E0              add         al,ah
  004059C0: 00 00              add         byte ptr [eax],al
  004059C2: 00 E0              add         al,ah
  004059C4: 00 00              add         byte ptr [eax],al
  004059C6: 00 E0              add         al,ah
  004059C8: 00 00              add         byte ptr [eax],al
  004059CA: 00 E0              add         al,ah
  004059CC: 00 00              add         byte ptr [eax],al
  004059CE: 00 E0              add         al,ah
  004059D0: 00 00              add         byte ptr [eax],al
  004059D2: 00 E0              add         al,ah
  004059D4: 00 00              add         byte ptr [eax],al
  004059D6: 00 E0              add         al,ah
  004059D8: 00 00              add         byte ptr [eax],al
  004059DA: 00 E0              add         al,ah
  004059DC: 00 00              add         byte ptr [eax],al
  004059DE: 00 E0              add         al,ah
  004059E0: 00 00              add         byte ptr [eax],al
  004059E2: 00 E0              add         al,ah
  004059E4: 00 00              add         byte ptr [eax],al
  004059E6: 00 E0              add         al,ah
  004059E8: 00 00              add         byte ptr [eax],al
  004059EA: 00 E0              add         al,ah
  004059EC: 00 00              add         byte ptr [eax],al
  004059EE: 00 E0              add         al,ah
  004059F0: 00 00              add         byte ptr [eax],al
  004059F2: 00 E0              add         al,ah
  004059F4: 00 00              add         byte ptr [eax],al
  004059F6: 00 E0              add         al,ah
  004059F8: 00 00              add         byte ptr [eax],al
  004059FA: 00 E0              add         al,ah
  004059FC: 00 00              add         byte ptr [eax],al
  004059FE: 00 E0              add         al,ah
  00405A00: 00 00              add         byte ptr [eax],al
  00405A02: 00 E0              add         al,ah
  00405A04: 00 00              add         byte ptr [eax],al
  00405A06: 00 E0              add         al,ah
  00405A08: 00 00              add         byte ptr [eax],al
  00405A0A: 00 E0              add         al,ah
  00405A0C: 00 00              add         byte ptr [eax],al
  00405A0E: 00 E0              add         al,ah
  00405A10: 00 00              add         byte ptr [eax],al
  00405A12: 00 E0              add         al,ah
  00405A14: 00 00              add         byte ptr [eax],al
  00405A16: 00 00              add         byte ptr [eax],al
  00405A18: 00 00              add         byte ptr [eax],al
  00405A1A: 00 00              add         byte ptr [eax],al
  00405A1C: E0 00              loopne      00405A1E
  00405A1E: 00 00              add         byte ptr [eax],al
  00405A20: E0 00              loopne      00405A22
  00405A22: 00 00              add         byte ptr [eax],al
  00405A24: E0 00              loopne      00405A26
  00405A26: 00 00              add         byte ptr [eax],al
  00405A28: E0 00              loopne      00405A2A
  00405A2A: 00 00              add         byte ptr [eax],al
  00405A2C: E0 00              loopne      00405A2E
  00405A2E: 00 00              add         byte ptr [eax],al
  00405A30: E0 00              loopne      00405A32
  00405A32: 00 00              add         byte ptr [eax],al
  00405A34: E0 00              loopne      00405A36
  00405A36: 00 00              add         byte ptr [eax],al
  00405A38: E0 00              loopne      00405A3A
  00405A3A: 00 00              add         byte ptr [eax],al
  00405A3C: E0 00              loopne      00405A3E
  00405A3E: 00 00              add         byte ptr [eax],al
  00405A40: E0 00              loopne      00405A42
  00405A42: 00 00              add         byte ptr [eax],al
  00405A44: E0 00              loopne      00405A46
  00405A46: 00 00              add         byte ptr [eax],al
  00405A48: E0 00              loopne      00405A4A
  00405A4A: 00 00              add         byte ptr [eax],al
  00405A4C: E0 00              loopne      00405A4E
  00405A4E: 00 00              add         byte ptr [eax],al
  00405A50: E0 00              loopne      00405A52
  00405A52: 00 00              add         byte ptr [eax],al
  00405A54: E0 00              loopne      00405A56
  00405A56: 00 00              add         byte ptr [eax],al
  00405A58: E0 00              loopne      00405A5A
  00405A5A: 00 00              add         byte ptr [eax],al
  00405A5C: E0 00              loopne      00405A5E
  00405A5E: 00 00              add         byte ptr [eax],al
  00405A60: E0 00              loopne      00405A62
  00405A62: 00 00              add         byte ptr [eax],al
  00405A64: E0 00              loopne      00405A66
  00405A66: 00 00              add         byte ptr [eax],al
  00405A68: E0 00              loopne      00405A6A
  00405A6A: 00 00              add         byte ptr [eax],al
  00405A6C: E0 00              loopne      00405A6E
  00405A6E: 00 00              add         byte ptr [eax],al
  00405A70: E0 00              loopne      00405A72
  00405A72: 00 00              add         byte ptr [eax],al
  00405A74: E0 00              loopne      00405A76
  00405A76: 00 00              add         byte ptr [eax],al
  00405A78: E0 00              loopne      00405A7A
  00405A7A: 00 00              add         byte ptr [eax],al
  00405A7C: E0 00              loopne      00405A7E
  00405A7E: 00 00              add         byte ptr [eax],al
  00405A80: 00 00              add         byte ptr [eax],al
  00405A82: 00 00              add         byte ptr [eax],al
  00405A84: 00 E0              add         al,ah
  00405A86: 00 00              add         byte ptr [eax],al
  00405A88: 00 E0              add         al,ah
  00405A8A: 00 00              add         byte ptr [eax],al
  00405A8C: 00 E0              add         al,ah
  00405A8E: 00 00              add         byte ptr [eax],al
  00405A90: 00 E0              add         al,ah
  00405A92: 00 00              add         byte ptr [eax],al
  00405A94: 00 E0              add         al,ah
  00405A96: 00 00              add         byte ptr [eax],al
  00405A98: 00 E0              add         al,ah
  00405A9A: 00 00              add         byte ptr [eax],al
  00405A9C: 00 E0              add         al,ah
  00405A9E: 00 00              add         byte ptr [eax],al
  00405AA0: 00 E0              add         al,ah
  00405AA2: 00 00              add         byte ptr [eax],al
  00405AA4: 00 E0              add         al,ah
  00405AA6: 00 00              add         byte ptr [eax],al
  00405AA8: 00 E0              add         al,ah
  00405AAA: 00 00              add         byte ptr [eax],al
  00405AAC: 00 E0              add         al,ah
  00405AAE: 00 00              add         byte ptr [eax],al
  00405AB0: 00 E0              add         al,ah
  00405AB2: 00 00              add         byte ptr [eax],al
  00405AB4: 00 E0              add         al,ah
  00405AB6: 00 00              add         byte ptr [eax],al
  00405AB8: 00 E0              add         al,ah
  00405ABA: 00 00              add         byte ptr [eax],al
  00405ABC: 00 E0              add         al,ah
  00405ABE: 00 00              add         byte ptr [eax],al
  00405AC0: 00 E0              add         al,ah
  00405AC2: 00 00              add         byte ptr [eax],al
  00405AC4: 00 E0              add         al,ah
  00405AC6: 00 00              add         byte ptr [eax],al
  00405AC8: 00 E0              add         al,ah
  00405ACA: 00 00              add         byte ptr [eax],al
  00405ACC: 00 E0              add         al,ah
  00405ACE: 00 00              add         byte ptr [eax],al
  00405AD0: 00 E0              add         al,ah
  00405AD2: 00 00              add         byte ptr [eax],al
  00405AD4: 00 E0              add         al,ah
  00405AD6: 00 00              add         byte ptr [eax],al
  00405AD8: 00 E0              add         al,ah
  00405ADA: 00 00              add         byte ptr [eax],al
  00405ADC: 00 E0              add         al,ah
  00405ADE: 00 00              add         byte ptr [eax],al
  00405AE0: 00 E0              add         al,ah
  00405AE2: 00 00              add         byte ptr [eax],al
  00405AE4: 00 E0              add         al,ah
  00405AE6: 00 00              add         byte ptr [eax],al
  00405AE8: 00 00              add         byte ptr [eax],al
  00405AEA: 00 00              add         byte ptr [eax],al
  00405AEC: 00 00              add         byte ptr [eax],al
  00405AEE: E0 00              loopne      00405AF0
  00405AF0: 00 00              add         byte ptr [eax],al
  00405AF2: E0 00              loopne      00405AF4
  00405AF4: 00 00              add         byte ptr [eax],al
  00405AF6: E0 00              loopne      00405AF8
  00405AF8: 00 00              add         byte ptr [eax],al
  00405AFA: E0 00              loopne      00405AFC
  00405AFC: 00 00              add         byte ptr [eax],al
  00405AFE: E0 00              loopne      00405B00
  00405B00: 00 00              add         byte ptr [eax],al
  00405B02: E0 00              loopne      00405B04
  00405B04: 00 00              add         byte ptr [eax],al
  00405B06: E0 00              loopne      00405B08
  00405B08: 00 00              add         byte ptr [eax],al
  00405B0A: E0 00              loopne      00405B0C
  00405B0C: 00 00              add         byte ptr [eax],al
  00405B0E: E0 00              loopne      00405B10
  00405B10: 00 00              add         byte ptr [eax],al
  00405B12: E0 00              loopne      00405B14
  00405B14: 00 00              add         byte ptr [eax],al
  00405B16: E0 00              loopne      00405B18
  00405B18: 00 00              add         byte ptr [eax],al
  00405B1A: E0 00              loopne      00405B1C
  00405B1C: 00 00              add         byte ptr [eax],al
  00405B1E: E0 00              loopne      00405B20
  00405B20: 00 00              add         byte ptr [eax],al
  00405B22: E0 00              loopne      00405B24
  00405B24: 00 00              add         byte ptr [eax],al
  00405B26: E0 00              loopne      00405B28
  00405B28: 00 00              add         byte ptr [eax],al
  00405B2A: E0 00              loopne      00405B2C
  00405B2C: 00 00              add         byte ptr [eax],al
  00405B2E: E0 00              loopne      00405B30
  00405B30: 00 00              add         byte ptr [eax],al
  00405B32: E0 00              loopne      00405B34
  00405B34: 00 00              add         byte ptr [eax],al
  00405B36: E0 00              loopne      00405B38
  00405B38: 00 00              add         byte ptr [eax],al
  00405B3A: E0 00              loopne      00405B3C
  00405B3C: 00 00              add         byte ptr [eax],al
  00405B3E: E0 00              loopne      00405B40
  00405B40: 00 00              add         byte ptr [eax],al
  00405B42: E0 00              loopne      00405B44
  00405B44: 00 00              add         byte ptr [eax],al
  00405B46: E0 00              loopne      00405B48
  00405B48: 00 00              add         byte ptr [eax],al
  00405B4A: E0 00              loopne      00405B4C
  00405B4C: 00 00              add         byte ptr [eax],al
  00405B4E: E0 00              loopne      00405B50
  00405B50: 00 00              add         byte ptr [eax],al
  00405B52: 00 00              add         byte ptr [eax],al
  00405B54: 00 00              add         byte ptr [eax],al
  00405B56: 00 E0              add         al,ah
  00405B58: 00 00              add         byte ptr [eax],al
  00405B5A: 00 E0              add         al,ah
  00405B5C: 00 00              add         byte ptr [eax],al
  00405B5E: 00 E0              add         al,ah
  00405B60: 00 00              add         byte ptr [eax],al
  00405B62: 00 E0              add         al,ah
  00405B64: 00 00              add         byte ptr [eax],al
  00405B66: 00 E0              add         al,ah
  00405B68: 00 00              add         byte ptr [eax],al
  00405B6A: 00 E0              add         al,ah
  00405B6C: 00 00              add         byte ptr [eax],al
  00405B6E: 00 E0              add         al,ah
  00405B70: 00 00              add         byte ptr [eax],al
  00405B72: 00 E0              add         al,ah
  00405B74: 00 00              add         byte ptr [eax],al
  00405B76: 00 E0              add         al,ah
  00405B78: 00 00              add         byte ptr [eax],al
  00405B7A: 00 E0              add         al,ah
  00405B7C: 00 00              add         byte ptr [eax],al
  00405B7E: 00 E0              add         al,ah
  00405B80: 00 00              add         byte ptr [eax],al
  00405B82: 00 E0              add         al,ah
  00405B84: 00 00              add         byte ptr [eax],al
  00405B86: 00 E0              add         al,ah
  00405B88: 00 00              add         byte ptr [eax],al
  00405B8A: 00 E0              add         al,ah
  00405B8C: 00 00              add         byte ptr [eax],al
  00405B8E: 00 E0              add         al,ah
  00405B90: 00 00              add         byte ptr [eax],al
  00405B92: 00 E0              add         al,ah
  00405B94: 00 00              add         byte ptr [eax],al
  00405B96: 00 E0              add         al,ah
  00405B98: 00 00              add         byte ptr [eax],al
  00405B9A: 00 E0              add         al,ah
  00405B9C: 00 00              add         byte ptr [eax],al
  00405B9E: 00 E0              add         al,ah
  00405BA0: 00 00              add         byte ptr [eax],al
  00405BA2: 00 E0              add         al,ah
  00405BA4: 00 00              add         byte ptr [eax],al
  00405BA6: 00 E0              add         al,ah
  00405BA8: 00 00              add         byte ptr [eax],al
  00405BAA: 00 E0              add         al,ah
  00405BAC: 00 00              add         byte ptr [eax],al
  00405BAE: 00 E0              add         al,ah
  00405BB0: 00 00              add         byte ptr [eax],al
  00405BB2: 00 E0              add         al,ah
  00405BB4: 00 00              add         byte ptr [eax],al
  00405BB6: 00 E0              add         al,ah
  00405BB8: 00 00              add         byte ptr [eax],al
  00405BBA: 00 00              add         byte ptr [eax],al
  00405BBC: 00 00              add         byte ptr [eax],al
  00405BBE: 00 00              add         byte ptr [eax],al
  00405BC0: E0 00              loopne      00405BC2
  00405BC2: 00 00              add         byte ptr [eax],al
  00405BC4: E0 00              loopne      00405BC6
  00405BC6: 00 00              add         byte ptr [eax],al
  00405BC8: E0 00              loopne      00405BCA
  00405BCA: 00 00              add         byte ptr [eax],al
  00405BCC: E0 00              loopne      00405BCE
  00405BCE: 00 00              add         byte ptr [eax],al
  00405BD0: E0 00              loopne      00405BD2
  00405BD2: 00 00              add         byte ptr [eax],al
  00405BD4: E0 00              loopne      00405BD6
  00405BD6: 00 00              add         byte ptr [eax],al
  00405BD8: E0 00              loopne      00405BDA
  00405BDA: 00 00              add         byte ptr [eax],al
  00405BDC: E0 00              loopne      00405BDE
  00405BDE: 00 00              add         byte ptr [eax],al
  00405BE0: E0 00              loopne      00405BE2
  00405BE2: 00 00              add         byte ptr [eax],al
  00405BE4: E0 00              loopne      00405BE6
  00405BE6: 00 00              add         byte ptr [eax],al
  00405BE8: E0 00              loopne      00405BEA
  00405BEA: 00 00              add         byte ptr [eax],al
  00405BEC: E0 00              loopne      00405BEE
  00405BEE: 00 00              add         byte ptr [eax],al
  00405BF0: E0 00              loopne      00405BF2
  00405BF2: 00 00              add         byte ptr [eax],al
  00405BF4: E0 00              loopne      00405BF6
  00405BF6: 00 00              add         byte ptr [eax],al
  00405BF8: E0 00              loopne      00405BFA
  00405BFA: 00 00              add         byte ptr [eax],al
  00405BFC: E0 00              loopne      00405BFE
  00405BFE: 00 00              add         byte ptr [eax],al
  00405C00: E0 00              loopne      00405C02
  00405C02: 00 00              add         byte ptr [eax],al
  00405C04: E0 00              loopne      00405C06
  00405C06: 00 00              add         byte ptr [eax],al
  00405C08: E0 00              loopne      00405C0A
  00405C0A: 00 00              add         byte ptr [eax],al
  00405C0C: E0 00              loopne      00405C0E
  00405C0E: 00 00              add         byte ptr [eax],al
  00405C10: E0 00              loopne      00405C12
  00405C12: 00 00              add         byte ptr [eax],al
  00405C14: E0 00              loopne      00405C16
  00405C16: 00 00              add         byte ptr [eax],al
  00405C18: E0 00              loopne      00405C1A
  00405C1A: 00 00              add         byte ptr [eax],al
  00405C1C: E0 00              loopne      00405C1E
  00405C1E: 00 00              add         byte ptr [eax],al
  00405C20: E0 00              loopne      00405C22
  00405C22: 00 00              add         byte ptr [eax],al
  00405C24: 00 00              add         byte ptr [eax],al
  00405C26: 00 00              add         byte ptr [eax],al
  00405C28: 00 E0              add         al,ah
  00405C2A: 00 00              add         byte ptr [eax],al
  00405C2C: 00 E0              add         al,ah
  00405C2E: 00 00              add         byte ptr [eax],al
  00405C30: 00 E0              add         al,ah
  00405C32: 00 00              add         byte ptr [eax],al
  00405C34: 00 E0              add         al,ah
  00405C36: 00 00              add         byte ptr [eax],al
  00405C38: 00 E0              add         al,ah
  00405C3A: 00 00              add         byte ptr [eax],al
  00405C3C: 00 E0              add         al,ah
  00405C3E: 00 00              add         byte ptr [eax],al
  00405C40: 00 E0              add         al,ah
  00405C42: 00 00              add         byte ptr [eax],al
  00405C44: 00 E0              add         al,ah
  00405C46: 00 00              add         byte ptr [eax],al
  00405C48: 00 E0              add         al,ah
  00405C4A: 00 00              add         byte ptr [eax],al
  00405C4C: 00 E0              add         al,ah
  00405C4E: 00 00              add         byte ptr [eax],al
  00405C50: 00 E0              add         al,ah
  00405C52: 00 00              add         byte ptr [eax],al
  00405C54: 00 E0              add         al,ah
  00405C56: 00 00              add         byte ptr [eax],al
  00405C58: 00 E0              add         al,ah
  00405C5A: 00 00              add         byte ptr [eax],al
  00405C5C: 00 E0              add         al,ah
  00405C5E: 00 00              add         byte ptr [eax],al
  00405C60: 00 E0              add         al,ah
  00405C62: 00 00              add         byte ptr [eax],al
  00405C64: 00 E0              add         al,ah
  00405C66: 00 00              add         byte ptr [eax],al
  00405C68: 00 E0              add         al,ah
  00405C6A: 00 00              add         byte ptr [eax],al
  00405C6C: 00 E0              add         al,ah
  00405C6E: 00 00              add         byte ptr [eax],al
  00405C70: 00 E0              add         al,ah
  00405C72: 00 00              add         byte ptr [eax],al
  00405C74: 00 E0              add         al,ah
  00405C76: 00 00              add         byte ptr [eax],al
  00405C78: 00 E0              add         al,ah
  00405C7A: 00 00              add         byte ptr [eax],al
  00405C7C: 00 E0              add         al,ah
  00405C7E: 00 00              add         byte ptr [eax],al
  00405C80: 00 E0              add         al,ah
  00405C82: 00 00              add         byte ptr [eax],al
  00405C84: 00 E0              add         al,ah
  00405C86: 00 00              add         byte ptr [eax],al
  00405C88: 00 E0              add         al,ah
  00405C8A: 00 00              add         byte ptr [eax],al
  00405C8C: 00 00              add         byte ptr [eax],al
  00405C8E: 00 00              add         byte ptr [eax],al
  00405C90: 00 00              add         byte ptr [eax],al
  00405C92: E0 00              loopne      00405C94
  00405C94: 00 00              add         byte ptr [eax],al
  00405C96: E0 00              loopne      00405C98
  00405C98: 00 00              add         byte ptr [eax],al
  00405C9A: E0 00              loopne      00405C9C
  00405C9C: 00 00              add         byte ptr [eax],al
  00405C9E: E0 00              loopne      00405CA0
  00405CA0: 00 00              add         byte ptr [eax],al
  00405CA2: E0 00              loopne      00405CA4
  00405CA4: 00 00              add         byte ptr [eax],al
  00405CA6: E0 00              loopne      00405CA8
  00405CA8: 00 00              add         byte ptr [eax],al
  00405CAA: E0 00              loopne      00405CAC
  00405CAC: 00 00              add         byte ptr [eax],al
  00405CAE: E0 00              loopne      00405CB0
  00405CB0: 00 00              add         byte ptr [eax],al
  00405CB2: E0 00              loopne      00405CB4
  00405CB4: 00 00              add         byte ptr [eax],al
  00405CB6: E0 00              loopne      00405CB8
  00405CB8: 00 00              add         byte ptr [eax],al
  00405CBA: E0 00              loopne      00405CBC
  00405CBC: 00 00              add         byte ptr [eax],al
  00405CBE: E0 00              loopne      00405CC0
  00405CC0: 00 00              add         byte ptr [eax],al
  00405CC2: E0 00              loopne      00405CC4
  00405CC4: 00 00              add         byte ptr [eax],al
  00405CC6: E0 00              loopne      00405CC8
  00405CC8: 00 00              add         byte ptr [eax],al
  00405CCA: E0 00              loopne      00405CCC
  00405CCC: 00 00              add         byte ptr [eax],al
  00405CCE: E0 00              loopne      00405CD0
  00405CD0: 00 00              add         byte ptr [eax],al
  00405CD2: E0 00              loopne      00405CD4
  00405CD4: 00 00              add         byte ptr [eax],al
  00405CD6: E0 00              loopne      00405CD8
  00405CD8: 00 00              add         byte ptr [eax],al
  00405CDA: E0 00              loopne      00405CDC
  00405CDC: 00 00              add         byte ptr [eax],al
  00405CDE: E0 00              loopne      00405CE0
  00405CE0: 00 00              add         byte ptr [eax],al
  00405CE2: E0 00              loopne      00405CE4
  00405CE4: 00 00              add         byte ptr [eax],al
  00405CE6: E0 00              loopne      00405CE8
  00405CE8: 00 00              add         byte ptr [eax],al
  00405CEA: E0 00              loopne      00405CEC
  00405CEC: 00 00              add         byte ptr [eax],al
  00405CEE: E0 00              loopne      00405CF0
  00405CF0: 00 00              add         byte ptr [eax],al
  00405CF2: E0 00              loopne      00405CF4
  00405CF4: 00 00              add         byte ptr [eax],al
  00405CF6: 00 00              add         byte ptr [eax],al
  00405CF8: 00 00              add         byte ptr [eax],al
  00405CFA: 00 E0              add         al,ah
  00405CFC: 00 00              add         byte ptr [eax],al
  00405CFE: 00 E0              add         al,ah
  00405D00: 00 00              add         byte ptr [eax],al
  00405D02: 00 E0              add         al,ah
  00405D04: 00 00              add         byte ptr [eax],al
  00405D06: 00 E0              add         al,ah
  00405D08: 00 00              add         byte ptr [eax],al
  00405D0A: 00 E0              add         al,ah
  00405D0C: 00 00              add         byte ptr [eax],al
  00405D0E: 00 E0              add         al,ah
  00405D10: 00 00              add         byte ptr [eax],al
  00405D12: 00 E0              add         al,ah
  00405D14: 00 00              add         byte ptr [eax],al
  00405D16: 00 E0              add         al,ah
  00405D18: 00 00              add         byte ptr [eax],al
  00405D1A: 00 E0              add         al,ah
  00405D1C: 00 00              add         byte ptr [eax],al
  00405D1E: 00 E0              add         al,ah
  00405D20: 00 00              add         byte ptr [eax],al
  00405D22: 00 E0              add         al,ah
  00405D24: 00 00              add         byte ptr [eax],al
  00405D26: 00 E0              add         al,ah
  00405D28: 00 00              add         byte ptr [eax],al
  00405D2A: 00 E0              add         al,ah
  00405D2C: 00 00              add         byte ptr [eax],al
  00405D2E: 00 E0              add         al,ah
  00405D30: 00 00              add         byte ptr [eax],al
  00405D32: 00 E0              add         al,ah
  00405D34: 00 00              add         byte ptr [eax],al
  00405D36: 00 E0              add         al,ah
  00405D38: 00 00              add         byte ptr [eax],al
  00405D3A: 00 E0              add         al,ah
  00405D3C: 00 00              add         byte ptr [eax],al
  00405D3E: 00 E0              add         al,ah
  00405D40: 00 00              add         byte ptr [eax],al
  00405D42: 00 E0              add         al,ah
  00405D44: 00 00              add         byte ptr [eax],al
  00405D46: 00 E0              add         al,ah
  00405D48: 00 00              add         byte ptr [eax],al
  00405D4A: 00 E0              add         al,ah
  00405D4C: 00 00              add         byte ptr [eax],al
  00405D4E: 00 E0              add         al,ah
  00405D50: 00 00              add         byte ptr [eax],al
  00405D52: 00 E0              add         al,ah
  00405D54: 00 00              add         byte ptr [eax],al
  00405D56: 00 E0              add         al,ah
  00405D58: 00 00              add         byte ptr [eax],al
  00405D5A: 00 E0              add         al,ah
  00405D5C: 00 00              add         byte ptr [eax],al
  00405D5E: 00 00              add         byte ptr [eax],al
  00405D60: 00 00              add         byte ptr [eax],al
  00405D62: 00 00              add         byte ptr [eax],al
  00405D64: E0 00              loopne      00405D66
  00405D66: 00 00              add         byte ptr [eax],al
  00405D68: E0 00              loopne      00405D6A
  00405D6A: 00 00              add         byte ptr [eax],al
  00405D6C: E0 00              loopne      00405D6E
  00405D6E: 00 00              add         byte ptr [eax],al
  00405D70: E0 00              loopne      00405D72
  00405D72: 00 00              add         byte ptr [eax],al
  00405D74: E0 00              loopne      00405D76
  00405D76: 00 00              add         byte ptr [eax],al
  00405D78: E0 00              loopne      00405D7A
  00405D7A: 00 00              add         byte ptr [eax],al
  00405D7C: E0 00              loopne      00405D7E
  00405D7E: 00 00              add         byte ptr [eax],al
  00405D80: E0 00              loopne      00405D82
  00405D82: 00 00              add         byte ptr [eax],al
  00405D84: E0 00              loopne      00405D86
  00405D86: 00 00              add         byte ptr [eax],al
  00405D88: E0 00              loopne      00405D8A
  00405D8A: 00 00              add         byte ptr [eax],al
  00405D8C: E0 00              loopne      00405D8E
  00405D8E: 00 00              add         byte ptr [eax],al
  00405D90: E0 00              loopne      00405D92
  00405D92: 00 00              add         byte ptr [eax],al
  00405D94: E0 00              loopne      00405D96
  00405D96: 00 00              add         byte ptr [eax],al
  00405D98: E0 00              loopne      00405D9A
  00405D9A: 00 00              add         byte ptr [eax],al
  00405D9C: E0 00              loopne      00405D9E
  00405D9E: 00 00              add         byte ptr [eax],al
  00405DA0: E0 00              loopne      00405DA2
  00405DA2: 00 00              add         byte ptr [eax],al
  00405DA4: E0 00              loopne      00405DA6
  00405DA6: 00 00              add         byte ptr [eax],al
  00405DA8: E0 00              loopne      00405DAA
  00405DAA: 00 00              add         byte ptr [eax],al
  00405DAC: E0 00              loopne      00405DAE
  00405DAE: 00 00              add         byte ptr [eax],al
  00405DB0: E0 00              loopne      00405DB2
  00405DB2: 00 00              add         byte ptr [eax],al
  00405DB4: E0 00              loopne      00405DB6
  00405DB6: 00 00              add         byte ptr [eax],al
  00405DB8: E0 00              loopne      00405DBA
  00405DBA: 00 00              add         byte ptr [eax],al
  00405DBC: E0 00              loopne      00405DBE
  00405DBE: 00 00              add         byte ptr [eax],al
  00405DC0: E0 00              loopne      00405DC2
  00405DC2: 00 00              add         byte ptr [eax],al
  00405DC4: E0 00              loopne      00405DC6
  00405DC6: 00 00              add         byte ptr [eax],al
  00405DC8: 00 00              add         byte ptr [eax],al
  00405DCA: 00 00              add         byte ptr [eax],al
  00405DCC: 00 E0              add         al,ah
  00405DCE: 00 00              add         byte ptr [eax],al
  00405DD0: 00 E0              add         al,ah
  00405DD2: 00 00              add         byte ptr [eax],al
  00405DD4: 00 E0              add         al,ah
  00405DD6: 00 00              add         byte ptr [eax],al
  00405DD8: 00 E0              add         al,ah
  00405DDA: 00 00              add         byte ptr [eax],al
  00405DDC: 00 E0              add         al,ah
  00405DDE: 00 00              add         byte ptr [eax],al
  00405DE0: 00 E0              add         al,ah
  00405DE2: 00 00              add         byte ptr [eax],al
  00405DE4: 00 E0              add         al,ah
  00405DE6: 00 00              add         byte ptr [eax],al
  00405DE8: 00 E0              add         al,ah
  00405DEA: 00 00              add         byte ptr [eax],al
  00405DEC: 00 E0              add         al,ah
  00405DEE: 00 00              add         byte ptr [eax],al
  00405DF0: 00 E0              add         al,ah
  00405DF2: 00 00              add         byte ptr [eax],al
  00405DF4: 00 E0              add         al,ah
  00405DF6: 00 00              add         byte ptr [eax],al
  00405DF8: 00 E0              add         al,ah
  00405DFA: 00 00              add         byte ptr [eax],al
  00405DFC: 00 E0              add         al,ah
  00405DFE: 00 00              add         byte ptr [eax],al
  00405E00: 00 E0              add         al,ah
  00405E02: 00 00              add         byte ptr [eax],al
  00405E04: 00 E0              add         al,ah
  00405E06: 00 00              add         byte ptr [eax],al
  00405E08: 00 E0              add         al,ah
  00405E0A: 00 00              add         byte ptr [eax],al
  00405E0C: 00 E0              add         al,ah
  00405E0E: 00 00              add         byte ptr [eax],al
  00405E10: 00 E0              add         al,ah
  00405E12: 00 00              add         byte ptr [eax],al
  00405E14: 00 E0              add         al,ah
  00405E16: 00 00              add         byte ptr [eax],al
  00405E18: 00 E0              add         al,ah
  00405E1A: 00 00              add         byte ptr [eax],al
  00405E1C: 00 E0              add         al,ah
  00405E1E: 00 00              add         byte ptr [eax],al
  00405E20: 00 E0              add         al,ah
  00405E22: 00 00              add         byte ptr [eax],al
  00405E24: 00 E0              add         al,ah
  00405E26: 00 00              add         byte ptr [eax],al
  00405E28: 00 E0              add         al,ah
  00405E2A: 00 00              add         byte ptr [eax],al
  00405E2C: 00 E0              add         al,ah
  00405E2E: 00 00              add         byte ptr [eax],al
  00405E30: 00 00              add         byte ptr [eax],al
  00405E32: 00 00              add         byte ptr [eax],al
  00405E34: 00 00              add         byte ptr [eax],al
  00405E36: E0 00              loopne      00405E38
  00405E38: 00 00              add         byte ptr [eax],al
  00405E3A: E0 00              loopne      00405E3C
  00405E3C: 00 00              add         byte ptr [eax],al
  00405E3E: E0 00              loopne      00405E40
  00405E40: 00 00              add         byte ptr [eax],al
  00405E42: E0 00              loopne      00405E44
  00405E44: 00 00              add         byte ptr [eax],al
  00405E46: E0 00              loopne      00405E48
  00405E48: 00 00              add         byte ptr [eax],al
  00405E4A: E0 00              loopne      00405E4C
  00405E4C: 00 00              add         byte ptr [eax],al
  00405E4E: E0 00              loopne      00405E50
  00405E50: 00 00              add         byte ptr [eax],al
  00405E52: E0 00              loopne      00405E54
  00405E54: 00 00              add         byte ptr [eax],al
  00405E56: E0 00              loopne      00405E58
  00405E58: 00 00              add         byte ptr [eax],al
  00405E5A: E0 00              loopne      00405E5C
  00405E5C: 00 00              add         byte ptr [eax],al
  00405E5E: E0 00              loopne      00405E60
  00405E60: 00 00              add         byte ptr [eax],al
  00405E62: E0 00              loopne      00405E64
  00405E64: 00 00              add         byte ptr [eax],al
  00405E66: E0 00              loopne      00405E68
  00405E68: 00 00              add         byte ptr [eax],al
  00405E6A: E0 00              loopne      00405E6C
  00405E6C: 00 00              add         byte ptr [eax],al
  00405E6E: 00 02              add         byte ptr [edx],al
  00405E70: 00 00              add         byte ptr [eax],al
  00405E72: E0 00              loopne      00405E74
  00405E74: 00 00              add         byte ptr [eax],al
  00405E76: F0 01 00           lock add    dword ptr [eax],eax
  00405E79: 00 08              add         byte ptr [eax],cl
  00405E7B: 34 FC              xor         al,0FCh
  00405E7D: 34 E0              xor         al,0E0h
  00405E7F: 35 04 35 E8 35     xor         eax,35E83504h
  00405E84: 0C 35              or          al,35h
  00405E86: D0 35 14 35 C8 35  sal         byte ptr ds:[35C83514h],1
  00405E8C: 1C 35              sbb         al,35h
  00405E8E: C0 35 24 35 08 34  sal         byte ptr ds:[34083524h],2Ch
            2C
  00405E95: 35 10 34 34 35     xor         eax,35343410h
  00405E9A: 08 34 3C           or          byte ptr [esp+edi],dh
  00405E9D: 35 20 34 44 35     xor         eax,35443420h
  00405EA2: 28 34 4C           sub         byte ptr [esp+ecx*2],dh
  00405EA5: 35 10 34 54 35     xor         eax,35543410h
  00405EAA: 08 34 5C           or          byte ptr [esp+ebx*2],dh
  00405EAD: 35 40 34 64 35     xor         eax,35643440h
  00405EB2: 08 34 6C           or          byte ptr [esp+ebp*2],dh
  00405EB5: 35 10 34 74 35     xor         eax,35743410h
  00405EBA: 08 34 7C           or          byte ptr [esp+edi*2],dh
  00405EBD: 35 60 34 84 35     xor         eax,35843460h
  00405EC2: 68 34 8C 35 50     push        50358C34h
  00405EC7: 34 94              xor         al,94h
  00405EC9: 35 48 34 9C 35     xor         eax,359C3448h
  00405ECE: 40                 inc         eax
  00405ECF: 34 A4              xor         al,0A4h
  00405ED1: 35 88 34 AC 35     xor         eax,35AC3488h
  00405ED6: 00 00              add         byte ptr [eax],al
  00405ED8: 00 00              add         byte ptr [eax],al
  00405EDA: 00 90 34 B4 35 88  add         byte ptr [eax+8835B434h],dl
  00405EE0: 34 BC              xor         al,0BCh
  00405EE2: 35 C6 35 87 37     xor         eax,378735C6h
  00405EE7: 50                 push        eax
  00405EE8: 36 A1 37 25 36 E2  mov         eax,dword ptr ss:[E2362537h]
  00405EEE: 37                 aaa
  00405EEF: DE 38              fidivr      word ptr [eax]
  00405EF1: 43                 inc         ebx
  00405EF2: 39 7B 38           cmp         dword ptr [ebx+38h],edi
  00405EF5: B0 39              mov         al,39h
  00405EF7: 5A                 pop         edx
  00405EF8: 38 BF 39 28 38 CE  cmp         byte ptr [edi+CE382839h],bh
  00405EFE: 39 13              cmp         dword ptr [ebx],edx
  00405F00: 38 FE              cmp         dh,bh
  00405F02: 39 D8              cmp         eax,ebx
  00405F04: 3A 13              cmp         dl,byte ptr [ebx]
  00405F06: 3A D9              cmp         bl,cl
  00405F08: 3A 3E              cmp         bh,byte ptr [esi]
  00405F0A: 3A A9 3A 53 3A 8E  cmp         ch,byte ptr [ecx+8E3A533Ah]
  00405F10: 3A 64 3A 75        cmp         ah,byte ptr [edx+edi+75h]
  00405F14: 3A 78 3A           cmp         bh,byte ptr [eax+3Ah]
  00405F17: 5D                 pop         ebp
  00405F18: 3B 83 3A 66 3A 93  cmp         eax,dword ptr [ebx+933A663Ah]
  00405F1E: 3A 68 3A           cmp         ch,byte ptr [eax+3Ah]
  00405F21: A3 3A 78 3A B1     mov         dword ptr ds:[B13A783Ah],eax
  00405F26: 3A 77 3A           cmp         dh,byte ptr [edi+3Ah]
  00405F29: DC 3A              fdivr       qword ptr [edx]
  00405F2B: BF 3A F1 3A AC     mov         edi,0AC3AF13Ah
  00405F30: 3A 02              cmp         al,byte ptr [edx]
  00405F32: 3B FF              cmp         edi,edi
  00405F34: 39 32              cmp         dword ptr [edx],esi
  00405F36: 3B DC              cmp         ebx,esp
  00405F38: 39 AB 3B 4D 39 BF  cmp         dword ptr [ebx+BF394D3Bh],ebp
  00405F3E: 3B 00              cmp         eax,dword ptr [eax]
  00405F40: 00 00              add         byte ptr [eax],al
  00405F42: 00 00              add         byte ptr [eax],al
  00405F44: AA                 stos        byte ptr es:[edi]
  00405F45: 39 E2              cmp         edx,esp
  00405F47: 3B 7F 39           cmp         edi,dword ptr [edi+39h]
  00405F4A: 24 3C              and         al,3Ch
  00405F4C: CA 3C 39           retf        393Ch
  00405F4F: 3C 76              cmp         al,76h
  00405F51: 3C 05              cmp         al,5
  00405F53: 3D D6 3B 1E 3D     cmp         eax,3D1E3BD6h
  00405F58: 0E                 push        cs
  00405F59: 3C 68              cmp         al,68h
  00405F5B: 3D 79 3B AD 3D     cmp         eax,3DAD3B79h
  00405F60: 23 3B              and         edi,dword ptr [ebx]
  00405F62: D9 3D 47 3B FB 3D  fnstcw      word ptr ds:[3DFB3B47h]
  00405F68: D9 3E              fnstcw      word ptr [esi]
  00405F6A: AD                 lods        dword ptr [esi]
  00405F6B: 3E 25 3E EE 3E E2  and         eax,0E23EEE3Eh
  00405F71: 3D 0A 3F EF 3D     cmp         eax,3DEF3F0Ah
  00405F76: 4C                 dec         esp
  00405F77: 3F                 aas
  00405F78: 8F
  00405F79: 3D 6B 3F 60 3D     cmp         eax,3D603F6Bh
  00405F7E: 9F                 lahf
  00405F7F: 3F                 aas
  00405F80: 49                 dec         ecx
  00405F81: 3D C5 3F 32 3D     cmp         eax,3D323FC5h
  00405F86: DE 3F              fidivr      word ptr [edi]
  00405F88: 0A 3D 00 00 E0 10  or          bh,byte ptr ds:[10E00000h]
  00405F8E: 00 00              add         byte ptr [eax],al
  00405F90: 78 00              js          00405F92
  00405F92: 00 00              add         byte ptr [eax],al
  00405F94: E2 30              loop        00405FC6
  00405F96: 14 30              adc         al,30h
  00405F98: C4 30              les         esi,fword ptr [eax]
  00405F9A: 26 30 24 31        xor         byte ptr es:[ecx+esi],ah
  00405F9E: 67 30 52 31        xor         byte ptr [bp+si+31h],dl
  00405FA2: 7E 30              jle         00405FD4
  00405FA4: 59                 pop         ecx
  00405FA5: 31 94 30 00 00 00  xor         dword ptr [eax+esi+00000000h],edx
            00
  00405FAC: 00 81 31 B5 30 7F  add         byte ptr [ecx+7F30B531h],al
  00405FB2: 31 E1              xor         ecx,esp
  00405FB4: 30 BF 31 09 31 DE  xor         byte ptr [edi+DE310931h],bh
  00405FBA: 31 14 31           xor         dword ptr [ecx+esi],edx
  00405FBD: C9                 leave
  00405FBE: 31 26              xor         dword ptr [esi],esp
  00405FC0: 31 CD              xor         ebp,ecx
  00405FC2: 31 65 31           xor         dword ptr [ebp+31h],esp
  00405FC5: 0B 32              or          esi,dword ptr [edx]
  00405FC7: 88 31              mov         byte ptr [ecx],dh
  00405FC9: 3E 32 CB           xor         cl,bl
  00405FCC: 31 B0 32 E0 31 85  xor         dword ptr [eax+8531E032h],esi
  00405FD2: 32 EB              xor         ch,bl
  00405FD4: 31 70 32           xor         dword ptr [eax+32h],esi
  00405FD7: 0E                 push        cs
  00405FD8: 32 CB              xor         cl,bl
  00405FDA: 2E 83 32 2C        xor         dword ptr cs:[edx],2Ch
  00405FDE: 2F                 das
  00405FDF: C2 32 2F           ret         2F32h
  00405FE2: 2F                 das
  00405FE3: EA 32 F3 2F 5C 33  jmp         BD33:5C2FF332
            BD
  00405FEA: 2F                 das
  00405FEB: 7A 33              jp          00406020
  00405FED: 5F                 pop         edi
  00405FEE: 30 9D 33 8B 30 B8  xor         byte ptr [ebp+B8308B33h],bl
  00405FF4: 33 1D 30 CC 33 E0  xor         ebx,dword ptr ds:[E033CC30h]
  00405FFA: 34 2B              xor         al,2Bh
  00405FFC: 34 08              xor         al,8
  00405FFE: 35 E5 34 0B 35     xor         eax,350B34E5h
  00406003: F4                 hlt
  00406004: 34 1A              xor         al,1Ah
  00406006: 35 07 35 E0 00     xor         eax,0E03507h
  0040600B: 00 00              add         byte ptr [eax],al
  0040600D: E0 00              loopne      0040600F
  0040600F: 00 00              add         byte ptr [eax],al
  00406011: 00 00              add         byte ptr [eax],al
  00406013: 00 00              add         byte ptr [eax],al
  00406015: 00 E0              add         al,ah
  00406017: 00 00              add         byte ptr [eax],al
  00406019: 00 E0              add         al,ah
  0040601B: 00 00              add         byte ptr [eax],al
  0040601D: 00 E0              add         al,ah
  0040601F: 00 00              add         byte ptr [eax],al
  00406021: 00 E0              add         al,ah
  00406023: 00 00              add         byte ptr [eax],al
  00406025: 00 E0              add         al,ah
  00406027: 00 00              add         byte ptr [eax],al
  00406029: 00 E0              add         al,ah
  0040602B: 00 00              add         byte ptr [eax],al
  0040602D: 00 E0              add         al,ah
  0040602F: 00 00              add         byte ptr [eax],al
  00406031: 00 E0              add         al,ah
  00406033: 00 00              add         byte ptr [eax],al
  00406035: 00 E0              add         al,ah
  00406037: 00 00              add         byte ptr [eax],al
  00406039: 00 E0              add         al,ah
  0040603B: 00 00              add         byte ptr [eax],al
  0040603D: 00 E0              add         al,ah
  0040603F: 00 00              add         byte ptr [eax],al
  00406041: 00 E0              add         al,ah
  00406043: 00 00              add         byte ptr [eax],al
  00406045: 00 E0              add         al,ah
  00406047: 00 00              add         byte ptr [eax],al
  00406049: 00 E0              add         al,ah
  0040604B: 00 00              add         byte ptr [eax],al
  0040604D: 00 E0              add         al,ah
  0040604F: 00 00              add         byte ptr [eax],al
  00406051: 00 E0              add         al,ah
  00406053: 00 00              add         byte ptr [eax],al
  00406055: 00 E0              add         al,ah
  00406057: 00 00              add         byte ptr [eax],al
  00406059: 00 E0              add         al,ah
  0040605B: 00 00              add         byte ptr [eax],al
  0040605D: 00 E0              add         al,ah
  0040605F: 00 00              add         byte ptr [eax],al
  00406061: 00 E0              add         al,ah
  00406063: 00 00              add         byte ptr [eax],al
  00406065: 00 E0              add         al,ah
  00406067: 00 00              add         byte ptr [eax],al
  00406069: 00 E0              add         al,ah
  0040606B: 00 00              add         byte ptr [eax],al
  0040606D: 00 E0              add         al,ah
  0040606F: 00 00              add         byte ptr [eax],al
  00406071: 00 E0              add         al,ah
  00406073: 00 00              add         byte ptr [eax],al
  00406075: 00 E0              add         al,ah
  00406077: 00 00              add         byte ptr [eax],al
  00406079: 00 00              add         byte ptr [eax],al
  0040607B: 00 00              add         byte ptr [eax],al
  0040607D: 00 00              add         byte ptr [eax],al
  0040607F: E0 00              loopne      00406081
  00406081: 00 00              add         byte ptr [eax],al
  00406083: E0 00              loopne      00406085
  00406085: 00 00              add         byte ptr [eax],al
  00406087: E0 00              loopne      00406089
  00406089: 00 00              add         byte ptr [eax],al

  Summary

        1000 .data
        2000 .rdata
        4000 .rsrc
        1000 .text
        3000 1
        1000 2
        1000 3

C:\Program Files (x86)\Microsoft Visual Studio\2019\Community\VC\Tools\MSVC\14.29.30133\bin\Hostx64\x86>