Microsoft Windows [Version 10.0.19044.1586]
(c) Microsoft Corporation. All rights reserved.

C:\Users\mfati\Documents\GitHub\GradProject\disassembler_opcodes>c:

C:\Users\mfati\Documents\GitHub\GradProject\disassembler_opcodes>cd C:\Program Files (x86)\Microsoft Visual Studio\2019\Community\VC\Tools\MSVC\14.29.30133\bin\Hostx64\x86

C:\Program Files (x86)\Microsoft Visual Studio\2019\Community\VC\Tools\MSVC\14.29.30133\bin\Hostx64\x86>dumpbin /DISASM C:\Users\mfati\Documents\GitHub\GradProject\disassembler_opcodes\RansomwareTestData\VirusShare_0b1c34868e664bd0cb2aeb096833b88d
Microsoft (R) COFF/PE Dumper Version 14.29.30133.0
Copyright (C) Microsoft Corporation.  All rights reserved.


Dump of file C:\Users\mfati\Documents\GitHub\GradProject\disassembler_opcodes\RansomwareTestData\VirusShare_0b1c34868e664bd0cb2aeb096833b88d

File Type: EXECUTABLE IMAGE

  00401000: 55                 push        ebp
  00401001: 8B EC              mov         ebp,esp
  00401003: 83 EC 5C           sub         esp,5Ch
  00401006: 83 7D 0C 0F        cmp         dword ptr [ebp+0Ch],0Fh
  0040100A: 74 2B              je          00401037
  0040100C: 83 7D 0C 46        cmp         dword ptr [ebp+0Ch],46h
  00401010: 8B 45 14           mov         eax,dword ptr [ebp+14h]
  00401013: 75 0D              jne         00401022
  00401015: 83 48 18 10        or          dword ptr [eax+18h],10h
  00401019: 8B 0D 68 EB 42 00  mov         ecx,dword ptr ds:[0042EB68h]
  0040101F: 89 48 04           mov         dword ptr [eax+4],ecx
  00401022: 50                 push        eax
  00401023: FF 75 10           push        dword ptr [ebp+10h]
  00401026: FF 75 0C           push        dword ptr [ebp+0Ch]
  00401029: FF 75 08           push        dword ptr [ebp+8]
  0040102C: FF 15 48 72 40 00  call        dword ptr ds:[00407248h]
  00401032: E9 42 01 00 00     jmp         00401179
  00401037: 53                 push        ebx
  00401038: 56                 push        esi
  00401039: 8B 35 70 EB 42 00  mov         esi,dword ptr ds:[0042EB70h]
  0040103F: 8D 45 A4           lea         eax,[ebp-5Ch]
  00401042: 57                 push        edi
  00401043: 50                 push        eax
  00401044: FF 75 08           push        dword ptr [ebp+8]
  00401047: FF 15 4C 72 40 00  call        dword ptr ds:[0040724Ch]
  0040104D: 83 65 F4 00        and         dword ptr [ebp-0Ch],0
  00401051: 89 45 0C           mov         dword ptr [ebp+0Ch],eax
  00401054: 8D 45 E4           lea         eax,[ebp-1Ch]
  00401057: 50                 push        eax
  00401058: FF 75 08           push        dword ptr [ebp+8]
  0040105B: FF 15 50 72 40 00  call        dword ptr ds:[00407250h]
  00401061: 8B 7D F0           mov         edi,dword ptr [ebp-10h]
  00401064: 83 65 F0 00        and         dword ptr [ebp-10h],0
  00401068: 8B 1D 44 70 40 00  mov         ebx,dword ptr ds:[00407044h]
  0040106E: E9 80 00 00 00     jmp         004010F3
  00401073: 0F B6 46 52        movzx       eax,byte ptr [esi+52h]
  00401077: 0F B6 56 56        movzx       edx,byte ptr [esi+56h]
  0040107B: 0F AF 55 E8        imul        edx,dword ptr [ebp-18h]
  0040107F: 8B CF              mov         ecx,edi
  00401081: 2B 4D E8           sub         ecx,dword ptr [ebp-18h]
  00401084: 0F AF C1           imul        eax,ecx
  00401087: 03 C2              add         eax,edx
  00401089: 89 4D 10           mov         dword ptr [ebp+10h],ecx
  0040108C: 99                 cdq
  0040108D: F7 FF              idiv        eax,edi
  0040108F: 33 D2              xor         edx,edx
  00401091: 8A F0              mov         dh,al
  00401093: 0F B6 46 51        movzx       eax,byte ptr [esi+51h]
  00401097: 0F AF C1           imul        eax,ecx
  0040109A: 0F B6 4E 55        movzx       ecx,byte ptr [esi+55h]
  0040109E: 0F AF 4D E8        imul        ecx,dword ptr [ebp-18h]
  004010A2: 03 C1              add         eax,ecx
  004010A4: 8B CA              mov         ecx,edx
  004010A6: 99                 cdq
  004010A7: F7 FF              idiv        eax,edi
  004010A9: 0F B6 56 54        movzx       edx,byte ptr [esi+54h]
  004010AD: 0F AF 55 E8        imul        edx,dword ptr [ebp-18h]
  004010B1: 8A C8              mov         cl,al
  004010B3: 0F B6 46 50        movzx       eax,byte ptr [esi+50h]
  004010B7: 0F AF 45 10        imul        eax,dword ptr [ebp+10h]
  004010BB: 03 C2              add         eax,edx
  004010BD: 99                 cdq
  004010BE: F7 FF              idiv        eax,edi
  004010C0: C1 E1 08           shl         ecx,8
  004010C3: 0F B6 C0           movzx       eax,al
  004010C6: 0B C8              or          ecx,eax
  004010C8: 8D 45 F4           lea         eax,[ebp-0Ch]
  004010CB: 50                 push        eax
  004010CC: 89 4D F8           mov         dword ptr [ebp-8],ecx
  004010CF: FF 15 48 70 40 00  call        dword ptr ds:[00407048h]
  004010D5: 83 45 F0 04        add         dword ptr [ebp-10h],4
  004010D9: 89 45 14           mov         dword ptr [ebp+14h],eax
  004010DC: 50                 push        eax
  004010DD: 8D 45 E4           lea         eax,[ebp-1Ch]
  004010E0: 50                 push        eax
  004010E1: FF 75 0C           push        dword ptr [ebp+0Ch]
  004010E4: FF 15 54 72 40 00  call        dword ptr ds:[00407254h]
  004010EA: FF 75 14           push        dword ptr [ebp+14h]
  004010ED: FF D3              call        ebx
  004010EF: 83 45 E8 04        add         dword ptr [ebp-18h],4
  004010F3: 39 7D E8           cmp         dword ptr [ebp-18h],edi
  004010F6: 0F 8C 77 FF FF FF  jl          00401073
  004010FC: 83 7E 58 FF        cmp         dword ptr [esi+58h],0FFFFFFFFh
  00401100: 74 65              je          00401167
  00401102: FF 76 34           push        dword ptr [esi+34h]
  00401105: FF 15 4C 70 40 00  call        dword ptr ds:[0040704Ch]
  0040110B: 85 C0              test        eax,eax
  0040110D: 89 45 14           mov         dword ptr [ebp+14h],eax
  00401110: 74 55              je          00401167
  00401112: 8B 7D 0C           mov         edi,dword ptr [ebp+0Ch]
  00401115: 6A 01              push        1
  00401117: 57                 push        edi
  00401118: C7 45 E4 10 00 00  mov         dword ptr [ebp-1Ch],10h
            00
  0040111F: C7 45 E8 08 00 00  mov         dword ptr [ebp-18h],8
            00
  00401126: FF 15 50 70 40 00  call        dword ptr ds:[00407050h]
  0040112C: FF 76 58           push        dword ptr [esi+58h]
  0040112F: 57                 push        edi
  00401130: FF 15 54 70 40 00  call        dword ptr ds:[00407054h]
  00401136: FF 75 14           push        dword ptr [ebp+14h]
  00401139: 8B 35 58 70 40 00  mov         esi,dword ptr ds:[00407058h]
  0040113F: 57                 push        edi
  00401140: FF D6              call        esi
  00401142: 89 45 0C           mov         dword ptr [ebp+0Ch],eax
  00401145: 8D 45 E4           lea         eax,[ebp-1Ch]
  00401148: 68 20 08 00 00     push        820h
  0040114D: 50                 push        eax
  0040114E: 6A FF              push        0FFFFFFFFh
  00401150: 68 60 E3 42 00     push        42E360h
  00401155: 57                 push        edi
  00401156: FF 15 58 72 40 00  call        dword ptr ds:[00407258h]
  0040115C: FF 75 0C           push        dword ptr [ebp+0Ch]
  0040115F: 57                 push        edi
  00401160: FF D6              call        esi
  00401162: FF 75 14           push        dword ptr [ebp+14h]
  00401165: FF D3              call        ebx
  00401167: 8D 45 A4           lea         eax,[ebp-5Ch]
  0040116A: 50                 push        eax
  0040116B: FF 75 08           push        dword ptr [ebp+8]
  0040116E: FF 15 5C 72 40 00  call        dword ptr ds:[0040725Ch]
  00401174: 5F                 pop         edi
  00401175: 5E                 pop         esi
  00401176: 33 C0              xor         eax,eax
  00401178: 5B                 pop         ebx
  00401179: C9                 leave
  0040117A: C2 10 00           ret         10h
  0040117D: 8B 4C 24 04        mov         ecx,dword ptr [esp+4]
  00401181: A1 88 EB 42 00     mov         eax,dword ptr ds:[0042EB88h]
  00401186: 8B D1              mov         edx,ecx
  00401188: 53                 push        ebx
  00401189: 69 D2 18 04 00 00  imul        edx,edx,418h
  0040118F: 56                 push        esi
  00401190: 57                 push        edi
  00401191: 8B 54 02 08        mov         edx,dword ptr [edx+eax+8]
  00401195: F6 C2 02           test        dl,2
  00401198: 74 4F              je          004011E9
  0040119A: 8D 71 01           lea         esi,[ecx+1]
  0040119D: 33 FF              xor         edi,edi
  0040119F: 3B 35 8C EB 42 00  cmp         esi,dword ptr ds:[0042EB8Ch]
  004011A5: 73 42              jae         004011E9
  004011A7: 8B CE              mov         ecx,esi
  004011A9: 69 C9 18 04 00 00  imul        ecx,ecx,418h
  004011AF: 8D 44 01 08        lea         eax,[ecx+eax+8]
  004011B3: 8B 08              mov         ecx,dword ptr [eax]
  004011B5: F6 C1 02           test        cl,2
  004011B8: 74 03              je          004011BD
  004011BA: 47                 inc         edi
  004011BB: EB 1E              jmp         004011DB
  004011BD: F6 C1 04           test        cl,4
  004011C0: 74 09              je          004011CB
  004011C2: 8B CF              mov         ecx,edi
  004011C4: 4F                 dec         edi
  004011C5: 85 C9              test        ecx,ecx
  004011C7: 74 20              je          004011E9
  004011C9: EB 10              jmp         004011DB
  004011CB: F6 C1 10           test        cl,10h
  004011CE: 75 0B              jne         004011DB
  004011D0: 8B D9              mov         ebx,ecx
  004011D2: 33 DA              xor         ebx,edx
  004011D4: 83 E3 01           and         ebx,1
  004011D7: 33 D9              xor         ebx,ecx
  004011D9: 89 18              mov         dword ptr [eax],ebx
  004011DB: 46                 inc         esi
  004011DC: 05 18 04 00 00     add         eax,418h
  004011E1: 3B 35 8C EB 42 00  cmp         esi,dword ptr ds:[0042EB8Ch]
  004011E7: 72 CA              jb          004011B3
  004011E9: 5F                 pop         edi
  004011EA: 5E                 pop         esi
  004011EB: 5B                 pop         ebx
  004011EC: C2 04 00           ret         4
  004011EF: 55                 push        ebp
  004011F0: 8B EC              mov         ebp,esp
  004011F2: 51                 push        ecx
  004011F3: 51                 push        ecx
  004011F4: 8B 55 08           mov         edx,dword ptr [ebp+8]
  004011F7: 53                 push        ebx
  004011F8: 56                 push        esi
  004011F9: 8B F2              mov         esi,edx
  004011FB: 69 F6 18 04 00 00  imul        esi,esi,418h
  00401201: 8B 1D 88 EB 42 00  mov         ebx,dword ptr ds:[0042EB88h]
  00401207: 33 C9              xor         ecx,ecx
  00401209: 03 F3              add         esi,ebx
  0040120B: 57                 push        edi
  0040120C: 89 4D FC           mov         dword ptr [ebp-4],ecx
  0040120F: 89 4D F8           mov         dword ptr [ebp-8],ecx
  00401212: 8B 46 08           mov         eax,dword ptr [esi+8]
  00401215: A8 02              test        al,2
  00401217: 74 0B              je          00401224
  00401219: 39 4D 0C           cmp         dword ptr [ebp+0Ch],ecx
  0040121C: 74 06              je          00401224
  0040121E: 24 BE              and         al,0BEh
  00401220: 42                 inc         edx
  00401221: 89 46 08           mov         dword ptr [esi+8],eax
  00401224: 3B 15 8C EB 42 00  cmp         edx,dword ptr ds:[0042EB8Ch]
  0040122A: 73 44              jae         00401270
  0040122C: 8B C2              mov         eax,edx
  0040122E: 69 C0 18 04 00 00  imul        eax,eax,418h
  00401234: 8D 7C 18 08        lea         edi,[eax+ebx+8]
  00401238: 8D 42 01           lea         eax,[edx+1]
  0040123B: 8B 0F              mov         ecx,dword ptr [edi]
  0040123D: F6 C1 02           test        cl,2
  00401240: 74 0A              je          0040124C
  00401242: 6A 01              push        1
  00401244: 52                 push        edx
  00401245: E8 A5 FF FF FF     call        004011EF
  0040124A: 8B 0F              mov         ecx,dword ptr [edi]
  0040124C: F6 C1 04           test        cl,4
  0040124F: 75 28              jne         00401279
  00401251: F6 C1 40           test        cl,40h
  00401254: 74 03              je          00401259
  00401256: FF 45 FC           inc         dword ptr [ebp-4]
  00401259: F6 C1 01           test        cl,1
  0040125C: 74 05              je          00401263
  0040125E: FF 45 FC           inc         dword ptr [ebp-4]
  00401261: EB 03              jmp         00401266
  00401263: FF 45 F8           inc         dword ptr [ebp-8]
  00401266: 3B 05 8C EB 42 00  cmp         eax,dword ptr ds:[0042EB8Ch]
  0040126C: 8B D0              mov         edx,eax
  0040126E: 72 BC              jb          0040122C
  00401270: 33 C0              xor         eax,eax
  00401272: 5F                 pop         edi
  00401273: 5E                 pop         esi
  00401274: 5B                 pop         ebx
  00401275: C9                 leave
  00401276: C2 08 00           ret         8
  00401279: 83 7D FC 00        cmp         dword ptr [ebp-4],0
  0040127D: 74 F3              je          00401272
  0040127F: 83 7D F8 00        cmp         dword ptr [ebp-8],0
  00401283: 74 06              je          0040128B
  00401285: 83 4E 08 40        or          dword ptr [esi+8],40h
  00401289: EB E7              jmp         00401272
  0040128B: 8B 4E 08           mov         ecx,dword ptr [esi+8]
  0040128E: 80 E1 7F           and         cl,7Fh
  00401291: 83 C9 01           or          ecx,1
  00401294: 89 4E 08           mov         dword ptr [esi+8],ecx
  00401297: EB D9              jmp         00401272
  00401299: 8B 4C 24 04        mov         ecx,dword ptr [esp+4]
  0040129D: A1 88 EB 42 00     mov         eax,dword ptr ds:[0042EB88h]
  004012A2: 56                 push        esi
  004012A3: 33 F6              xor         esi,esi
  004012A5: 83 F9 20           cmp         ecx,20h
  004012A8: 73 34              jae         004012DE
  004012AA: 39 35 8C EB 42 00  cmp         dword ptr ds:[0042EB8Ch],esi
  004012B0: 76 2C              jbe         004012DE
  004012B2: 8D 50 08           lea         edx,[eax+8]
  004012B5: 57                 push        edi
  004012B6: 8B 02              mov         eax,dword ptr [edx]
  004012B8: A8 06              test        al,6
  004012BA: 75 12              jne         004012CE
  004012BC: 33 FF              xor         edi,edi
  004012BE: 47                 inc         edi
  004012BF: D3 E7              shl         edi,cl
  004012C1: 85 7A FC           test        dword ptr [edx-4],edi
  004012C4: 74 04              je          004012CA
  004012C6: 0C 01              or          al,1
  004012C8: EB 02              jmp         004012CC
  004012CA: 24 FE              and         al,0FEh
  004012CC: 89 02              mov         dword ptr [edx],eax
  004012CE: 46                 inc         esi
  004012CF: 81 C2 18 04 00 00  add         edx,418h
  004012D5: 3B 35 8C EB 42 00  cmp         esi,dword ptr ds:[0042EB8Ch]
  004012DB: 72 D9              jb          004012B6
  004012DD: 5F                 pop         edi
  004012DE: 5E                 pop         esi
  004012DF: C2 04 00           ret         4
  004012E2: 55                 push        ebp
  004012E3: 8B EC              mov         ebp,esp
  004012E5: 83 EC 0C           sub         esp,0Ch
  004012E8: A1 70 EB 42 00     mov         eax,dword ptr ds:[0042EB70h]
  004012ED: 83 65 FC 00        and         dword ptr [ebp-4],0
  004012F1: 53                 push        ebx
  004012F2: 56                 push        esi
  004012F3: 05 94 00 00 00     add         eax,94h
  004012F8: 57                 push        edi
  004012F9: 8B 3D 8C EB 42 00  mov         edi,dword ptr ds:[0042EB8Ch]
  004012FF: 89 45 F8           mov         dword ptr [ebp-8],eax
  00401302: 8B 45 F8           mov         eax,dword ptr [ebp-8]
  00401305: 33 DB              xor         ebx,ebx
  00401307: 39 18              cmp         dword ptr [eax],ebx
  00401309: 74 4B              je          00401356
  0040130B: 3B DF              cmp         ebx,edi
  0040130D: 73 45              jae         00401354
  0040130F: 8B 35 88 EB 42 00  mov         esi,dword ptr ds:[0042EB88h]
  00401315: 83 C6 08           add         esi,8
  00401318: 8B 16              mov         edx,dword ptr [esi]
  0040131A: F6 C2 06           test        dl,6
  0040131D: 75 28              jne         00401347
  0040131F: 8B 45 08           mov         eax,dword ptr [ebp+8]
  00401322: 85 C0              test        eax,eax
  00401324: 74 06              je          0040132C
  00401326: 83 3C 98 00        cmp         dword ptr [eax+ebx*4],0
  0040132A: 74 1B              je          00401347
  0040132C: 8B 4D FC           mov         ecx,dword ptr [ebp-4]
  0040132F: 33 C0              xor         eax,eax
  00401331: 40                 inc         eax
  00401332: 83 E2 01           and         edx,1
  00401335: D3 E0              shl         eax,cl
  00401337: 8B 4E FC           mov         ecx,dword ptr [esi-4]
  0040133A: 23 C8              and         ecx,eax
  0040133C: 8B C1              mov         eax,ecx
  0040133E: 8B 4D FC           mov         ecx,dword ptr [ebp-4]
  00401341: D3 E2              shl         edx,cl
  00401343: 3B C2              cmp         eax,edx
  00401345: 75 0B              jne         00401352
  00401347: 43                 inc         ebx
  00401348: 81 C6 18 04 00 00  add         esi,418h
  0040134E: 3B DF              cmp         ebx,edi
  00401350: 72 C6              jb          00401318
  00401352: 3B DF              cmp         ebx,edi
  00401354: 74 0D              je          00401363
  00401356: FF 45 FC           inc         dword ptr [ebp-4]
  00401359: 83 45 F8 04        add         dword ptr [ebp-8],4
  0040135D: 83 7D FC 20        cmp         dword ptr [ebp-4],20h
  00401361: 72 9F              jb          00401302
  00401363: 8B 45 FC           mov         eax,dword ptr [ebp-4]
  00401366: 5F                 pop         edi
  00401367: 5E                 pop         esi
  00401368: 5B                 pop         ebx
  00401369: C9                 leave
  0040136A: C2 04 00           ret         4
  0040136D: 8B 44 24 04        mov         eax,dword ptr [esp+4]
  00401371: 85 C0              test        eax,eax
  00401373: 7D 11              jge         00401386
  00401375: 40                 inc         eax
  00401376: B9 00 F0 42 00     mov         ecx,42F000h
  0040137B: C1 E0 0A           shl         eax,0Ah
  0040137E: 2B C8              sub         ecx,eax
  00401380: 51                 push        ecx
  00401381: E8 FD 45 00 00     call        00405983
  00401386: C2 04 00           ret         4
  00401389: 56                 push        esi
  0040138A: 8B 74 24 08        mov         esi,dword ptr [esp+8]
  0040138E: EB 6A              jmp         004013FA
  00401390: 8B C6              mov         eax,esi
  00401392: 8B 0D 90 EB 42 00  mov         ecx,dword ptr ds:[0042EB90h]
  00401398: 6B C0 1C           imul        eax,eax,1Ch
  0040139B: 03 C1              add         eax,ecx
  0040139D: 83 38 01           cmp         dword ptr [eax],1
  004013A0: 74 5C              je          004013FE
  004013A2: 50                 push        eax
  004013A3: E8 8C 00 00 00     call        00401434
  004013A8: 3D FF FF FF 7F     cmp         eax,7FFFFFFFh
  004013AD: 74 55              je          00401404
  004013AF: 50                 push        eax
  004013B0: E8 B8 FF FF FF     call        0040136D
  004013B5: 85 C0              test        eax,eax
  004013B7: 75 04              jne         004013BD
  004013B9: 40                 inc         eax
  004013BA: 46                 inc         esi
  004013BB: EB 07              jmp         004013C4
  004013BD: 48                 dec         eax
  004013BE: 8B CE              mov         ecx,esi
  004013C0: 8B F0              mov         esi,eax
  004013C2: 2B C1              sub         eax,ecx
  004013C4: 83 7C 24 0C 00     cmp         dword ptr [esp+0Ch],0
  004013C9: 74 2F              je          004013FA
  004013CB: 01 05 4C E3 42 00  add         dword ptr ds:[0042E34Ch],eax
  004013D1: 6A 00              push        0
  004013D3: FF 35 34 E3 42 00  push        dword ptr ds:[0042E334h]
  004013D9: 68 30 75 00 00     push        7530h
  004013DE: FF 35 4C E3 42 00  push        dword ptr ds:[0042E34Ch]
  004013E4: FF 15 30 71 40 00  call        dword ptr ds:[00407130h]
  004013EA: 50                 push        eax
  004013EB: 68 02 04 00 00     push        402h
  004013F0: FF 74 24 18        push        dword ptr [esp+18h]
  004013F4: FF 15 44 72 40 00  call        dword ptr ds:[00407244h]
  004013FA: 85 F6              test        esi,esi
  004013FC: 7D 92              jge         00401390
  004013FE: 33 C0              xor         eax,eax
  00401400: 5E                 pop         esi
  00401401: C2 08 00           ret         8
  00401404: B8 FF FF FF 7F     mov         eax,7FFFFFFFh
  00401409: EB F5              jmp         00401400
  0040140B: 8B 44 24 04        mov         eax,dword ptr [esp+4]
  0040140F: 8B 0D 70 EB 42 00  mov         ecx,dword ptr ds:[0042EB70h]
  00401415: 6A 00              push        0
  00401417: FF 74 81 6C        push        dword ptr [ecx+eax*4+6Ch]
  0040141B: E8 69 FF FF FF     call        00401389
  00401420: C2 04 00           ret         4
  00401423: 68 80 9F 40 00     push        409F80h
  00401428: FF 74 24 08        push        dword ptr [esp+8]
  0040142C: E8 79 39 00 00     call        00404DAA
  00401431: C2 04 00           ret         4
  00401434: 55                 push        ebp
  00401435: 8B EC              mov         ebp,esp
  00401437: 81 EC A4 01 00 00  sub         esp,1A4h
  0040143D: A1 68 EB 42 00     mov         eax,dword ptr ds:[0042EB68h]
  00401442: 53                 push        ebx
  00401443: 56                 push        esi
  00401444: 8B 75 08           mov         esi,dword ptr [ebp+8]
  00401447: 57                 push        edi
  00401448: 6A 07              push        7
  0040144A: 59                 pop         ecx
  0040144B: 8D 7D D8           lea         edi,[ebp-28h]
  0040144E: 89 45 CC           mov         dword ptr [ebp-34h],eax
  00401451: 33 DB              xor         ebx,ebx
  00401453: F3 A5              rep movs    dword ptr es:[edi],dword ptr [esi]
  00401455: 8B 45 DC           mov         eax,dword ptr [ebp-24h]
  00401458: 8B 55 E0           mov         edx,dword ptr [ebp-20h]
  0040145B: 8B F0              mov         esi,eax
  0040145D: 8B FA              mov         edi,edx
  0040145F: C1 E6 0A           shl         esi,0Ah
  00401462: B9 00 F0 42 00     mov         ecx,42F000h
  00401467: 89 5D FC           mov         dword ptr [ebp-4],ebx
  0040146A: C1 E7 0A           shl         edi,0Ah
  0040146D: 03 F1              add         esi,ecx
  0040146F: 03 F9              add         edi,ecx
  00401471: 8D 4D DC           lea         ecx,[ebp-24h]
  00401474: 89 0D 78 9B 40 00  mov         dword ptr ds:[00409B78h],ecx
  0040147A: 8B 4D D8           mov         ecx,dword ptr [ebp-28h]
  0040147D: 83 C1 FE           add         ecx,0FFFFFFFEh
  00401480: 83 F9 41           cmp         ecx,41h
  00401483: 0F 87 02 14 00 00  ja          0040288B
  00401489: FF 24 8D 9D 28 40  jmp         dword ptr [ecx*4+0040289Dh]
            00
  00401490: 53                 push        ebx
  00401491: 50                 push        eax
  00401492: E8 13 39 00 00     call        00404DAA
  00401497: E9 72 0D 00 00     jmp         0040220E
  0040149C: FF 05 2C E3 42 00  inc         dword ptr ds:[0042E32Ch]
  004014A2: 39 5D CC           cmp         dword ptr [ebp-34h],ebx
  004014A5: 0F 84 63 0D 00 00  je          0040220E
  004014AB: 53                 push        ebx
  004014AC: FF 15 F8 71 40 00  call        dword ptr ds:[004071F8h]
  004014B2: E9 57 0D 00 00     jmp         0040220E
  004014B7: 50                 push        eax
  004014B8: E8 B0 FE FF FF     call        0040136D
  004014BD: 48                 dec         eax
  004014BE: 53                 push        ebx
  004014BF: 50                 push        eax
  004014C0: E8 C4 FE FF FF     call        00401389
  004014C5: E9 CC 13 00 00     jmp         00402896
  004014CA: 53                 push        ebx
  004014CB: 50                 push        eax
  004014CC: E8 D9 38 00 00     call        00404DAA
  004014D1: E9 B5 13 00 00     jmp         0040288B
  004014D6: 53                 push        ebx
  004014D7: E8 FD 14 00 00     call        004029D9
  004014DC: 83 F8 01           cmp         eax,1
  004014DF: 7F 03              jg          004014E4
  004014E1: 33 C0              xor         eax,eax
  004014E3: 40                 inc         eax
  004014E4: 50                 push        eax
  004014E5: FF 15 88 70 40 00  call        dword ptr ds:[00407088h]
  004014EB: E9 9B 13 00 00     jmp         0040288B
  004014F0: FF 75 CC           push        dword ptr [ebp-34h]
  004014F3: FF 15 FC 71 40 00  call        dword ptr ds:[004071FCh]
  004014F9: E9 8D 13 00 00     jmp         0040288B
  004014FE: C1 E0 02           shl         eax,2
  00401501: 39 5D E4           cmp         dword ptr [ebp-1Ch],ebx
  00401504: 75 22              jne         00401528
  00401506: 8B 88 E0 EB 42 00  mov         ecx,dword ptr [eax+0042EBE0h]
  0040150C: 6A 01              push        1
  0040150E: 89 88 20 EC 42 00  mov         dword ptr [eax+0042EC20h],ecx
  00401514: E8 C0 14 00 00     call        004029D9
  00401519: 8B 4D DC           mov         ecx,dword ptr [ebp-24h]
  0040151C: 89 04 8D E0 EB 42  mov         dword ptr [ecx*4+0042EBE0h],eax
            00
  00401523: E9 63 13 00 00     jmp         0040288B
  00401528: 8B 88 20 EC 42 00  mov         ecx,dword ptr [eax+0042EC20h]
  0040152E: 89 88 E0 EB 42 00  mov         dword ptr [eax+0042EBE0h],ecx
  00401534: E9 52 13 00 00     jmp         0040288B
  00401539: 8B 45 E4           mov         eax,dword ptr [ebp-1Ch]
  0040153C: 8D 34 85 E0 EB 42  lea         esi,[eax*4+0042EBE0h]
            00
  00401543: 33 C0              xor         eax,eax
  00401545: 8B 0E              mov         ecx,dword ptr [esi]
  00401547: 3B CB              cmp         ecx,ebx
  00401549: 0F 94 C0           sete        al
  0040154C: 23 4D E8           and         ecx,dword ptr [ebp-18h]
  0040154F: 8B 44 85 DC        mov         eax,dword ptr [ebp+eax*4-24h]
  00401553: 89 0E              mov         dword ptr [esi],ecx
  00401555: E9 3C 13 00 00     jmp         00402896
  0040155A: FF 34 95 E0 EB 42  push        dword ptr [edx*4+0042EBE0h]
            00
  00401561: 56                 push        esi
  00401562: E9 CC 12 00 00     jmp         00402833
  00401567: 8B 0D 30 E3 42 00  mov         ecx,dword ptr ds:[0042E330h]
  0040156D: 8B 35 60 72 40 00  mov         esi,dword ptr ds:[00407260h]
  00401573: 3B CB              cmp         ecx,ebx
  00401575: 74 07              je          0040157E
  00401577: 52                 push        edx
  00401578: 51                 push        ecx
  00401579: FF D6              call        esi
  0040157B: 8B 45 DC           mov         eax,dword ptr [ebp-24h]
  0040157E: 8B 0D 44 E3 42 00  mov         ecx,dword ptr ds:[0042E344h]
  00401584: 3B CB              cmp         ecx,ebx
  00401586: 0F 84 FF 12 00 00  je          0040288B
  0040158C: 50                 push        eax
  0040158D: 51                 push        ecx
  0040158E: FF D6              call        esi
  00401590: E9 F6 12 00 00     jmp         0040288B
  00401595: 6A F0              push        0FFFFFFF0h
  00401597: E8 5A 14 00 00     call        004029F6
  0040159C: FF 75 E0           push        dword ptr [ebp-20h]
  0040159F: 50                 push        eax
  004015A0: FF 15 84 70 40 00  call        dword ptr ds:[00407084h]
  004015A6: 85 C0              test        eax,eax
  004015A8: 0F 85 DD 12 00 00  jne         0040288B
  004015AE: E9 A9 10 00 00     jmp         0040265C
  004015B3: 6A F0              push        0FFFFFFF0h
  004015B5: E8 3C 14 00 00     call        004029F6
  004015BA: 8B F8              mov         edi,eax
  004015BC: 57                 push        edi
  004015BD: E8 D1 3F 00 00     call        00405593
  004015C2: 8B F0              mov         esi,eax
  004015C4: 3B F3              cmp         esi,ebx
  004015C6: 74 42              je          0040160A
  004015C8: 6A 5C              push        5Ch
  004015CA: 56                 push        esi
  004015CB: E8 5A 3F 00 00     call        0040552A
  004015D0: 8B F0              mov         esi,eax
  004015D2: 53                 push        ebx
  004015D3: 57                 push        edi
  004015D4: 8A 06              mov         al,byte ptr [esi]
  004015D6: 88 1E              mov         byte ptr [esi],bl
  004015D8: 88 45 0B           mov         byte ptr [ebp+0Bh],al
  004015DB: FF 15 80 70 40 00  call        dword ptr ds:[00407080h]
  004015E1: 85 C0              test        eax,eax
  004015E3: 75 1B              jne         00401600
  004015E5: FF 15 7C 70 40 00  call        dword ptr ds:[0040707Ch]
  004015EB: 3D B7 00 00 00     cmp         eax,0B7h
  004015F0: 75 0B              jne         004015FD
  004015F2: 57                 push        edi
  004015F3: FF 15 78 70 40 00  call        dword ptr ds:[00407078h]
  004015F9: A8 10              test        al,10h
  004015FB: 75 03              jne         00401600
  004015FD: FF 45 FC           inc         dword ptr [ebp-4]
  00401600: 8A 45 0B           mov         al,byte ptr [ebp+0Bh]
  00401603: 88 06              mov         byte ptr [esi],al
  00401605: 46                 inc         esi
  00401606: 3A C3              cmp         al,bl
  00401608: 75 BE              jne         004015C8
  0040160A: 39 5D E0           cmp         dword ptr [ebp-20h],ebx
  0040160D: 74 1E              je          0040162D
  0040160F: 6A E6              push        0FFFFFFE6h
  00401611: E8 0D FE FF FF     call        00401423
  00401616: 57                 push        edi
  00401617: 68 00 48 43 00     push        434800h
  0040161C: E8 EB 43 00 00     call        00405A0C
  00401621: 57                 push        edi
  00401622: FF 15 74 70 40 00  call        dword ptr ds:[00407074h]
  00401628: E9 5E 12 00 00     jmp         0040288B
  0040162D: 6A F5              push        0FFFFFFF5h
  0040162F: E9 30 0B 00 00     jmp         00402164
  00401634: 53                 push        ebx
  00401635: E8 BC 13 00 00     call        004029F6
  0040163A: 50                 push        eax
  0040163B: E8 C7 46 00 00     call        00405D07
  00401640: E9 35 06 00 00     jmp         00401C7A
  00401645: 6A D0              push        0FFFFFFD0h
  00401647: E8 AA 13 00 00     call        004029F6
  0040164C: 6A DF              push        0FFFFFFDFh
  0040164E: 8B F0              mov         esi,eax
  00401650: E8 A1 13 00 00     call        004029F6
  00401655: 6A 13              push        13h
  00401657: 8B F8              mov         edi,eax
  00401659: E8 98 13 00 00     call        004029F6
  0040165E: 57                 push        edi
  0040165F: 56                 push        esi
  00401660: FF 15 70 70 40 00  call        dword ptr ds:[00407070h]
  00401666: 85 C0              test        eax,eax
  00401668: 74 07              je          00401671
  0040166A: 6A E3              push        0FFFFFFE3h
  0040166C: E9 F3 0A 00 00     jmp         00402164
  00401671: 39 5D E4           cmp         dword ptr [ebp-1Ch],ebx
  00401674: 0F 84 E2 0F 00 00  je          0040265C
  0040167A: 56                 push        esi
  0040167B: E8 87 46 00 00     call        00405D07
  00401680: 85 C0              test        eax,eax
  00401682: 0F 84 D4 0F 00 00  je          0040265C
  00401688: 57                 push        edi
  00401689: 56                 push        esi
  0040168A: E8 CB 40 00 00     call        0040575A
  0040168F: 6A E4              push        0FFFFFFE4h
  00401691: E9 CE 0A 00 00     jmp         00402164
  00401696: 53                 push        ebx
  00401697: E8 5A 13 00 00     call        004029F6
  0040169C: 8B F0              mov         esi,eax
  0040169E: 8D 45 08           lea         eax,[ebp+8]
  004016A1: 50                 push        eax
  004016A2: 57                 push        edi
  004016A3: 68 00 04 00 00     push        400h
  004016A8: 56                 push        esi
  004016A9: FF 15 6C 70 40 00  call        dword ptr ds:[0040706Ch]
  004016AF: 85 C0              test        eax,eax
  004016B1: 74 23              je          004016D6
  004016B3: 8B 45 08           mov         eax,dword ptr [ebp+8]
  004016B6: 3B C6              cmp         eax,esi
  004016B8: 76 25              jbe         004016DF
  004016BA: 38 18              cmp         byte ptr [eax],bl
  004016BC: 74 21              je          004016DF
  004016BE: 56                 push        esi
  004016BF: E8 43 46 00 00     call        00405D07
  004016C4: 3B C3              cmp         eax,ebx
  004016C6: 74 0E              je          004016D6
  004016C8: 83 C0 2C           add         eax,2Ch
  004016CB: 50                 push        eax
  004016CC: FF 75 08           push        dword ptr [ebp+8]
  004016CF: E8 38 43 00 00     call        00405A0C
  004016D4: EB 09              jmp         004016DF
  004016D6: C7 45 FC 01 00 00  mov         dword ptr [ebp-4],1
            00
  004016DD: 88 1F              mov         byte ptr [edi],bl
  004016DF: 39 5D E4           cmp         dword ptr [ebp-1Ch],ebx
  004016E2: 0F 85 A3 11 00 00  jne         0040288B
  004016E8: 68 00 04 00 00     push        400h
  004016ED: 57                 push        edi
  004016EE: 57                 push        edi
  004016EF: FF 15 68 70 40 00  call        dword ptr ds:[00407068h]
  004016F5: E9 91 11 00 00     jmp         0040288B
  004016FA: 6A FF              push        0FFFFFFFFh
  004016FC: E8 F5 12 00 00     call        004029F6
  00401701: 8D 4D 08           lea         ecx,[ebp+8]
  00401704: 51                 push        ecx
  00401705: 56                 push        esi
  00401706: 68 00 04 00 00     push        400h
  0040170B: 53                 push        ebx
  0040170C: 50                 push        eax
  0040170D: 53                 push        ebx
  0040170E: FF 15 64 70 40 00  call        dword ptr ds:[00407064h]
  00401714: 85 C0              test        eax,eax
  00401716: 0F 85 6F 11 00 00  jne         0040288B
  0040171C: E9 0F 0F 00 00     jmp         00402630
  00401721: 6A EF              push        0FFFFFFEFh
  00401723: E8 CE 12 00 00     call        004029F6
  00401728: 50                 push        eax
  00401729: 56                 push        esi
  0040172A: E8 E3 3F 00 00     call        00405712
  0040172F: E9 72 FE FF FF     jmp         004015A6
  00401734: 6A 31              push        31h
  00401736: E8 BB 12 00 00     call        004029F6
  0040173B: 8B F0              mov         esi,eax
  0040173D: 8B 45 DC           mov         eax,dword ptr [ebp-24h]
  00401740: 83 E0 07           and         eax,7
  00401743: 56                 push        esi
  00401744: 89 75 F8           mov         dword ptr [ebp-8],esi
  00401747: 89 45 08           mov         dword ptr [ebp+8],eax
  0040174A: E8 1D 3E 00 00     call        0040556C
  0040174F: 56                 push        esi
  00401750: BE 80 9B 40 00     mov         esi,409B80h
  00401755: 85 C0              test        eax,eax
  00401757: 74 08              je          00401761
  00401759: 56                 push        esi
  0040175A: E8 AD 42 00 00     call        00405A0C
  0040175F: EB 17              jmp         00401778
  00401761: 68 00 48 43 00     push        434800h
  00401766: 56                 push        esi
  00401767: E8 A0 42 00 00     call        00405A0C
  0040176C: 50                 push        eax
  0040176D: E8 8D 3D 00 00     call        004054FF
  00401772: 50                 push        eax
  00401773: E8 B0 42 00 00     call        00405A28
  00401778: 56                 push        esi
  00401779: E8 F0 44 00 00     call        00405C6E
  0040177E: BF 80 A3 40 00     mov         edi,40A380h
  00401783: 83 7D 08 03        cmp         dword ptr [ebp+8],3
  00401787: 7C 31              jl          004017BA
  00401789: 56                 push        esi
  0040178A: E8 78 45 00 00     call        00405D07
  0040178F: 33 C9              xor         ecx,ecx
  00401791: 3B C3              cmp         eax,ebx
  00401793: 74 10              je          004017A5
  00401795: 8D 4D E8           lea         ecx,[ebp-18h]
  00401798: 83 C0 14           add         eax,14h
  0040179B: 51                 push        ecx
  0040179C: 50                 push        eax
  0040179D: FF 15 60 70 40 00  call        dword ptr ds:[00407060h]
  004017A3: 8B C8              mov         ecx,eax
  004017A5: 8B 45 08           mov         eax,dword ptr [ebp+8]
  004017A8: 83 C0 FD           add         eax,0FFFFFFFDh
  004017AB: 0D 00 00 00 80     or          eax,80000000h
  004017B0: 23 C1              and         eax,ecx
  004017B2: F7 D8              neg         eax
  004017B4: 1B C0              sbb         eax,eax
  004017B6: 40                 inc         eax
  004017B7: 89 45 08           mov         dword ptr [ebp+8],eax
  004017BA: 39 5D 08           cmp         dword ptr [ebp+8],ebx
  004017BD: 75 06              jne         004017C5
  004017BF: 56                 push        esi
  004017C0: E8 FF 3E 00 00     call        004056C4
  004017C5: 33 C0              xor         eax,eax
  004017C7: 83 7D 08 01        cmp         dword ptr [ebp+8],1
  004017CB: 0F 95 C0           setne       al
  004017CE: 40                 inc         eax
  004017CF: 50                 push        eax
  004017D0: 68 00 00 00 40     push        40000000h
  004017D5: 56                 push        esi
  004017D6: E8 08 3F 00 00     call        004056E3
  004017DB: 83 F8 FF           cmp         eax,0FFFFFFFFh
  004017DE: 89 45 CC           mov         dword ptr [ebp-34h],eax
  004017E1: 75 76              jne         00401859
  004017E3: 39 5D 08           cmp         dword ptr [ebp+8],ebx
  004017E6: 75 53              jne         0040183B
  004017E8: 68 00 F0 42 00     push        42F000h
  004017ED: 57                 push        edi
  004017EE: E8 19 42 00 00     call        00405A0C
  004017F3: 56                 push        esi
  004017F4: 68 00 F0 42 00     push        42F000h
  004017F9: E8 0E 42 00 00     call        00405A0C
  004017FE: FF 75 F0           push        dword ptr [ebp-10h]
  00401801: 68 80 9F 40 00     push        409F80h
  00401806: E8 23 42 00 00     call        00405A2E
  0040180B: 57                 push        edi
  0040180C: 68 00 F0 42 00     push        42F000h
  00401811: E8 F6 41 00 00     call        00405A0C
  00401816: 8B 45 DC           mov         eax,dword ptr [ebp-24h]
  00401819: C1 F8 03           sar         eax,3
  0040181C: 50                 push        eax
  0040181D: 68 80 9F 40 00     push        409F80h
  00401822: E8 A6 3A 00 00     call        004052CD
  00401827: 83 E8 04           sub         eax,4
  0040182A: 0F 84 53 FF FF FF  je          00401783
  00401830: 48                 dec         eax
  00401831: 74 1B              je          0040184E
  00401833: 56                 push        esi
  00401834: 6A FA              push        0FFFFFFFAh
  00401836: E9 57 FC FF FF     jmp         00401492
  0040183B: FF 75 F8           push        dword ptr [ebp-8]
  0040183E: 6A E2              push        0FFFFFFE2h
  00401840: E8 65 35 00 00     call        00404DAA
  00401845: 83 7D 08 02        cmp         dword ptr [ebp+8],2
  00401849: E9 5A FD FF FF     jmp         004015A8
  0040184E: FF 05 E8 EB 42 00  inc         dword ptr ds:[0042EBE8h]
  00401854: E9 3B 10 00 00     jmp         00402894
  00401859: FF 75 F8           push        dword ptr [ebp-8]
  0040185C: 6A EA              push        0FFFFFFEAh
  0040185E: E8 47 35 00 00     call        00404DAA
  00401863: FF 05 14 EC 42 00  inc         dword ptr ds:[0042EC14h]
  00401869: 53                 push        ebx
  0040186A: 53                 push        ebx
  0040186B: FF 75 CC           push        dword ptr [ebp-34h]
  0040186E: FF 75 E4           push        dword ptr [ebp-1Ch]
  00401871: E8 E5 15 00 00     call        00402E5B
  00401876: FF 0D 14 EC 42 00  dec         dword ptr ds:[0042EC14h]
  0040187C: 83 7D E8 FF        cmp         dword ptr [ebp-18h],0FFFFFFFFh
  00401880: 8B F8              mov         edi,eax
  00401882: 75 06              jne         0040188A
  00401884: 83 7D EC FF        cmp         dword ptr [ebp-14h],0FFFFFFFFh
  00401888: 74 12              je          0040189C
  0040188A: 8D 45 E8           lea         eax,[ebp-18h]
  0040188D: 50                 push        eax
  0040188E: 8D 45 E8           lea         eax,[ebp-18h]
  00401891: 53                 push        ebx
  00401892: 50                 push        eax
  00401893: FF 75 CC           push        dword ptr [ebp-34h]
  00401896: FF 15 A8 70 40 00  call        dword ptr ds:[004070A8h]
  0040189C: FF 75 CC           push        dword ptr [ebp-34h]
  0040189F: FF 15 EC 70 40 00  call        dword ptr ds:[004070ECh]
  004018A5: 3B FB              cmp         edi,ebx
  004018A7: 0F 8D DE 0F 00 00  jge         0040288B
  004018AD: 83 FF FE           cmp         edi,0FFFFFFFEh
  004018B0: 75 13              jne         004018C5
  004018B2: 6A E9              push        0FFFFFFE9h
  004018B4: 56                 push        esi
  004018B5: E8 74 41 00 00     call        00405A2E
  004018BA: FF 75 F8           push        dword ptr [ebp-8]
  004018BD: 56                 push        esi
  004018BE: E8 65 41 00 00     call        00405A28
  004018C3: EB 08              jmp         004018CD
  004018C5: 6A EE              push        0FFFFFFEEh
  004018C7: 56                 push        esi
  004018C8: E8 61 41 00 00     call        00405A2E
  004018CD: 68 10 00 20 00     push        200010h
  004018D2: 56                 push        esi
  004018D3: E9 31 09 00 00     jmp         00402209
  004018D8: 53                 push        ebx
  004018D9: EB 34              jmp         0040190F
  004018DB: 6A 31              push        31h
  004018DD: E8 14 11 00 00     call        004029F6
  004018E2: FF 75 DC           push        dword ptr [ebp-24h]
  004018E5: 50                 push        eax
  004018E6: E8 E2 39 00 00     call        004052CD
  004018EB: 3B C3              cmp         eax,ebx
  004018ED: 0F 84 69 0D 00 00  je          0040265C
  004018F3: 3B 45 E4           cmp         eax,dword ptr [ebp-1Ch]
  004018F6: 0F 84 4A 01 00 00  je          00401A46
  004018FC: 3B 45 EC           cmp         eax,dword ptr [ebp-14h]
  004018FF: 0F 85 86 0F 00 00  jne         0040288B
  00401905: 8B 45 F0           mov         eax,dword ptr [ebp-10h]
  00401908: E9 89 0F 00 00     jmp         00402896
  0040190D: 6A F0              push        0FFFFFFF0h
  0040190F: E8 E2 10 00 00     call        004029F6
  00401914: FF 75 E0           push        dword ptr [ebp-20h]
  00401917: 50                 push        eax
  00401918: E8 14 3A 00 00     call        00405331
  0040191D: E9 69 0F 00 00     jmp         0040288B
  00401922: 6A 01              push        1
  00401924: E8 CD 10 00 00     call        004029F6
  00401929: 50                 push        eax
  0040192A: E8 F3 40 00 00     call        00405A22
  0040192F: E9 84 0B 00 00     jmp         004024B8
  00401934: 6A 02              push        2
  00401936: E8 9E 10 00 00     call        004029D9
  0040193B: 6A 03              push        3
  0040193D: 89 45 08           mov         dword ptr [ebp+8],eax
  00401940: E8 94 10 00 00     call        004029D9
  00401945: 6A 01              push        1
  00401947: 8B F8              mov         edi,eax
  00401949: E8 A8 10 00 00     call        004029F6
  0040194E: 39 5D E4           cmp         dword ptr [ebp-1Ch],ebx
  00401951: 89 45 D4           mov         dword ptr [ebp-2Ch],eax
  00401954: 88 1E              mov         byte ptr [esi],bl
  00401956: 74 09              je          00401961
  00401958: 39 5D 08           cmp         dword ptr [ebp+8],ebx
  0040195B: 0F 84 2A 0F 00 00  je          0040288B
  00401961: 50                 push        eax
  00401962: E8 BB 40 00 00     call        00405A22
  00401967: 3B FB              cmp         edi,ebx
  00401969: 7D 08              jge         00401973
  0040196B: 03 F8              add         edi,eax
  0040196D: 0F 88 18 0F 00 00  js          0040288B
  00401973: 3B F8              cmp         edi,eax
  00401975: 7E 02              jle         00401979
  00401977: 8B F8              mov         edi,eax
  00401979: 8B 45 D4           mov         eax,dword ptr [ebp-2Ch]
  0040197C: 03 C7              add         eax,edi
  0040197E: 50                 push        eax
  0040197F: 56                 push        esi
  00401980: E8 87 40 00 00     call        00405A0C
  00401985: 8B 7D 08           mov         edi,dword ptr [ebp+8]
  00401988: 3B FB              cmp         edi,ebx
  0040198A: 0F 84 FB 0E 00 00  je          0040288B
  00401990: 7D 0F              jge         004019A1
  00401992: 56                 push        esi
  00401993: E8 8A 40 00 00     call        00405A22
  00401998: 03 F8              add         edi,eax
  0040199A: 79 05              jns         004019A1
  0040199C: 89 5D 08           mov         dword ptr [ebp+8],ebx
  0040199F: 8B FB              mov         edi,ebx
  004019A1: 81 FF 00 04 00 00  cmp         edi,400h
  004019A7: 0F 8D DE 0E 00 00  jge         0040288B
  004019AD: 88 1C 37           mov         byte ptr [edi+esi],bl
  004019B0: E9 D6 0E 00 00     jmp         0040288B
  004019B5: 6A 20              push        20h
  004019B7: E8 3A 10 00 00     call        004029F6
  004019BC: 6A 31              push        31h
  004019BE: 8B F0              mov         esi,eax
  004019C0: E8 31 10 00 00     call        004029F6
  004019C5: 39 5D EC           cmp         dword ptr [ebp-14h],ebx
  004019C8: 50                 push        eax
  004019C9: 56                 push        esi
  004019CA: 75 12              jne         004019DE
  004019CC: FF 15 F0 70 40 00  call        dword ptr ds:[004070F0h]
  004019D2: 85 C0              test        eax,eax
  004019D4: 75 70              jne         00401A46
  004019D6: 8B 45 E4           mov         eax,dword ptr [ebp-1Ch]
  004019D9: E9 B8 0E 00 00     jmp         00402896
  004019DE: FF 15 F4 70 40 00  call        dword ptr ds:[004070F4h]
  004019E4: EB EC              jmp         004019D2
  004019E6: 33 FF              xor         edi,edi
  004019E8: 47                 inc         edi
  004019E9: 57                 push        edi
  004019EA: E8 07 10 00 00     call        004029F6
  004019EF: 68 00 04 00 00     push        400h
  004019F4: 56                 push        esi
  004019F5: 50                 push        eax
  004019F6: 89 45 08           mov         dword ptr [ebp+8],eax
  004019F9: FF 15 F8 70 40 00  call        dword ptr ds:[004070F8h]
  004019FF: 85 C0              test        eax,eax
  00401A01: 74 13              je          00401A16
  00401A03: 39 5D E4           cmp         dword ptr [ebp-1Ch],ebx
  00401A06: 74 13              je          00401A1B
  00401A08: 56                 push        esi
  00401A09: FF 75 08           push        dword ptr [ebp+8]
  00401A0C: FF 15 F4 70 40 00  call        dword ptr ds:[004070F4h]
  00401A12: 85 C0              test        eax,eax
  00401A14: 75 05              jne         00401A1B
  00401A16: 89 7D FC           mov         dword ptr [ebp-4],edi
  00401A19: 88 1E              mov         byte ptr [esi],bl
  00401A1B: 88 9E FF 03 00 00  mov         byte ptr [esi+000003FFh],bl
  00401A21: E9 65 0E 00 00     jmp         0040288B
  00401A26: 53                 push        ebx
  00401A27: E8 AD 0F 00 00     call        004029D9
  00401A2C: 6A 01              push        1
  00401A2E: 8B F0              mov         esi,eax
  00401A30: E8 A4 0F 00 00     call        004029D9
  00401A35: 39 5D F0           cmp         dword ptr [ebp-10h],ebx
  00401A38: 75 08              jne         00401A42
  00401A3A: 3B F0              cmp         esi,eax
  00401A3C: 7C 08              jl          00401A46
  00401A3E: 7E 96              jle         004019D6
  00401A40: EB 0E              jmp         00401A50
  00401A42: 3B F0              cmp         esi,eax
  00401A44: 73 08              jae         00401A4E
  00401A46: 8B 45 E8           mov         eax,dword ptr [ebp-18h]
  00401A49: E9 48 0E 00 00     jmp         00402896
  00401A4E: 76 86              jbe         004019D6
  00401A50: 8B 45 EC           mov         eax,dword ptr [ebp-14h]
  00401A53: E9 3E 0E 00 00     jmp         00402896
  00401A58: 6A 01              push        1
  00401A5A: E8 7A 0F 00 00     call        004029D9
  00401A5F: 6A 02              push        2
  00401A61: 8B F8              mov         edi,eax
  00401A63: E8 71 0F 00 00     call        004029D9
  00401A68: 8B C8              mov         ecx,eax
  00401A6A: 8B 45 E8           mov         eax,dword ptr [ebp-18h]
  00401A6D: 83 F8 0C           cmp         eax,0Ch
  00401A70: 77 6D              ja          00401ADF
  00401A72: FF 24 85 A5 29 40  jmp         dword ptr [eax*4+004029A5h]
            00
  00401A79: 03 F9              add         edi,ecx
  00401A7B: EB 62              jmp         00401ADF
  00401A7D: 2B F9              sub         edi,ecx
  00401A7F: EB 5E              jmp         00401ADF
  00401A81: 0F AF CF           imul        ecx,edi
  00401A84: 8B F9              mov         edi,ecx
  00401A86: EB 57              jmp         00401ADF
  00401A88: 3B CB              cmp         ecx,ebx
  00401A8A: 74 42              je          00401ACE
  00401A8C: 8B C7              mov         eax,edi
  00401A8E: 99                 cdq
  00401A8F: F7 F9              idiv        eax,ecx
  00401A91: 8B F8              mov         edi,eax
  00401A93: EB 4A              jmp         00401ADF
  00401A95: 0B F9              or          edi,ecx
  00401A97: EB 46              jmp         00401ADF
  00401A99: 23 F9              and         edi,ecx
  00401A9B: EB 42              jmp         00401ADF
  00401A9D: 33 F9              xor         edi,ecx
  00401A9F: EB 3E              jmp         00401ADF
  00401AA1: 33 C0              xor         eax,eax
  00401AA3: 3B FB              cmp         edi,ebx
  00401AA5: 0F 94 C0           sete        al
  00401AA8: EB E7              jmp         00401A91
  00401AAA: 3B FB              cmp         edi,ebx
  00401AAC: 75 0E              jne         00401ABC
  00401AAE: EB 08              jmp         00401AB8
  00401AB0: 33 FF              xor         edi,edi
  00401AB2: EB 2B              jmp         00401ADF
  00401AB4: 3B FB              cmp         edi,ebx
  00401AB6: 74 F8              je          00401AB0
  00401AB8: 3B CB              cmp         ecx,ebx
  00401ABA: 74 F4              je          00401AB0
  00401ABC: 33 FF              xor         edi,edi
  00401ABE: 47                 inc         edi
  00401ABF: EB 1E              jmp         00401ADF
  00401AC1: 3B CB              cmp         ecx,ebx
  00401AC3: 74 09              je          00401ACE
  00401AC5: 8B C7              mov         eax,edi
  00401AC7: 99                 cdq
  00401AC8: F7 F9              idiv        eax,ecx
  00401ACA: 8B FA              mov         edi,edx
  00401ACC: EB 11              jmp         00401ADF
  00401ACE: 33 FF              xor         edi,edi
  00401AD0: C7 45 FC 01 00 00  mov         dword ptr [ebp-4],1
            00
  00401AD7: EB 06              jmp         00401ADF
  00401AD9: D3 E7              shl         edi,cl
  00401ADB: EB 02              jmp         00401ADF
  00401ADD: D3 FF              sar         edi,cl
  00401ADF: 57                 push        edi
  00401AE0: E9 7C FA FF FF     jmp         00401561
  00401AE5: 6A 01              push        1
  00401AE7: E8 0A 0F 00 00     call        004029F6
  00401AEC: 6A 02              push        2
  00401AEE: 8B F8              mov         edi,eax
  00401AF0: E8 E4 0E 00 00     call        004029D9
  00401AF5: 50                 push        eax
  00401AF6: 57                 push        edi
  00401AF7: 56                 push        esi
  00401AF8: FF 15 00 72 40 00  call        dword ptr ds:[00407200h]
  00401AFE: 83 C4 0C           add         esp,0Ch
  00401B01: E9 85 0D 00 00     jmp         0040288B
  00401B06: 8B 45 E4           mov         eax,dword ptr [ebp-1Ch]
  00401B09: 8B 3D 80 AF 40 00  mov         edi,dword ptr ds:[0040AF80h]
  00401B0F: 3B C3              cmp         eax,ebx
  00401B11: 74 44              je          00401B57
  00401B13: 48                 dec         eax
  00401B14: 3B FB              cmp         edi,ebx
  00401B16: 0F 84 DF 06 00 00  je          004021FB
  00401B1C: 8B 3F              mov         edi,dword ptr [edi]
  00401B1E: 3B C3              cmp         eax,ebx
  00401B20: 75 F1              jne         00401B13
  00401B22: 3B FB              cmp         edi,ebx
  00401B24: 0F 84 D1 06 00 00  je          004021FB
  00401B2A: 83 C7 04           add         edi,4
  00401B2D: BE 80 9B 40 00     mov         esi,409B80h
  00401B32: 57                 push        edi
  00401B33: 56                 push        esi
  00401B34: E8 D3 3E 00 00     call        00405A0C
  00401B39: A1 80 AF 40 00     mov         eax,dword ptr ds:[0040AF80h]
  00401B3E: 83 C0 04           add         eax,4
  00401B41: 50                 push        eax
  00401B42: 57                 push        edi
  00401B43: E8 C4 3E 00 00     call        00405A0C
  00401B48: A1 80 AF 40 00     mov         eax,dword ptr ds:[0040AF80h]
  00401B4D: 56                 push        esi
  00401B4E: 83 C0 04           add         eax,4
  00401B51: 50                 push        eax
  00401B52: E9 5A 0C 00 00     jmp         004027B1
  00401B57: 3B D3              cmp         edx,ebx
  00401B59: 74 25              je          00401B80
  00401B5B: 3B FB              cmp         edi,ebx
  00401B5D: 0F 84 F9 0A 00 00  je          0040265C
  00401B63: 8D 47 04           lea         eax,[edi+4]
  00401B66: 50                 push        eax
  00401B67: 56                 push        esi
  00401B68: E8 9F 3E 00 00     call        00405A0C
  00401B6D: 8B 07              mov         eax,dword ptr [edi]
  00401B6F: 57                 push        edi
  00401B70: A3 80 AF 40 00     mov         dword ptr ds:[0040AF80h],eax
  00401B75: FF 15 FC 70 40 00  call        dword ptr ds:[004070FCh]
  00401B7B: E9 0B 0D 00 00     jmp         0040288B
  00401B80: 68 04 04 00 00     push        404h
  00401B85: 6A 40              push        40h
  00401B87: FF 15 00 71 40 00  call        dword ptr ds:[00407100h]
  00401B8D: FF 75 DC           push        dword ptr [ebp-24h]
  00401B90: 8B F0              mov         esi,eax
  00401B92: 8D 46 04           lea         eax,[esi+4]
  00401B95: 50                 push        eax
  00401B96: E8 93 3E 00 00     call        00405A2E
  00401B9B: A1 80 AF 40 00     mov         eax,dword ptr ds:[0040AF80h]
  00401BA0: 89 06              mov         dword ptr [esi],eax
  00401BA2: 89 35 80 AF 40 00  mov         dword ptr ds:[0040AF80h],esi
  00401BA8: E9 DE 0C 00 00     jmp         0040288B
  00401BAD: 6A 03              push        3
  00401BAF: E8 25 0E 00 00     call        004029D9
  00401BB4: 6A 04              push        4
  00401BB6: 89 45 CC           mov         dword ptr [ebp-34h],eax
  00401BB9: E8 1B 0E 00 00     call        004029D9
  00401BBE: F6 45 F0 01        test        byte ptr [ebp-10h],1
  00401BC2: 89 45 08           mov         dword ptr [ebp+8],eax
  00401BC5: 74 0A              je          00401BD1
  00401BC7: 6A 33              push        33h
  00401BC9: E8 28 0E 00 00     call        004029F6
  00401BCE: 89 45 CC           mov         dword ptr [ebp-34h],eax
  00401BD1: F6 45 F0 02        test        byte ptr [ebp-10h],2
  00401BD5: 74 0A              je          00401BE1
  00401BD7: 6A 44              push        44h
  00401BD9: E8 18 0E 00 00     call        004029F6
  00401BDE: 89 45 08           mov         dword ptr [ebp+8],eax
  00401BE1: 83 7D D8 21        cmp         dword ptr [ebp-28h],21h
  00401BE5: 6A 01              push        1
  00401BE7: 75 44              jne         00401C2D
  00401BE9: E8 EB 0D 00 00     call        004029D9
  00401BEE: 6A 02              push        2
  00401BF0: 8B F8              mov         edi,eax
  00401BF2: E8 E2 0D 00 00     call        004029D9
  00401BF7: 8B 4D F0           mov         ecx,dword ptr [ebp-10h]
  00401BFA: C1 F9 02           sar         ecx,2
  00401BFD: 74 1E              je          00401C1D
  00401BFF: 8D 55 F8           lea         edx,[ebp-8]
  00401C02: 52                 push        edx
  00401C03: 51                 push        ecx
  00401C04: 53                 push        ebx
  00401C05: FF 75 08           push        dword ptr [ebp+8]
  00401C08: FF 75 CC           push        dword ptr [ebp-34h]
  00401C0B: 50                 push        eax
  00401C0C: 57                 push        edi
  00401C0D: FF 15 04 72 40 00  call        dword ptr ds:[00407204h]
  00401C13: F7 D8              neg         eax
  00401C15: 1B C0              sbb         eax,eax
  00401C17: 40                 inc         eax
  00401C18: 89 45 FC           mov         dword ptr [ebp-4],eax
  00401C1B: EB 3F              jmp         00401C5C
  00401C1D: FF 75 08           push        dword ptr [ebp+8]
  00401C20: FF 75 CC           push        dword ptr [ebp-34h]
  00401C23: 50                 push        eax
  00401C24: 57                 push        edi
  00401C25: FF 15 44 72 40 00  call        dword ptr ds:[00407244h]
  00401C2B: EB 2C              jmp         00401C59
  00401C2D: E8 C4 0D 00 00     call        004029F6
  00401C32: 6A 12              push        12h
  00401C34: 8B F8              mov         edi,eax
  00401C36: E8 BB 0D 00 00     call        004029F6
  00401C3B: 8A 08              mov         cl,byte ptr [eax]
  00401C3D: F6 D9              neg         cl
  00401C3F: 1B C9              sbb         ecx,ecx
  00401C41: 23 C8              and         ecx,eax
  00401C43: 8A 07              mov         al,byte ptr [edi]
  00401C45: F6 D8              neg         al
  00401C47: 1B C0              sbb         eax,eax
  00401C49: 51                 push        ecx
  00401C4A: 23 C7              and         eax,edi
  00401C4C: 50                 push        eax
  00401C4D: FF 75 08           push        dword ptr [ebp+8]
  00401C50: FF 75 CC           push        dword ptr [ebp-34h]
  00401C53: FF 15 08 72 40 00  call        dword ptr ds:[00407208h]
  00401C59: 89 45 F8           mov         dword ptr [ebp-8],eax
  00401C5C: 39 5D DC           cmp         dword ptr [ebp-24h],ebx
  00401C5F: 0F 8C 26 0C 00 00  jl          0040288B
  00401C65: FF 75 F8           push        dword ptr [ebp-8]
  00401C68: E9 F4 F8 FF FF     jmp         00401561
  00401C6D: 53                 push        ebx
  00401C6E: E8 66 0D 00 00     call        004029D9
  00401C73: 50                 push        eax
  00401C74: FF 15 28 72 40 00  call        dword ptr ds:[00407228h]
  00401C7A: 85 C0              test        eax,eax
  00401C7C: 0F 84 54 FD FF FF  je          004019D6
  00401C82: 8B 45 E0           mov         eax,dword ptr [ebp-20h]
  00401C85: E9 0C 0C 00 00     jmp         00402896
  00401C8A: 6A 02              push        2
  00401C8C: E8 48 0D 00 00     call        004029D9
  00401C91: 50                 push        eax
  00401C92: 6A 01              push        1
  00401C94: E8 40 0D 00 00     call        004029D9
  00401C99: 50                 push        eax
  00401C9A: FF 15 2C 72 40 00  call        dword ptr ds:[0040722Ch]
  00401CA0: E9 13 08 00 00     jmp         004024B8
  00401CA5: A1 A8 EB 42 00     mov         eax,dword ptr ds:[0042EBA8h]
  00401CAA: 03 C2              add         eax,edx
  00401CAC: 50                 push        eax
  00401CAD: 6A EB              push        0FFFFFFEBh
  00401CAF: 53                 push        ebx
  00401CB0: E8 24 0D 00 00     call        004029D9
  00401CB5: 50                 push        eax
  00401CB6: FF 15 30 72 40 00  call        dword ptr ds:[00407230h]
  00401CBC: E9 CA 0B 00 00     jmp         0040288B
  00401CC1: 52                 push        edx
  00401CC2: FF 75 CC           push        dword ptr [ebp-34h]
  00401CC5: FF 15 2C 72 40 00  call        dword ptr ds:[0040722Ch]
  00401CCB: 8B F0              mov         esi,eax
  00401CCD: 8D 45 C0           lea         eax,[ebp-40h]
  00401CD0: 50                 push        eax
  00401CD1: 56                 push        esi
  00401CD2: FF 15 50 72 40 00  call        dword ptr ds:[00407250h]
  00401CD8: 8B 45 CC           mov         eax,dword ptr [ebp-34h]
  00401CDB: 6A 10              push        10h
  00401CDD: 0F AF 45 E4        imul        eax,dword ptr [ebp-1Ch]
  00401CE1: 50                 push        eax
  00401CE2: 8B 45 C8           mov         eax,dword ptr [ebp-38h]
  00401CE5: 0F AF 45 E4        imul        eax,dword ptr [ebp-1Ch]
  00401CE9: 50                 push        eax
  00401CEA: 53                 push        ebx
  00401CEB: 53                 push        ebx
  00401CEC: E8 05 0D 00 00     call        004029F6
  00401CF1: 50                 push        eax
  00401CF2: 53                 push        ebx
  00401CF3: FF 15 34 72 40 00  call        dword ptr ds:[00407234h]
  00401CF9: 50                 push        eax
  00401CFA: 53                 push        ebx
  00401CFB: 68 72 01 00 00     push        172h
  00401D00: 56                 push        esi
  00401D01: FF 15 44 72 40 00  call        dword ptr ds:[00407244h]
  00401D07: 3B C3              cmp         eax,ebx
  00401D09: 0F 84 7C 0B 00 00  je          0040288B
  00401D0F: 50                 push        eax
  00401D10: FF 15 44 70 40 00  call        dword ptr ds:[00407044h]
  00401D16: E9 70 0B 00 00     jmp         0040288B
  00401D1B: 6A 48              push        48h
  00401D1D: 6A 5A              push        5Ah
  00401D1F: FF 75 CC           push        dword ptr [ebp-34h]
  00401D22: FF 15 38 72 40 00  call        dword ptr ds:[00407238h]
  00401D28: 50                 push        eax
  00401D29: FF 15 40 70 40 00  call        dword ptr ds:[00407040h]
  00401D2F: 50                 push        eax
  00401D30: 6A 02              push        2
  00401D32: E8 A2 0C 00 00     call        004029D9
  00401D37: 50                 push        eax
  00401D38: FF 15 30 71 40 00  call        dword ptr ds:[00407130h]
  00401D3E: F7 D8              neg         eax
  00401D40: 6A 03              push        3
  00401D42: A3 84 AF 40 00     mov         dword ptr ds:[0040AF84h],eax
  00401D47: E8 8D 0C 00 00     call        004029D9
  00401D4C: A3 94 AF 40 00     mov         dword ptr ds:[0040AF94h],eax
  00401D51: 8A 45 EC           mov         al,byte ptr [ebp-14h]
  00401D54: FF 75 E0           push        dword ptr [ebp-20h]
  00401D57: 8A C8              mov         cl,al
  00401D59: 80 E1 01           and         cl,1
  00401D5C: C6 05 9B AF 40 00  mov         byte ptr ds:[0040AF9Bh],1
            01
  00401D63: 88 0D 98 AF 40 00  mov         byte ptr ds:[0040AF98h],cl
  00401D69: 8A C8              mov         cl,al
  00401D6B: 80 E1 02           and         cl,2
  00401D6E: 24 04              and         al,4
  00401D70: 68 A0 AF 40 00     push        40AFA0h
  00401D75: 88 0D 99 AF 40 00  mov         byte ptr ds:[0040AF99h],cl
  00401D7B: A2 9A AF 40 00     mov         byte ptr ds:[0040AF9Ah],al
  00401D80: E8 A9 3C 00 00     call        00405A2E
  00401D85: 68 84 AF 40 00     push        40AF84h
  00401D8A: FF 15 4C 70 40 00  call        dword ptr ds:[0040704Ch]
  00401D90: E9 23 07 00 00     jmp         004024B8
  00401D95: 53                 push        ebx
  00401D96: E8 3E 0C 00 00     call        004029D9
  00401D9B: 6A 01              push        1
  00401D9D: 8B F0              mov         esi,eax
  00401D9F: E8 35 0C 00 00     call        004029D9
  00401DA4: 39 5D E8           cmp         dword ptr [ebp-18h],ebx
  00401DA7: 50                 push        eax
  00401DA8: 56                 push        esi
  00401DA9: 75 0B              jne         00401DB6
  00401DAB: FF 15 60 72 40 00  call        dword ptr ds:[00407260h]
  00401DB1: E9 D5 0A 00 00     jmp         0040288B
  00401DB6: FF 15 3C 72 40 00  call        dword ptr ds:[0040723Ch]
  00401DBC: E9 CA 0A 00 00     jmp         0040288B
  00401DC1: 53                 push        ebx
  00401DC2: E8 2F 0C 00 00     call        004029F6
  00401DC7: 6A 31              push        31h
  00401DC9: 8B F0              mov         esi,eax
  00401DCB: E8 26 0C 00 00     call        004029F6
  00401DD0: 6A 22              push        22h
  00401DD2: 8B D8              mov         ebx,eax
  00401DD4: E8 1D 0C 00 00     call        004029F6
  00401DD9: 6A 15              push        15h
  00401DDB: 8B F8              mov         edi,eax
  00401DDD: E8 14 0C 00 00     call        004029F6
  00401DE2: 6A EC              push        0FFFFFFECh
  00401DE4: E8 3A F6 FF FF     call        00401423
  00401DE9: 8A 07              mov         al,byte ptr [edi]
  00401DEB: FF 75 E8           push        dword ptr [ebp-18h]
  00401DEE: F6 D8              neg         al
  00401DF0: 1B C0              sbb         eax,eax
  00401DF2: 68 00 48 43 00     push        434800h
  00401DF7: 23 C7              and         eax,edi
  00401DF9: 50                 push        eax
  00401DFA: 8A 06              mov         al,byte ptr [esi]
  00401DFC: F6 D8              neg         al
  00401DFE: 1B C0              sbb         eax,eax
  00401E00: 53                 push        ebx
  00401E01: 23 C6              and         eax,esi
  00401E03: 50                 push        eax
  00401E04: FF 75 CC           push        dword ptr [ebp-34h]
  00401E07: FF 15 5C 71 40 00  call        dword ptr ds:[0040715Ch]
  00401E0D: 83 F8 21           cmp         eax,21h
  00401E10: 0F 8D 75 0A 00 00  jge         0040288B
  00401E16: E9 41 08 00 00     jmp         0040265C
  00401E1B: 53                 push        ebx
  00401E1C: E8 D5 0B 00 00     call        004029F6
  00401E21: 8B F0              mov         esi,eax
  00401E23: 56                 push        esi
  00401E24: 6A EB              push        0FFFFFFEBh
  00401E26: E8 7F 2F 00 00     call        00404DAA
  00401E2B: 56                 push        esi
  00401E2C: E8 3B 34 00 00     call        0040526C
  00401E31: 3B C3              cmp         eax,ebx
  00401E33: 89 45 08           mov         dword ptr [ebp+8],eax
  00401E36: 0F 84 20 08 00 00  je          0040265C
  00401E3C: 39 5D E4           cmp         dword ptr [ebp-1Ch],ebx
  00401E3F: 74 46              je          00401E87
  00401E41: 8B 35 04 71 40 00  mov         esi,dword ptr ds:[00407104h]
  00401E47: EB 07              jmp         00401E50
  00401E49: 6A 0F              push        0Fh
  00401E4B: E8 17 3F 00 00     call        00405D67
  00401E50: 6A 64              push        64h
  00401E52: FF 75 08           push        dword ptr [ebp+8]
  00401E55: FF D6              call        esi
  00401E57: 3D 02 01 00 00     cmp         eax,102h
  00401E5C: 74 EB              je          00401E49
  00401E5E: 8D 45 F8           lea         eax,[ebp-8]
  00401E61: 50                 push        eax
  00401E62: FF 75 08           push        dword ptr [ebp+8]
  00401E65: FF 15 08 71 40 00  call        dword ptr ds:[00407108h]
  00401E6B: 39 5D E0           cmp         dword ptr [ebp-20h],ebx
  00401E6E: 7C 0B              jl          00401E7B
  00401E70: FF 75 F8           push        dword ptr [ebp-8]
  00401E73: 57                 push        edi
  00401E74: E8 F1 3A 00 00     call        0040596A
  00401E79: EB 0C              jmp         00401E87
  00401E7B: 39 5D F8           cmp         dword ptr [ebp-8],ebx
  00401E7E: 74 07              je          00401E87
  00401E80: C7 45 FC 01 00 00  mov         dword ptr [ebp-4],1
            00
  00401E87: FF 75 08           push        dword ptr [ebp+8]
  00401E8A: FF 15 EC 70 40 00  call        dword ptr ds:[004070ECh]
  00401E90: E9 F6 09 00 00     jmp         0040288B
  00401E95: 6A 02              push        2
  00401E97: E8 5A 0B 00 00     call        004029F6
  00401E9C: 50                 push        eax
  00401E9D: E8 65 3E 00 00     call        00405D07
  00401EA2: 3B C3              cmp         eax,ebx
  00401EA4: 89 45 08           mov         dword ptr [ebp+8],eax
  00401EA7: 74 13              je          00401EBC
  00401EA9: 8B D8              mov         ebx,eax
  00401EAB: FF 73 14           push        dword ptr [ebx+14h]
  00401EAE: 57                 push        edi
  00401EAF: E8 B6 3A 00 00     call        0040596A
  00401EB4: FF 73 18           push        dword ptr [ebx+18h]
  00401EB7: E9 A5 F6 FF FF     jmp         00401561
  00401EBC: 88 1E              mov         byte ptr [esi],bl
  00401EBE: 88 1F              mov         byte ptr [edi],bl
  00401EC0: E9 97 07 00 00     jmp         0040265C
  00401EC5: 6A EE              push        0FFFFFFEEh
  00401EC7: E8 2A 0B 00 00     call        004029F6
  00401ECC: 8D 4D D0           lea         ecx,[ebp-30h]
  00401ECF: 89 45 D4           mov         dword ptr [ebp-2Ch],eax
  00401ED2: 51                 push        ecx
  00401ED3: 50                 push        eax
  00401ED4: E8 6D 4D 00 00     call        00406C46
  00401ED9: 88 1E              mov         byte ptr [esi],bl
  00401EDB: 3B C3              cmp         eax,ebx
  00401EDD: 89 45 F8           mov         dword ptr [ebp-8],eax
  00401EE0: 88 1F              mov         byte ptr [edi],bl
  00401EE2: C7 45 FC 01 00 00  mov         dword ptr [ebp-4],1
            00
  00401EE9: 0F 84 9C 09 00 00  je          0040288B
  00401EEF: 50                 push        eax
  00401EF0: 6A 40              push        40h
  00401EF2: FF 15 00 71 40 00  call        dword ptr ds:[00407100h]
  00401EF8: 3B C3              cmp         eax,ebx
  00401EFA: 89 45 08           mov         dword ptr [ebp+8],eax
  00401EFD: 0F 84 88 09 00 00  je          0040288B
  00401F03: 50                 push        eax
  00401F04: FF 75 F8           push        dword ptr [ebp-8]
  00401F07: 53                 push        ebx
  00401F08: FF 75 D4           push        dword ptr [ebp-2Ch]
  00401F0B: E8 30 4D 00 00     call        00406C40
  00401F10: 85 C0              test        eax,eax
  00401F12: 74 34              je          00401F48
  00401F14: 8D 45 BC           lea         eax,[ebp-44h]
  00401F17: 50                 push        eax
  00401F18: 8D 45 CC           lea         eax,[ebp-34h]
  00401F1B: 50                 push        eax
  00401F1C: 68 10 90 40 00     push        409010h
  00401F21: FF 75 08           push        dword ptr [ebp+8]
  00401F24: E8 11 4D 00 00     call        00406C3A
  00401F29: 85 C0              test        eax,eax
  00401F2B: 74 1B              je          00401F48
  00401F2D: 8B 45 CC           mov         eax,dword ptr [ebp-34h]
  00401F30: FF 70 08           push        dword ptr [eax+8]
  00401F33: 56                 push        esi
  00401F34: E8 31 3A 00 00     call        0040596A
  00401F39: 8B 45 CC           mov         eax,dword ptr [ebp-34h]
  00401F3C: FF 70 0C           push        dword ptr [eax+0Ch]
  00401F3F: 57                 push        edi
  00401F40: E8 25 3A 00 00     call        0040596A
  00401F45: 89 5D FC           mov         dword ptr [ebp-4],ebx
  00401F48: FF 75 08           push        dword ptr [ebp+8]
  00401F4B: E9 25 FC FF FF     jmp         00401B75
  00401F50: 39 1D 18 EC 42 00  cmp         dword ptr ds:[0042EC18h],ebx
  00401F56: C7 45 FC 01 00 00  mov         dword ptr [ebp-4],1
            00
  00401F5D: 0F 8C B6 00 00 00  jl          00402019
  00401F63: 6A F0              push        0FFFFFFF0h
  00401F65: E8 8C 0A 00 00     call        004029F6
  00401F6A: 6A 01              push        1
  00401F6C: 8B F0              mov         esi,eax
  00401F6E: E8 83 0A 00 00     call        004029F6
  00401F73: 39 5D EC           cmp         dword ptr [ebp-14h],ebx
  00401F76: 89 45 08           mov         dword ptr [ebp+8],eax
  00401F79: 74 0D              je          00401F88
  00401F7B: 56                 push        esi
  00401F7C: FF 15 0C 71 40 00  call        dword ptr ds:[0040710Ch]
  00401F82: 8B F8              mov         edi,eax
  00401F84: 3B FB              cmp         edi,ebx
  00401F86: 75 10              jne         00401F98
  00401F88: 6A 08              push        8
  00401F8A: 53                 push        ebx
  00401F8B: 56                 push        esi
  00401F8C: FF 15 10 71 40 00  call        dword ptr ds:[00407110h]
  00401F92: 8B F8              mov         edi,eax
  00401F94: 3B FB              cmp         edi,ebx
  00401F96: 74 7A              je          00402012
  00401F98: FF 75 08           push        dword ptr [ebp+8]
  00401F9B: 57                 push        edi
  00401F9C: FF 15 14 71 40 00  call        dword ptr ds:[00407114h]
  00401FA2: 8B F0              mov         esi,eax
  00401FA4: 3B F3              cmp         esi,ebx
  00401FA6: 74 3D              je          00401FE5
  00401FA8: 39 5D E4           cmp         dword ptr [ebp-1Ch],ebx
  00401FAB: 89 5D FC           mov         dword ptr [ebp-4],ebx
  00401FAE: 74 17              je          00401FC7
  00401FB0: FF 75 E4           push        dword ptr [ebp-1Ch]
  00401FB3: E8 6B F4 FF FF     call        00401423
  00401FB8: FF D6              call        esi
  00401FBA: 85 C0              test        eax,eax
  00401FBC: 74 31              je          00401FEF
  00401FBE: C7 45 FC 01 00 00  mov         dword ptr [ebp-4],1
            00
  00401FC5: EB 28              jmp         00401FEF
  00401FC7: 68 00 90 40 00     push        409000h
  00401FCC: 68 80 AF 40 00     push        40AF80h
  00401FD1: 68 00 F0 42 00     push        42F000h
  00401FD6: 68 00 04 00 00     push        400h
  00401FDB: FF 75 CC           push        dword ptr [ebp-34h]
  00401FDE: FF D6              call        esi
  00401FE0: 83 C4 14           add         esp,14h
  00401FE3: EB 0A              jmp         00401FEF
  00401FE5: FF 75 08           push        dword ptr [ebp+8]
  00401FE8: 6A F7              push        0FFFFFFF7h
  00401FEA: E8 BB 2D 00 00     call        00404DAA
  00401FEF: 39 5D E8           cmp         dword ptr [ebp-18h],ebx
  00401FF2: 0F 85 93 08 00 00  jne         0040288B
  00401FF8: 57                 push        edi
  00401FF9: E8 F7 14 00 00     call        004034F5
  00401FFE: 85 C0              test        eax,eax
  00402000: 0F 84 85 08 00 00  je          0040288B
  00402006: 57                 push        edi
  00402007: FF 15 18 71 40 00  call        dword ptr ds:[00407118h]
  0040200D: E9 79 08 00 00     jmp         0040288B
  00402012: 6A F6              push        0FFFFFFF6h
  00402014: E9 4B 01 00 00     jmp         00402164
  00402019: 6A E7              push        0FFFFFFE7h
  0040201B: E9 44 01 00 00     jmp         00402164
  00402020: 6A F0              push        0FFFFFFF0h
  00402022: E8 CF 09 00 00     call        004029F6
  00402027: 6A DF              push        0FFFFFFDFh
  00402029: 89 45 D0           mov         dword ptr [ebp-30h],eax
  0040202C: E8 C5 09 00 00     call        004029F6
  00402031: 6A 02              push        2
  00402033: 8B F0              mov         esi,eax
  00402035: E8 BC 09 00 00     call        004029F6
  0040203A: 6A CD              push        0FFFFFFCDh
  0040203C: 89 45 D4           mov         dword ptr [ebp-2Ch],eax
  0040203F: E8 B2 09 00 00     call        004029F6
  00402044: 6A 45              push        45h
  00402046: 89 45 F8           mov         dword ptr [ebp-8],eax
  00402049: E8 A8 09 00 00     call        004029F6
  0040204E: 56                 push        esi
  0040204F: 89 45 BC           mov         dword ptr [ebp-44h],eax
  00402052: E8 15 35 00 00     call        0040556C
  00402057: 85 C0              test        eax,eax
  00402059: 75 07              jne         00402062
  0040205B: 6A 21              push        21h
  0040205D: E8 94 09 00 00     call        004029F6
  00402062: 8D 45 08           lea         eax,[ebp+8]
  00402065: 50                 push        eax
  00402066: 68 80 74 40 00     push        407480h
  0040206B: 6A 01              push        1
  0040206D: 53                 push        ebx
  0040206E: 68 90 74 40 00     push        407490h
  00402073: FF 15 84 72 40 00  call        dword ptr ds:[00407284h]
  00402079: 3B C3              cmp         eax,ebx
  0040207B: 0F 8C DA 00 00 00  jl          0040215B
  00402081: 8B 45 08           mov         eax,dword ptr [ebp+8]
  00402084: 8D 55 CC           lea         edx,[ebp-34h]
  00402087: 52                 push        edx
  00402088: 68 A0 74 40 00     push        4074A0h
  0040208D: 8B 08              mov         ecx,dword ptr [eax]
  0040208F: 50                 push        eax
  00402090: FF 11              call        dword ptr [ecx]
  00402092: 8B F8              mov         edi,eax
  00402094: 3B FB              cmp         edi,ebx
  00402096: 0F 8C B2 00 00 00  jl          0040214E
  0040209C: 8B 45 08           mov         eax,dword ptr [ebp+8]
  0040209F: 56                 push        esi
  004020A0: 50                 push        eax
  004020A1: 8B 08              mov         ecx,dword ptr [eax]
  004020A3: FF 51 50           call        dword ptr [ecx+50h]
  004020A6: 8B F8              mov         edi,eax
  004020A8: 8B 45 08           mov         eax,dword ptr [ebp+8]
  004020AB: 68 00 48 43 00     push        434800h
  004020B0: 50                 push        eax
  004020B1: 8B 08              mov         ecx,dword ptr [eax]
  004020B3: FF 51 24           call        dword ptr [ecx+24h]
  004020B6: 8B 4D EC           mov         ecx,dword ptr [ebp-14h]
  004020B9: BE FF 00 00 00     mov         esi,0FFh
  004020BE: 8B C1              mov         eax,ecx
  004020C0: C1 F8 08           sar         eax,8
  004020C3: 23 C6              and         eax,esi
  004020C5: 74 0D              je          004020D4
  004020C7: 8B 4D 08           mov         ecx,dword ptr [ebp+8]
  004020CA: 50                 push        eax
  004020CB: 51                 push        ecx
  004020CC: 8B 11              mov         edx,dword ptr [ecx]
  004020CE: FF 52 3C           call        dword ptr [edx+3Ch]
  004020D1: 8B 4D EC           mov         ecx,dword ptr [ebp-14h]
  004020D4: 8B 45 08           mov         eax,dword ptr [ebp+8]
  004020D7: C1 F9 10           sar         ecx,10h
  004020DA: 8B 10              mov         edx,dword ptr [eax]
  004020DC: 51                 push        ecx
  004020DD: 50                 push        eax
  004020DE: FF 52 34           call        dword ptr [edx+34h]
  004020E1: 8B 45 F8           mov         eax,dword ptr [ebp-8]
  004020E4: 38 18              cmp         byte ptr [eax],bl
  004020E6: 74 12              je          004020FA
  004020E8: 8B 55 EC           mov         edx,dword ptr [ebp-14h]
  004020EB: 8B 45 08           mov         eax,dword ptr [ebp+8]
  004020EE: 23 D6              and         edx,esi
  004020F0: 8B 08              mov         ecx,dword ptr [eax]
  004020F2: 52                 push        edx
  004020F3: FF 75 F8           push        dword ptr [ebp-8]
  004020F6: 50                 push        eax
  004020F7: FF 51 44           call        dword ptr [ecx+44h]
  004020FA: 8B 45 08           mov         eax,dword ptr [ebp+8]
  004020FD: FF 75 D4           push        dword ptr [ebp-2Ch]
  00402100: 8B 08              mov         ecx,dword ptr [eax]
  00402102: 50                 push        eax
  00402103: FF 51 2C           call        dword ptr [ecx+2Ch]
  00402106: 8B 45 08           mov         eax,dword ptr [ebp+8]
  00402109: FF 75 BC           push        dword ptr [ebp-44h]
  0040210C: 8B 08              mov         ecx,dword ptr [eax]
  0040210E: 50                 push        eax
  0040210F: FF 51 1C           call        dword ptr [ecx+1Ch]
  00402112: 3B FB              cmp         edi,ebx
  00402114: 7C 2F              jl          00402145
  00402116: BE 78 93 40 00     mov         esi,409378h
  0040211B: 68 00 04 00 00     push        400h
  00402120: 56                 push        esi
  00402121: 6A FF              push        0FFFFFFFFh
  00402123: FF 75 D0           push        dword ptr [ebp-30h]
  00402126: BF 05 40 00 80     mov         edi,80004005h
  0040212B: 53                 push        ebx
  0040212C: 53                 push        ebx
  0040212D: FF 15 1C 71 40 00  call        dword ptr ds:[0040711Ch]
  00402133: 85 C0              test        eax,eax
  00402135: 74 0E              je          00402145
  00402137: 8B 45 CC           mov         eax,dword ptr [ebp-34h]
  0040213A: 6A 01              push        1
  0040213C: 56                 push        esi
  0040213D: 50                 push        eax
  0040213E: 8B 08              mov         ecx,dword ptr [eax]
  00402140: FF 51 18           call        dword ptr [ecx+18h]
  00402143: 8B F8              mov         edi,eax
  00402145: 8B 45 CC           mov         eax,dword ptr [ebp-34h]
  00402148: 50                 push        eax
  00402149: 8B 08              mov         ecx,dword ptr [eax]
  0040214B: FF 51 08           call        dword ptr [ecx+8]
  0040214E: 8B 45 08           mov         eax,dword ptr [ebp+8]
  00402151: 50                 push        eax
  00402152: 8B 08              mov         ecx,dword ptr [eax]
  00402154: FF 51 08           call        dword ptr [ecx+8]
  00402157: 3B FB              cmp         edi,ebx
  00402159: 7D 13              jge         0040216E
  0040215B: C7 45 FC 01 00 00  mov         dword ptr [ebp-4],1
            00
  00402162: 6A F0              push        0FFFFFFF0h
  00402164: E8 BA F2 FF FF     call        00401423
  00402169: E9 1D 07 00 00     jmp         0040288B
  0040216E: 6A F4              push        0FFFFFFF4h
  00402170: EB F2              jmp         00402164
  00402172: 53                 push        ebx
  00402173: E8 7E 08 00 00     call        004029F6
  00402178: 6A 11              push        11h
  0040217A: 8B F0              mov         esi,eax
  0040217C: E8 75 08 00 00     call        004029F6
  00402181: 6A 23              push        23h
  00402183: 8B F8              mov         edi,eax
  00402185: E8 6C 08 00 00     call        004029F6
  0040218A: 56                 push        esi
  0040218B: 89 45 08           mov         dword ptr [ebp+8],eax
  0040218E: E8 74 3B 00 00     call        00405D07
  00402193: 85 C0              test        eax,eax
  00402195: 75 0D              jne         004021A4
  00402197: 53                 push        ebx
  00402198: 6A F9              push        0FFFFFFF9h
  0040219A: E8 0B 2C 00 00     call        00404DAA
  0040219F: E9 B8 04 00 00     jmp         0040265C
  004021A4: 8B 45 CC           mov         eax,dword ptr [ebp-34h]
  004021A7: 56                 push        esi
  004021A8: 89 45 9C           mov         dword ptr [ebp-64h],eax
  004021AB: C7 45 A0 02 00 00  mov         dword ptr [ebp-60h],2
            00
  004021B2: E8 6B 38 00 00     call        00405A22
  004021B7: 57                 push        edi
  004021B8: 88 5C 30 01        mov         byte ptr [eax+esi+1],bl
  004021BC: E8 61 38 00 00     call        00405A22
  004021C1: 88 5C 38 01        mov         byte ptr [eax+edi+1],bl
  004021C5: 8B 45 08           mov         eax,dword ptr [ebp+8]
  004021C8: 66 8B 4D E4        mov         cx,word ptr [ebp-1Ch]
  004021CC: 50                 push        eax
  004021CD: 53                 push        ebx
  004021CE: 89 75 A4           mov         dword ptr [ebp-5Ch],esi
  004021D1: 89 7D A8           mov         dword ptr [ebp-58h],edi
  004021D4: 89 45 B6           mov         dword ptr [ebp-4Ah],eax
  004021D7: 66 89 4D AC        mov         word ptr [ebp-54h],cx
  004021DB: E8 CA 2B 00 00     call        00404DAA
  004021E0: 8D 45 9C           lea         eax,[ebp-64h]
  004021E3: 50                 push        eax
  004021E4: FF 15 60 71 40 00  call        dword ptr ds:[00407160h]
  004021EA: 85 C0              test        eax,eax
  004021EC: 0F 84 99 06 00 00  je          0040288B
  004021F2: EB A3              jmp         00402197
  004021F4: 3D 0D F0 AD 0B     cmp         eax,0BADF00Dh
  004021F9: 74 1D              je          00402218
  004021FB: 68 10 00 20 00     push        200010h
  00402200: 6A E8              push        0FFFFFFE8h
  00402202: 53                 push        ebx
  00402203: E8 26 38 00 00     call        00405A2E
  00402208: 50                 push        eax
  00402209: E8 BF 30 00 00     call        004052CD
  0040220E: B8 FF FF FF 7F     mov         eax,7FFFFFFFh
  00402213: E9 7E 06 00 00     jmp         00402896
  00402218: FF 05 F4 EB 42 00  inc         dword ptr ds:[0042EBF4h]
  0040221E: E9 68 06 00 00     jmp         0040288B
  00402223: 33 F6              xor         esi,esi
  00402225: 33 FF              xor         edi,edi
  00402227: 3B C3              cmp         eax,ebx
  00402229: 74 0B              je          00402236
  0040222B: 53                 push        ebx
  0040222C: E8 C5 07 00 00     call        004029F6
  00402231: 8B 55 E0           mov         edx,dword ptr [ebp-20h]
  00402234: 8B F0              mov         esi,eax
  00402236: 3B D3              cmp         edx,ebx
  00402238: 74 09              je          00402243
  0040223A: 6A 11              push        11h
  0040223C: E8 B5 07 00 00     call        004029F6
  00402241: 8B F8              mov         edi,eax
  00402243: 39 5D EC           cmp         dword ptr [ebp-14h],ebx
  00402246: 74 09              je          00402251
  00402248: 6A 22              push        22h
  0040224A: E8 A7 07 00 00     call        004029F6
  0040224F: 8B D8              mov         ebx,eax
  00402251: 6A CD              push        0FFFFFFCDh
  00402253: E8 9E 07 00 00     call        004029F6
  00402258: 50                 push        eax
  00402259: 53                 push        ebx
  0040225A: 57                 push        edi
  0040225B: 56                 push        esi
  0040225C: FF 15 20 71 40 00  call        dword ptr ds:[00407120h]
  00402262: E9 3F F3 FF FF     jmp         004015A6
  00402267: 6A 01              push        1
  00402269: C7 45 08 21 4E 7E  mov         dword ptr [ebp+8],7E4E21h
            00
  00402270: E8 81 07 00 00     call        004029F6
  00402275: 6A 12              push        12h
  00402277: 8B F8              mov         edi,eax
  00402279: E8 78 07 00 00     call        004029F6
  0040227E: 6A DD              push        0FFFFFFDDh
  00402280: 89 45 D0           mov         dword ptr [ebp-30h],eax
  00402283: E8 6E 07 00 00     call        004029F6
  00402288: 50                 push        eax
  00402289: 68 FF 03 00 00     push        3FFh
  0040228E: 8D 45 08           lea         eax,[ebp+8]
  00402291: 56                 push        esi
  00402292: 50                 push        eax
  00402293: FF 75 D0           push        dword ptr [ebp-30h]
  00402296: 57                 push        edi
  00402297: FF 15 24 71 40 00  call        dword ptr ds:[00407124h]
  0040229D: 8B 06              mov         eax,dword ptr [esi]
  0040229F: 3B 45 08           cmp         eax,dword ptr [ebp+8]
  004022A2: E9 6F F4 FF FF     jmp         00401716
  004022A7: 39 5D EC           cmp         dword ptr [ebp-14h],ebx
  004022AA: 75 2B              jne         004022D7
  004022AC: 6A 02              push        2
  004022AE: E8 4D 08 00 00     call        00402B00
  004022B3: 8B F0              mov         esi,eax
  004022B5: 3B F3              cmp         esi,ebx
  004022B7: 0F 84 9F 03 00 00  je          0040265C
  004022BD: 6A 33              push        33h
  004022BF: E8 32 07 00 00     call        004029F6
  004022C4: 50                 push        eax
  004022C5: 56                 push        esi
  004022C6: FF 15 18 70 40 00  call        dword ptr ds:[00407018h]
  004022CC: 56                 push        esi
  004022CD: 8B F8              mov         edi,eax
  004022CF: FF 15 1C 70 40 00  call        dword ptr ds:[0040701Ch]
  004022D5: EB 1F              jmp         004022F6
  004022D7: 6A 22              push        22h
  004022D9: E8 18 07 00 00     call        004029F6
  004022DE: 8B 4D EC           mov         ecx,dword ptr [ebp-14h]
  004022E1: 83 E1 02           and         ecx,2
  004022E4: 51                 push        ecx
  004022E5: 50                 push        eax
  004022E6: FF 75 E0           push        dword ptr [ebp-20h]
  004022E9: E8 FD 07 00 00     call        00402AEB
  004022EE: 50                 push        eax
  004022EF: E8 42 07 00 00     call        00402A36
  004022F4: 8B F8              mov         edi,eax
  004022F6: 3B FB              cmp         edi,ebx
  004022F8: 0F 84 8D 05 00 00  je          0040288B
  004022FE: E9 59 03 00 00     jmp         0040265C
  00402303: 50                 push        eax
  00402304: E8 E2 07 00 00     call        00402AEB
  00402309: 8B 75 EC           mov         esi,dword ptr [ebp-14h]
  0040230C: 8B F8              mov         edi,eax
  0040230E: 8B 45 F0           mov         eax,dword ptr [ebp-10h]
  00402311: 6A 02              push        2
  00402313: 89 45 D0           mov         dword ptr [ebp-30h],eax
  00402316: E8 DB 06 00 00     call        004029F6
  0040231B: 6A 11              push        11h
  0040231D: 89 45 BC           mov         dword ptr [ebp-44h],eax
  00402320: E8 D1 06 00 00     call        004029F6
  00402325: 8D 4D 08           lea         ecx,[ebp+8]
  00402328: 53                 push        ebx
  00402329: 51                 push        ecx
  0040232A: 8B 0D 10 EC 42 00  mov         ecx,dword ptr ds:[0042EC10h]
  00402330: 83 C9 02           or          ecx,2
  00402333: 53                 push        ebx
  00402334: 51                 push        ecx
  00402335: 53                 push        ebx
  00402336: 53                 push        ebx
  00402337: 53                 push        ebx
  00402338: 50                 push        eax
  00402339: 57                 push        edi
  0040233A: C7 45 FC 01 00 00  mov         dword ptr [ebp-4],1
            00
  00402341: FF 15 20 70 40 00  call        dword ptr ds:[00407020h]
  00402347: 85 C0              test        eax,eax
  00402349: 0F 85 3C 05 00 00  jne         0040288B
  0040234F: 83 FE 01           cmp         esi,1
  00402352: BF 80 A3 40 00     mov         edi,40A380h
  00402357: 75 0E              jne         00402367
  00402359: 6A 23              push        23h
  0040235B: E8 96 06 00 00     call        004029F6
  00402360: 57                 push        edi
  00402361: E8 BC 36 00 00     call        00405A22
  00402366: 40                 inc         eax
  00402367: 83 FE 04           cmp         esi,4
  0040236A: 75 0E              jne         0040237A
  0040236C: 6A 03              push        3
  0040236E: E8 66 06 00 00     call        004029D9
  00402373: 56                 push        esi
  00402374: A3 80 A3 40 00     mov         dword ptr ds:[0040A380h],eax
  00402379: 58                 pop         eax
  0040237A: 83 FE 03           cmp         esi,3
  0040237D: 75 0F              jne         0040238E
  0040237F: 68 00 0C 00 00     push        0C00h
  00402384: 57                 push        edi
  00402385: 53                 push        ebx
  00402386: FF 75 E8           push        dword ptr [ebp-18h]
  00402389: E8 CD 0A 00 00     call        00402E5B
  0040238E: 50                 push        eax
  0040238F: 57                 push        edi
  00402390: FF 75 D0           push        dword ptr [ebp-30h]
  00402393: 53                 push        ebx
  00402394: FF 75 BC           push        dword ptr [ebp-44h]
  00402397: FF 75 08           push        dword ptr [ebp+8]
  0040239A: FF 15 04 70 40 00  call        dword ptr ds:[00407004h]
  004023A0: 85 C0              test        eax,eax
  004023A2: 75 03              jne         004023A7
  004023A4: 89 5D FC           mov         dword ptr [ebp-4],ebx
  004023A7: FF 75 08           push        dword ptr [ebp+8]
  004023AA: E9 CE 00 00 00     jmp         0040247D
  004023AF: 68 19 00 02 00     push        20019h
  004023B4: E8 47 07 00 00     call        00402B00
  004023B9: 6A 33              push        33h
  004023BB: 8B F8              mov         edi,eax
  004023BD: E8 34 06 00 00     call        004029F6
  004023C2: 3B FB              cmp         edi,ebx
  004023C4: 88 1E              mov         byte ptr [esi],bl
  004023C6: 0F 84 90 02 00 00  je          0040265C
  004023CC: 8D 4D F8           lea         ecx,[ebp-8]
  004023CF: C7 45 F8 FF 03 00  mov         dword ptr [ebp-8],3FFh
            00
  004023D6: 51                 push        ecx
  004023D7: 8D 4D 08           lea         ecx,[ebp+8]
  004023DA: 56                 push        esi
  004023DB: 51                 push        ecx
  004023DC: 53                 push        ebx
  004023DD: 50                 push        eax
  004023DE: 57                 push        edi
  004023DF: FF 15 00 70 40 00  call        dword ptr ds:[00407000h]
  004023E5: 33 C9              xor         ecx,ecx
  004023E7: 41                 inc         ecx
  004023E8: 85 C0              test        eax,eax
  004023EA: 75 34              jne         00402420
  004023EC: 83 7D 08 04        cmp         dword ptr [ebp+8],4
  004023F0: 74 19              je          0040240B
  004023F2: 39 4D 08           cmp         dword ptr [ebp+8],ecx
  004023F5: 74 06              je          004023FD
  004023F7: 83 7D 08 02        cmp         dword ptr [ebp+8],2
  004023FB: 75 23              jne         00402420
  004023FD: 8B 45 EC           mov         eax,dword ptr [ebp-14h]
  00402400: 89 45 FC           mov         dword ptr [ebp-4],eax
  00402403: 8B 45 F8           mov         eax,dword ptr [ebp-8]
  00402406: 88 1C 30           mov         byte ptr [eax+esi],bl
  00402409: EB 71              jmp         0040247C
  0040240B: FF 36              push        dword ptr [esi]
  0040240D: 33 C0              xor         eax,eax
  0040240F: 39 5D EC           cmp         dword ptr [ebp-14h],ebx
  00402412: 56                 push        esi
  00402413: 0F 94 C0           sete        al
  00402416: 89 45 FC           mov         dword ptr [ebp-4],eax
  00402419: E8 4C 35 00 00     call        0040596A
  0040241E: EB 5C              jmp         0040247C
  00402420: 88 1E              mov         byte ptr [esi],bl
  00402422: 89 4D FC           mov         dword ptr [ebp-4],ecx
  00402425: EB 55              jmp         0040247C
  00402427: 68 19 00 02 00     push        20019h
  0040242C: E8 CF 06 00 00     call        00402B00
  00402431: 6A 03              push        3
  00402433: 8B F8              mov         edi,eax
  00402435: E8 9F 05 00 00     call        004029D9
  0040243A: 3B FB              cmp         edi,ebx
  0040243C: 88 1E              mov         byte ptr [esi],bl
  0040243E: 0F 84 18 02 00 00  je          0040265C
  00402444: 39 5D EC           cmp         dword ptr [ebp-14h],ebx
  00402447: B9 FF 03 00 00     mov         ecx,3FFh
  0040244C: 89 4D 08           mov         dword ptr [ebp+8],ecx
  0040244F: 74 0C              je          0040245D
  00402451: 51                 push        ecx
  00402452: 56                 push        esi
  00402453: 50                 push        eax
  00402454: 57                 push        edi
  00402455: FF 15 08 70 40 00  call        dword ptr ds:[00407008h]
  0040245B: EB 19              jmp         00402476
  0040245D: 53                 push        ebx
  0040245E: 53                 push        ebx
  0040245F: 53                 push        ebx
  00402460: 8D 4D 08           lea         ecx,[ebp+8]
  00402463: 53                 push        ebx
  00402464: 51                 push        ecx
  00402465: 56                 push        esi
  00402466: 50                 push        eax
  00402467: 57                 push        edi
  00402468: FF 15 0C 70 40 00  call        dword ptr ds:[0040700Ch]
  0040246E: 85 C0              test        eax,eax
  00402470: 0F 85 E6 01 00 00  jne         0040265C
  00402476: 88 9E FF 03 00 00  mov         byte ptr [esi+000003FFh],bl
  0040247C: 57                 push        edi
  0040247D: FF 15 1C 70 40 00  call        dword ptr ds:[0040701Ch]
  00402483: E9 03 04 00 00     jmp         0040288B
  00402488: 38 1E              cmp         byte ptr [esi],bl
  0040248A: 0F 84 FB 03 00 00  je          0040288B
  00402490: 56                 push        esi
  00402491: E8 ED 34 00 00     call        00405983
  00402496: 50                 push        eax
  00402497: E9 EE F9 FF FF     jmp         00401E8A
  0040249C: 6A ED              push        0FFFFFFEDh
  0040249E: E8 53 05 00 00     call        004029F6
  004024A3: FF 75 E4           push        dword ptr [ebp-1Ch]
  004024A6: FF 75 E0           push        dword ptr [ebp-20h]
  004024A9: 50                 push        eax
  004024AA: E8 34 32 00 00     call        004056E3
  004024AF: 83 F8 FF           cmp         eax,0FFFFFFFFh
  004024B2: 0F 84 A2 01 00 00  je          0040265A
  004024B8: 50                 push        eax
  004024B9: E9 A3 F0 FF FF     jmp         00401561
  004024BE: 39 5D E4           cmp         dword ptr [ebp-1Ch],ebx
  004024C1: 74 11              je          004024D4
  004024C3: 6A 01              push        1
  004024C5: E8 0F 05 00 00     call        004029D9
  004024CA: A2 80 9F 40 00     mov         byte ptr ds:[00409F80h],al
  004024CF: 33 C0              xor         eax,eax
  004024D1: 40                 inc         eax
  004024D2: EB 0D              jmp         004024E1
  004024D4: 6A 11              push        11h
  004024D6: E8 1B 05 00 00     call        004029F6
  004024DB: 50                 push        eax
  004024DC: E8 41 35 00 00     call        00405A22
  004024E1: 38 1E              cmp         byte ptr [esi],bl
  004024E3: 0F 84 73 01 00 00  je          0040265C
  004024E9: 8D 4D 08           lea         ecx,[ebp+8]
  004024EC: 53                 push        ebx
  004024ED: 51                 push        ecx
  004024EE: 50                 push        eax
  004024EF: 68 80 9F 40 00     push        409F80h
  004024F4: 56                 push        esi
  004024F5: E8 89 34 00 00     call        00405983
  004024FA: 50                 push        eax
  004024FB: FF 15 28 71 40 00  call        dword ptr ds:[00407128h]
  00402501: E9 A0 F0 FF FF     jmp         004015A6
  00402506: 6A 02              push        2
  00402508: 89 5D D4           mov         dword ptr [ebp-2Ch],ebx
  0040250B: E8 C9 04 00 00     call        004029D9
  00402510: 83 F8 01           cmp         eax,1
  00402513: 89 45 CC           mov         dword ptr [ebp-34h],eax
  00402516: 0F 8C 6F 03 00 00  jl          0040288B
  0040251C: B9 FF 03 00 00     mov         ecx,3FFh
  00402521: 3B C1              cmp         eax,ecx
  00402523: 7E 03              jle         00402528
  00402525: 89 4D CC           mov         dword ptr [ebp-34h],ecx
  00402528: 38 1E              cmp         byte ptr [esi],bl
  0040252A: 0F 84 8E 00 00 00  je          004025BE
  00402530: 56                 push        esi
  00402531: 88 5D 0B           mov         byte ptr [ebp+0Bh],bl
  00402534: E8 4A 34 00 00     call        00405983
  00402539: 39 5D CC           cmp         dword ptr [ebp-34h],ebx
  0040253C: 89 45 F8           mov         dword ptr [ebp-8],eax
  0040253F: 7E 7D              jle         004025BE
  00402541: 8B 75 D4           mov         esi,dword ptr [ebp-2Ch]
  00402544: 8D 45 D0           lea         eax,[ebp-30h]
  00402547: 53                 push        ebx
  00402548: 50                 push        eax
  00402549: 8D 45 F7           lea         eax,[ebp-9]
  0040254C: 6A 01              push        1
  0040254E: 50                 push        eax
  0040254F: FF 75 F8           push        dword ptr [ebp-8]
  00402552: FF 15 2C 71 40 00  call        dword ptr ds:[0040712Ch]
  00402558: 85 C0              test        eax,eax
  0040255A: 74 65              je          004025C1
  0040255C: 83 7D D0 01        cmp         dword ptr [ebp-30h],1
  00402560: 75 5F              jne         004025C1
  00402562: 39 5D E8           cmp         dword ptr [ebp-18h],ebx
  00402565: 75 21              jne         00402588
  00402567: 80 7D 0B 0D        cmp         byte ptr [ebp+0Bh],0Dh
  0040256B: 74 2B              je          00402598
  0040256D: 80 7D 0B 0A        cmp         byte ptr [ebp+0Bh],0Ah
  00402571: 74 25              je          00402598
  00402573: 8A 45 F7           mov         al,byte ptr [ebp-9]
  00402576: 88 04 3E           mov         byte ptr [esi+edi],al
  00402579: 46                 inc         esi
  0040257A: 3A C3              cmp         al,bl
  0040257C: 88 45 0B           mov         byte ptr [ebp+0Bh],al
  0040257F: 74 40              je          004025C1
  00402581: 3B 75 CC           cmp         esi,dword ptr [ebp-34h]
  00402584: 7C BE              jl          00402544
  00402586: EB 39              jmp         004025C1
  00402588: 0F B6 45 F7        movzx       eax,byte ptr [ebp-9]
  0040258C: 50                 push        eax
  0040258D: 57                 push        edi
  0040258E: E8 D7 33 00 00     call        0040596A
  00402593: E9 FC 02 00 00     jmp         00402894
  00402598: 8A 45 F7           mov         al,byte ptr [ebp-9]
  0040259B: 38 45 0B           cmp         byte ptr [ebp+0Bh],al
  0040259E: 74 0E              je          004025AE
  004025A0: 3C 0D              cmp         al,0Dh
  004025A2: 74 04              je          004025A8
  004025A4: 3C 0A              cmp         al,0Ah
  004025A6: 75 06              jne         004025AE
  004025A8: 88 04 3E           mov         byte ptr [esi+edi],al
  004025AB: 46                 inc         esi
  004025AC: EB 13              jmp         004025C1
  004025AE: 6A 01              push        1
  004025B0: 53                 push        ebx
  004025B1: 6A FF              push        0FFFFFFFFh
  004025B3: FF 75 F8           push        dword ptr [ebp-8]
  004025B6: FF 15 34 71 40 00  call        dword ptr ds:[00407134h]
  004025BC: EB 03              jmp         004025C1
  004025BE: 8B 75 D4           mov         esi,dword ptr [ebp-2Ch]
  004025C1: 88 1C 3E           mov         byte ptr [esi+edi],bl
  004025C4: 3B F3              cmp         esi,ebx
  004025C6: E9 DD EF FF FF     jmp         004015A8
  004025CB: 38 1E              cmp         byte ptr [esi],bl
  004025CD: 0F 84 B8 02 00 00  je          0040288B
  004025D3: FF 75 E8           push        dword ptr [ebp-18h]
  004025D6: 53                 push        ebx
  004025D7: 6A 02              push        2
  004025D9: E8 FB 03 00 00     call        004029D9
  004025DE: 50                 push        eax
  004025DF: 56                 push        esi
  004025E0: E8 9E 33 00 00     call        00405983
  004025E5: 50                 push        eax
  004025E6: FF 15 34 71 40 00  call        dword ptr ds:[00407134h]
  004025EC: 39 5D E0           cmp         dword ptr [ebp-20h],ebx
  004025EF: 0F 8C 96 02 00 00  jl          0040288B
  004025F5: E9 37 02 00 00     jmp         00402831
  004025FA: 38 1E              cmp         byte ptr [esi],bl
  004025FC: 0F 84 89 02 00 00  je          0040288B
  00402602: 56                 push        esi
  00402603: E8 7B 33 00 00     call        00405983
  00402608: 50                 push        eax
  00402609: FF 15 38 71 40 00  call        dword ptr ds:[00407138h]
  0040260F: E9 77 02 00 00     jmp         0040288B
  00402614: 38 1F              cmp         byte ptr [edi],bl
  00402616: 74 18              je          00402630
  00402618: 8D 85 5C FE FF FF  lea         eax,[ebp+FFFFFE5Ch]
  0040261E: 50                 push        eax
  0040261F: 57                 push        edi
  00402620: E8 5E 33 00 00     call        00405983
  00402625: 50                 push        eax
  00402626: FF 15 3C 71 40 00  call        dword ptr ds:[0040713Ch]
  0040262C: 85 C0              test        eax,eax
  0040262E: 75 3F              jne         0040266F
  00402630: C7 45 FC 01 00 00  mov         dword ptr [ebp-4],1
            00
  00402637: 88 1E              mov         byte ptr [esi],bl
  00402639: E9 4D 02 00 00     jmp         0040288B
  0040263E: 6A 02              push        2
  00402640: E8 B1 03 00 00     call        004029F6
  00402645: 8D 8D 5C FE FF FF  lea         ecx,[ebp+FFFFFE5Ch]
  0040264B: 51                 push        ecx
  0040264C: 50                 push        eax
  0040264D: FF 15 40 71 40 00  call        dword ptr ds:[00407140h]
  00402653: 83 F8 FF           cmp         eax,0FFFFFFFFh
  00402656: 75 10              jne         00402668
  00402658: 88 1F              mov         byte ptr [edi],bl
  0040265A: 88 1E              mov         byte ptr [esi],bl
  0040265C: C7 45 FC 01 00 00  mov         dword ptr [ebp-4],1
            00
  00402663: E9 23 02 00 00     jmp         0040288B
  00402668: 50                 push        eax
  00402669: 57                 push        edi
  0040266A: E8 FB 32 00 00     call        0040596A
  0040266F: 8D 85 88 FE FF FF  lea         eax,[ebp+FFFFFE88h]
  00402675: 50                 push        eax
  00402676: 56                 push        esi
  00402677: E9 35 01 00 00     jmp         004027B1
  0040267C: 6A F0              push        0FFFFFFF0h
  0040267E: C7 45 F8 66 FD FF  mov         dword ptr [ebp-8],0FFFFFD66h
            FF
  00402685: E8 6C 03 00 00     call        004029F6
  0040268A: 8B F0              mov         esi,eax
  0040268C: 56                 push        esi
  0040268D: 89 75 BC           mov         dword ptr [ebp-44h],esi
  00402690: E8 D7 2E 00 00     call        0040556C
  00402695: 85 C0              test        eax,eax
  00402697: 75 07              jne         004026A0
  00402699: 6A ED              push        0FFFFFFEDh
  0040269B: E8 56 03 00 00     call        004029F6
  004026A0: 56                 push        esi
  004026A1: E8 1E 30 00 00     call        004056C4
  004026A6: 6A 02              push        2
  004026A8: 68 00 00 00 40     push        40000000h
  004026AD: 56                 push        esi
  004026AE: E8 30 30 00 00     call        004056E3
  004026B3: 83 F8 FF           cmp         eax,0FFFFFFFFh
  004026B6: 89 45 08           mov         dword ptr [ebp+8],eax
  004026B9: 0F 84 9D 00 00 00  je          0040275C
  004026BF: A1 74 EB 42 00     mov         eax,dword ptr ds:[0042EB74h]
  004026C4: 8B 35 00 71 40 00  mov         esi,dword ptr ds:[00407100h]
  004026CA: 50                 push        eax
  004026CB: 6A 40              push        40h
  004026CD: 89 45 D4           mov         dword ptr [ebp-2Ch],eax
  004026D0: FF D6              call        esi
  004026D2: 8B F8              mov         edi,eax
  004026D4: 3B FB              cmp         edi,ebx
  004026D6: 74 7B              je          00402753
  004026D8: 53                 push        ebx
  004026D9: E8 D1 09 00 00     call        004030AF
  004026DE: FF 75 D4           push        dword ptr [ebp-2Ch]
  004026E1: 57                 push        edi
  004026E2: E8 96 09 00 00     call        0040307D
  004026E7: FF 75 E4           push        dword ptr [ebp-1Ch]
  004026EA: 6A 40              push        40h
  004026EC: FF D6              call        esi
  004026EE: 8B F0              mov         esi,eax
  004026F0: 3B F3              cmp         esi,ebx
  004026F2: 89 75 D0           mov         dword ptr [ebp-30h],esi
  004026F5: 74 34              je          0040272B
  004026F7: FF 75 E4           push        dword ptr [ebp-1Ch]
  004026FA: 56                 push        esi
  004026FB: 53                 push        ebx
  004026FC: FF 75 E0           push        dword ptr [ebp-20h]
  004026FF: E8 57 07 00 00     call        00402E5B
  00402704: EB 18              jmp         0040271E
  00402706: 8B 0E              mov         ecx,dword ptr [esi]
  00402708: 8B 46 04           mov         eax,dword ptr [esi+4]
  0040270B: 83 C6 08           add         esi,8
  0040270E: 51                 push        ecx
  0040270F: 03 C7              add         eax,edi
  00402711: 56                 push        esi
  00402712: 50                 push        eax
  00402713: 89 4D C8           mov         dword ptr [ebp-38h],ecx
  00402716: E8 89 2F 00 00     call        004056A4
  0040271B: 03 75 C8           add         esi,dword ptr [ebp-38h]
  0040271E: 38 1E              cmp         byte ptr [esi],bl
  00402720: 75 E4              jne         00402706
  00402722: FF 75 D0           push        dword ptr [ebp-30h]
  00402725: FF 15 FC 70 40 00  call        dword ptr ds:[004070FCh]
  0040272B: 8D 45 F8           lea         eax,[ebp-8]
  0040272E: 53                 push        ebx
  0040272F: 50                 push        eax
  00402730: FF 75 D4           push        dword ptr [ebp-2Ch]
  00402733: 57                 push        edi
  00402734: FF 75 08           push        dword ptr [ebp+8]
  00402737: FF 15 28 71 40 00  call        dword ptr ds:[00407128h]
  0040273D: 57                 push        edi
  0040273E: FF 15 FC 70 40 00  call        dword ptr ds:[004070FCh]
  00402744: 53                 push        ebx
  00402745: 53                 push        ebx
  00402746: FF 75 08           push        dword ptr [ebp+8]
  00402749: 6A FF              push        0FFFFFFFFh
  0040274B: E8 0B 07 00 00     call        00402E5B
  00402750: 89 45 F8           mov         dword ptr [ebp-8],eax
  00402753: FF 75 08           push        dword ptr [ebp+8]
  00402756: FF 15 EC 70 40 00  call        dword ptr ds:[004070ECh]
  0040275C: 39 5D F8           cmp         dword ptr [ebp-8],ebx
  0040275F: 6A F3              push        0FFFFFFF3h
  00402761: 5E                 pop         esi
  00402762: 7D 13              jge         00402777
  00402764: 6A EF              push        0FFFFFFEFh
  00402766: 5E                 pop         esi
  00402767: FF 75 BC           push        dword ptr [ebp-44h]
  0040276A: FF 15 44 71 40 00  call        dword ptr ds:[00407144h]
  00402770: C7 45 FC 01 00 00  mov         dword ptr [ebp-4],1
            00
  00402777: 56                 push        esi
  00402778: E9 E7 F9 FF FF     jmp         00402164
  0040277D: 53                 push        ebx
  0040277E: E8 56 02 00 00     call        004029D9
  00402783: 3B 05 8C EB 42 00  cmp         eax,dword ptr ds:[0042EB8Ch]
  00402789: 89 45 08           mov         dword ptr [ebp+8],eax
  0040278C: 0F 83 CA FE FF FF  jae         0040265C
  00402792: 8B F0              mov         esi,eax
  00402794: 8B 45 E4           mov         eax,dword ptr [ebp-1Ch]
  00402797: 69 F6 18 04 00 00  imul        esi,esi,418h
  0040279D: 03 35 88 EB 42 00  add         esi,dword ptr ds:[0042EB88h]
  004027A3: 3B C3              cmp         eax,ebx
  004027A5: 7C 17              jl          004027BE
  004027A7: 8B 0C 86           mov         ecx,dword ptr [esi+eax*4]
  004027AA: 75 0F              jne         004027BB
  004027AC: 83 C6 18           add         esi,18h
  004027AF: 56                 push        esi
  004027B0: 57                 push        edi
  004027B1: E8 56 32 00 00     call        00405A0C
  004027B6: E9 D0 00 00 00     jmp         0040288B
  004027BB: 51                 push        ecx
  004027BC: EB 74              jmp         00402832
  004027BE: 83 C9 FF           or          ecx,0FFFFFFFFh
  004027C1: 2B C8              sub         ecx,eax
  004027C3: 89 4D E4           mov         dword ptr [ebp-1Ch],ecx
  004027C6: 74 0C              je          004027D4
  004027C8: 6A 01              push        1
  004027CA: E8 0A 02 00 00     call        004029D9
  004027CF: 89 45 E0           mov         dword ptr [ebp-20h],eax
  004027D2: EB 10              jmp         004027E4
  004027D4: FF 75 EC           push        dword ptr [ebp-14h]
  004027D7: 8D 46 18           lea         eax,[esi+18h]
  004027DA: 50                 push        eax
  004027DB: E8 4E 32 00 00     call        00405A2E
  004027E0: 80 4E 09 01        or          byte ptr [esi+9],1
  004027E4: 8B 45 E4           mov         eax,dword ptr [ebp-1Ch]
  004027E7: 8B 4D E0           mov         ecx,dword ptr [ebp-20h]
  004027EA: 89 0C 86           mov         dword ptr [esi+eax*4],ecx
  004027ED: 39 5D E8           cmp         dword ptr [ebp-18h],ebx
  004027F0: 0F 84 95 00 00 00  je          0040288B
  004027F6: FF 75 08           push        dword ptr [ebp+8]
  004027F9: E8 7F E9 FF FF     call        0040117D
  004027FE: E9 88 00 00 00     jmp         0040288B
  00402803: 53                 push        ebx
  00402804: E8 D0 01 00 00     call        004029D9
  00402809: 83 F8 20           cmp         eax,20h
  0040280C: 0F 83 4A FE FF FF  jae         0040265C
  00402812: 39 5D E8           cmp         dword ptr [ebp-18h],ebx
  00402815: 74 23              je          0040283A
  00402817: 39 5D E4           cmp         dword ptr [ebp-1Ch],ebx
  0040281A: 74 0F              je          0040282B
  0040281C: 50                 push        eax
  0040281D: E8 77 EA FF FF     call        00401299
  00402822: 53                 push        ebx
  00402823: 53                 push        ebx
  00402824: E8 C6 E9 FF FF     call        004011EF
  00402829: EB 60              jmp         0040288B
  0040282B: 53                 push        ebx
  0040282C: E8 B1 EA FF FF     call        004012E2
  00402831: 50                 push        eax
  00402832: 57                 push        edi
  00402833: E8 32 31 00 00     call        0040596A
  00402838: EB 51              jmp         0040288B
  0040283A: 39 5D E4           cmp         dword ptr [ebp-1Ch],ebx
  0040283D: 74 12              je          00402851
  0040283F: 8B 15 70 EB 42 00  mov         edx,dword ptr ds:[0042EB70h]
  00402845: 8B 4D E0           mov         ecx,dword ptr [ebp-20h]
  00402848: 89 8C 82 94 00 00  mov         dword ptr [edx+eax*4+00000094h],ecx
            00
  0040284F: EB 3A              jmp         0040288B
  00402851: 8B 0D 70 EB 42 00  mov         ecx,dword ptr ds:[0042EB70h]
  00402857: FF B4 81 94 00 00  push        dword ptr [ecx+eax*4+00000094h]
            00
  0040285E: 57                 push        edi
  0040285F: E8 CA 31 00 00     call        00405A2E
  00402864: EB 25              jmp         0040288B
  00402866: 8B 0D E0 AF 42 00  mov         ecx,dword ptr ds:[0042AFE0h]
  0040286C: 53                 push        ebx
  0040286D: 23 C8              and         ecx,eax
  0040286F: 51                 push        ecx
  00402870: 6A 0B              push        0Bh
  00402872: FF 75 CC           push        dword ptr [ebp-34h]
  00402875: FF 15 44 72 40 00  call        dword ptr ds:[00407244h]
  0040287B: 39 5D DC           cmp         dword ptr [ebp-24h],ebx
  0040287E: 74 0B              je          0040288B
  00402880: 53                 push        ebx
  00402881: 53                 push        ebx
  00402882: FF 75 CC           push        dword ptr [ebp-34h]
  00402885: FF 15 40 72 40 00  call        dword ptr ds:[00407240h]
  0040288B: 8B 45 FC           mov         eax,dword ptr [ebp-4]
  0040288E: 01 05 E8 EB 42 00  add         dword ptr ds:[0042EBE8h],eax
  00402894: 33 C0              xor         eax,eax
  00402896: 5F                 pop         edi
  00402897: 5E                 pop         esi
  00402898: 5B                 pop         ebx
  00402899: C9                 leave
  0040289A: C2 04 00           ret         4
  0040289D: 96                 xchg        eax,esi
  0040289E: 28 40 00           sub         byte ptr [eax],al
  004028A1: 90                 nop
  004028A2: 14 40              adc         al,40h
  004028A4: 00 9C 14 40 00 B7  add         byte ptr [esp+edx+14B70040h],bl
            14
  004028AB: 40                 inc         eax
  004028AC: 00 CA              add         dl,cl
  004028AE: 14 40              adc         al,40h
  004028B0: 00 D6              add         dh,dl
  004028B2: 14 40              adc         al,40h
  004028B4: 00 F0              add         al,dh
  004028B6: 14 40              adc         al,40h
  004028B8: 00 67 15           add         byte ptr [edi+15h],ah
  004028BB: 40                 inc         eax
  004028BC: 00 95 15 40 00 B3  add         byte ptr [ebp+B3004015h],dl
  004028C2: 15 40 00 34 16     adc         eax,16340040h
  004028C7: 40                 inc         eax
  004028C8: 00 FE              add         dh,bh
  004028CA: 14 40              adc         al,40h
  004028CC: 00 39              add         byte ptr [ecx],bh
  004028CE: 15 40 00 5A 15     adc         eax,155A0040h
  004028D3: 40                 inc         eax
  004028D4: 00 45 16           add         byte ptr [ebp+16h],al
  004028D7: 40                 inc         eax
  004028D8: 00 96 16 40 00 FA  add         byte ptr [esi+FA004016h],dl
  004028DE: 16                 push        ss
  004028DF: 40                 inc         eax
  004028E0: 00 21              add         byte ptr [ecx],ah
  004028E2: 17                 pop         ss
  004028E3: 40                 inc         eax
  004028E4: 00 34 17           add         byte ptr [edi+edx],dh
  004028E7: 40                 inc         eax
  004028E8: 00 D8              add         al,bl
  004028EA: 18 40 00           sbb         byte ptr [eax],al
  004028ED: DB 18              fistp       dword ptr [eax]
  004028EF: 40                 inc         eax
  004028F0: 00 0D 19 40 00 22  add         byte ptr ds:[22004019h],cl
  004028F6: 19 40 00           sbb         dword ptr [eax],eax
  004028F9: 34 19              xor         al,19h
  004028FB: 40                 inc         eax
  004028FC: 00 B5 19 40 00 E6  add         byte ptr [ebp+E6004019h],dh
  00402902: 19 40 00           sbb         dword ptr [eax],eax
  00402905: 26 1A 40 00        sbb         al,byte ptr es:[eax]
  00402909: 58                 pop         eax
  0040290A: 1A 40 00           sbb         al,byte ptr [eax]
  0040290D: E5 1A              in          eax,1Ah
  0040290F: 40                 inc         eax
  00402910: 00 06              add         byte ptr [esi],al
  00402912: 1B 40 00           sbb         eax,dword ptr [eax]
  00402915: AD                 lods        dword ptr [esi]
  00402916: 1B 40 00           sbb         eax,dword ptr [eax]
  00402919: AD                 lods        dword ptr [esi]
  0040291A: 1B 40 00           sbb         eax,dword ptr [eax]
  0040291D: 6D                 ins         dword ptr es:[edi],dx
  0040291E: 1C 40              sbb         al,40h
  00402920: 00 8A 1C 40 00 A5  add         byte ptr [edx+A500401Ch],cl
  00402926: 1C 40              sbb         al,40h
  00402928: 00 C1              add         cl,al
  0040292A: 1C 40              sbb         al,40h
  0040292C: 00 1B              add         byte ptr [ebx],bl
  0040292E: 1D 40 00 95 1D     sbb         eax,1D950040h
  00402933: 40                 inc         eax
  00402934: 00 C1              add         cl,al
  00402936: 1D 40 00 1B 1E     sbb         eax,1E1B0040h
  0040293B: 40                 inc         eax
  0040293C: 00 95 1E 40 00 C5  add         byte ptr [ebp+C500401Eh],dl
  00402942: 1E                 push        ds
  00402943: 40                 inc         eax
  00402944: 00 50 1F           add         byte ptr [eax+1Fh],dl
  00402947: 40                 inc         eax
  00402948: 00 20              add         byte ptr [eax],ah
  0040294A: 20 40 00           and         byte ptr [eax],al
  0040294D: 72 21              jb          00402970
  0040294F: 40                 inc         eax
  00402950: 00 F4              add         ah,dh
  00402952: 21 40 00           and         dword ptr [eax],eax
  00402955: 23 22              and         esp,dword ptr [edx]
  00402957: 40                 inc         eax
  00402958: 00 67 22           add         byte ptr [edi+22h],ah
  0040295B: 40                 inc         eax
  0040295C: 00 A7 22 40 00 03  add         byte ptr [edi+03004022h],ah
  00402962: 23 40 00           and         eax,dword ptr [eax]
  00402965: AF                 scas        dword ptr es:[edi]
  00402966: 23 40 00           and         eax,dword ptr [eax]
  00402969: 27                 daa
  0040296A: 24 40              and         al,40h
  0040296C: 00 88 24 40 00 9C  add         byte ptr [eax+9C004024h],cl
  00402972: 24 40              and         al,40h
  00402974: 00 BE 24 40 00 06  add         byte ptr [esi+06004024h],bh
  0040297A: 25 40 00 CB 25     and         eax,25CB0040h
  0040297F: 40                 inc         eax
  00402980: 00 FA              add         dl,bh
  00402982: 25 40 00 14 26     and         eax,26140040h
  00402987: 40                 inc         eax
  00402988: 00 3E              add         byte ptr [esi],bh
  0040298A: 26 40              inc         eax
  0040298C: 00 7C 26 40        add         byte ptr [esi+40h],bh
  00402990: 00 7D 27           add         byte ptr [ebp+27h],bh
  00402993: 40                 inc         eax
  00402994: 00 03              add         byte ptr [ebx],al
  00402996: 28 40 00           sub         byte ptr [eax],al
  00402999: 8B 28              mov         ebp,dword ptr [eax]
  0040299B: 40                 inc         eax
  0040299C: 00 8B 28 40 00 66  add         byte ptr [ebx+66004028h],cl
  004029A2: 28 40 00           sub         byte ptr [eax],al
  004029A5: 79 1A              jns         004029C1
  004029A7: 40                 inc         eax
  004029A8: 00 7D 1A           add         byte ptr [ebp+1Ah],bh
  004029AB: 40                 inc         eax
  004029AC: 00 81 1A 40 00 88  add         byte ptr [ecx+8800401Ah],al
  004029B2: 1A 40 00           sbb         al,byte ptr [eax]
  004029B5: 95                 xchg        eax,ebp
  004029B6: 1A 40 00           sbb         al,byte ptr [eax]
  004029B9: 99                 cdq
  004029BA: 1A 40 00           sbb         al,byte ptr [eax]
  004029BD: 9D                 popfd
  004029BE: 1A 40 00           sbb         al,byte ptr [eax]
  004029C1: A1 1A 40 00 AA     mov         eax,dword ptr ds:[AA00401Ah]
  004029C6: 1A 40 00           sbb         al,byte ptr [eax]
  004029C9: B4 1A              mov         ah,1Ah
  004029CB: 40                 inc         eax
  004029CC: 00 C1              add         cl,al
  004029CE: 1A 40 00           sbb         al,byte ptr [eax]
  004029D1: D9 1A              fstp        dword ptr [edx]
  004029D3: 40                 inc         eax
  004029D4: 00 DD              add         ch,bl
  004029D6: 1A 40 00           sbb         al,byte ptr [eax]
  004029D9: 8B 44 24 04        mov         eax,dword ptr [esp+4]
  004029DD: 8B 0D 78 9B 40 00  mov         ecx,dword ptr ds:[00409B78h]
  004029E3: FF 34 81           push        dword ptr [ecx+eax*4]
  004029E6: 6A 00              push        0
  004029E8: E8 41 30 00 00     call        00405A2E
  004029ED: 50                 push        eax
  004029EE: E8 90 2F 00 00     call        00405983
  004029F3: C2 04 00           ret         4
  004029F6: 56                 push        esi
  004029F7: 8B 74 24 08        mov         esi,dword ptr [esp+8]
  004029FB: 85 F6              test        esi,esi
  004029FD: 57                 push        edi
  004029FE: 8B C6              mov         eax,esi
  00402A00: 7D 02              jge         00402A04
  00402A02: F7 D8              neg         eax
  00402A04: 8B 15 78 9B 40 00  mov         edx,dword ptr ds:[00409B78h]
  00402A0A: 8B C8              mov         ecx,eax
  00402A0C: 83 E1 0F           and         ecx,0Fh
  00402A0F: C1 F8 04           sar         eax,4
  00402A12: FF 34 8A           push        dword ptr [edx+ecx*4]
  00402A15: C1 E0 0A           shl         eax,0Ah
  00402A18: 05 80 9B 40 00     add         eax,409B80h
  00402A1D: 50                 push        eax
  00402A1E: E8 0B 30 00 00     call        00405A2E
  00402A23: 85 F6              test        esi,esi
  00402A25: 8B F8              mov         edi,eax
  00402A27: 7D 06              jge         00402A2F
  00402A29: 57                 push        edi
  00402A2A: E8 3F 32 00 00     call        00405C6E
  00402A2F: 8B C7              mov         eax,edi
  00402A31: 5F                 pop         edi
  00402A32: 5E                 pop         esi
  00402A33: C2 04 00           ret         4
  00402A36: 55                 push        ebp
  00402A37: 8B EC              mov         ebp,esp
  00402A39: 81 EC 0C 01 00 00  sub         esp,10Ch
  00402A3F: 53                 push        ebx
  00402A40: 56                 push        esi
  00402A41: 8D 45 FC           lea         eax,[ebp-4]
  00402A44: 57                 push        edi
  00402A45: 50                 push        eax
  00402A46: A1 10 EC 42 00     mov         eax,dword ptr ds:[0042EC10h]
  00402A4B: 0C 08              or          al,8
  00402A4D: 33 DB              xor         ebx,ebx
  00402A4F: 50                 push        eax
  00402A50: 53                 push        ebx
  00402A51: FF 75 0C           push        dword ptr [ebp+0Ch]
  00402A54: FF 75 08           push        dword ptr [ebp+8]
  00402A57: FF 15 10 70 40 00  call        dword ptr ds:[00407010h]
  00402A5D: 3B C3              cmp         eax,ebx
  00402A5F: 75 69              jne         00402ACA
  00402A61: 8B 35 08 70 40 00  mov         esi,dword ptr ds:[00407008h]
  00402A67: BF 05 01 00 00     mov         edi,105h
  00402A6C: EB 19              jmp         00402A87
  00402A6E: 39 5D 10           cmp         dword ptr [ebp+10h],ebx
  00402A71: 75 4B              jne         00402ABE
  00402A73: 8D 85 F4 FE FF FF  lea         eax,[ebp+FFFFFEF4h]
  00402A79: 53                 push        ebx
  00402A7A: 50                 push        eax
  00402A7B: FF 75 FC           push        dword ptr [ebp-4]
  00402A7E: E8 B3 FF FF FF     call        00402A36
  00402A83: 85 C0              test        eax,eax
  00402A85: 75 12              jne         00402A99
  00402A87: 8D 85 F4 FE FF FF  lea         eax,[ebp+FFFFFEF4h]
  00402A8D: 57                 push        edi
  00402A8E: 50                 push        eax
  00402A8F: 53                 push        ebx
  00402A90: FF 75 FC           push        dword ptr [ebp-4]
  00402A93: FF D6              call        esi
  00402A95: 85 C0              test        eax,eax
  00402A97: 74 D5              je          00402A6E
  00402A99: FF 75 FC           push        dword ptr [ebp-4]
  00402A9C: FF 15 1C 70 40 00  call        dword ptr ds:[0040701Ch]
  00402AA2: 6A 02              push        2
  00402AA4: E8 85 32 00 00     call        00405D2E
  00402AA9: 3B C3              cmp         eax,ebx
  00402AAB: 74 24              je          00402AD1
  00402AAD: 53                 push        ebx
  00402AAE: FF 35 10 EC 42 00  push        dword ptr ds:[0042EC10h]
  00402AB4: FF 75 0C           push        dword ptr [ebp+0Ch]
  00402AB7: FF 75 08           push        dword ptr [ebp+8]
  00402ABA: FF D0              call        eax
  00402ABC: EB 0C              jmp         00402ACA
  00402ABE: FF 75 FC           push        dword ptr [ebp-4]
  00402AC1: FF 15 1C 70 40 00  call        dword ptr ds:[0040701Ch]
  00402AC7: 33 C0              xor         eax,eax
  00402AC9: 40                 inc         eax
  00402ACA: 5F                 pop         edi
  00402ACB: 5E                 pop         esi
  00402ACC: 5B                 pop         ebx
  00402ACD: C9                 leave
  00402ACE: C2 0C 00           ret         0Ch
  00402AD1: 39 1D 10 EC 42 00  cmp         dword ptr ds:[0042EC10h],ebx
  00402AD7: 75 EE              jne         00402AC7
  00402AD9: FF 75 0C           push        dword ptr [ebp+0Ch]
  00402ADC: FF 75 08           push        dword ptr [ebp+8]
  00402ADF: FF 15 14 70 40 00  call        dword ptr ds:[00407014h]
  00402AE5: 85 C0              test        eax,eax
  00402AE7: 75 DE              jne         00402AC7
  00402AE9: EB DF              jmp         00402ACA
  00402AEB: 8B 44 24 04        mov         eax,dword ptr [esp+4]
  00402AEF: 85 C0              test        eax,eax
  00402AF1: 75 0A              jne         00402AFD
  00402AF3: A1 E4 EB 42 00     mov         eax,dword ptr ds:[0042EBE4h]
  00402AF8: 05 01 00 00 80     add         eax,80000001h
  00402AFD: C2 04 00           ret         4
  00402B00: 55                 push        ebp
  00402B01: 8B EC              mov         ebp,esp
  00402B03: 8D 45 08           lea         eax,[ebp+8]
  00402B06: 50                 push        eax
  00402B07: A1 10 EC 42 00     mov         eax,dword ptr ds:[0042EC10h]
  00402B0C: 0B 45 08           or          eax,dword ptr [ebp+8]
  00402B0F: 50                 push        eax
  00402B10: 6A 00              push        0
  00402B12: 6A 22              push        22h
  00402B14: E8 DD FE FF FF     call        004029F6
  00402B19: 50                 push        eax
  00402B1A: A1 78 9B 40 00     mov         eax,dword ptr ds:[00409B78h]
  00402B1F: FF 70 04           push        dword ptr [eax+4]
  00402B22: E8 C4 FF FF FF     call        00402AEB
  00402B27: 50                 push        eax
  00402B28: FF 15 10 70 40 00  call        dword ptr ds:[00407010h]
  00402B2E: F7 D8              neg         eax
  00402B30: 1B C0              sbb         eax,eax
  00402B32: F7 D0              not         eax
  00402B34: 23 45 08           and         eax,dword ptr [ebp+8]
  00402B37: 5D                 pop         ebp
  00402B38: C2 04 00           ret         4
  00402B3B: 55                 push        ebp
  00402B3C: 8B EC              mov         ebp,esp
  00402B3E: 83 EC 40           sub         esp,40h
  00402B41: 81 7D 0C 10 01 00  cmp         dword ptr [ebp+0Ch],110h
            00
  00402B48: 75 19              jne         00402B63
  00402B4A: 6A 00              push        0
  00402B4C: 68 FA 00 00 00     push        0FAh
  00402B51: 6A 01              push        1
  00402B53: FF 75 08           push        dword ptr [ebp+8]
  00402B56: FF 15 F0 71 40 00  call        dword ptr ds:[004071F0h]
  00402B5C: C7 45 0C 13 01 00  mov         dword ptr [ebp+0Ch],113h
            00
  00402B63: 81 7D 0C 13 01 00  cmp         dword ptr [ebp+0Ch],113h
            00
  00402B6A: 75 4C              jne         00402BB8
  00402B6C: 8B 0D 80 4B 41 00  mov         ecx,dword ptr ds:[00414B80h]
  00402B72: A1 90 8B 42 00     mov         eax,dword ptr ds:[00428B90h]
  00402B77: 3B C8              cmp         ecx,eax
  00402B79: 7C 02              jl          00402B7D
  00402B7B: 8B C8              mov         ecx,eax
  00402B7D: 50                 push        eax
  00402B7E: 6A 64              push        64h
  00402B80: 51                 push        ecx
  00402B81: FF 15 30 71 40 00  call        dword ptr ds:[00407130h]
  00402B87: 50                 push        eax
  00402B88: 8D 45 C0           lea         eax,[ebp-40h]
  00402B8B: 68 18 90 40 00     push        409018h
  00402B90: 50                 push        eax
  00402B91: FF 15 00 72 40 00  call        dword ptr ds:[00407200h]
  00402B97: 83 C4 0C           add         esp,0Ch
  00402B9A: 8D 45 C0           lea         eax,[ebp-40h]
  00402B9D: 50                 push        eax
  00402B9E: FF 75 08           push        dword ptr [ebp+8]
  00402BA1: FF 15 F4 71 40 00  call        dword ptr ds:[004071F4h]
  00402BA7: 8D 45 C0           lea         eax,[ebp-40h]
  00402BAA: 50                 push        eax
  00402BAB: 68 06 04 00 00     push        406h
  00402BB0: FF 75 08           push        dword ptr [ebp+8]
  00402BB3: E8 F3 26 00 00     call        004052AB
  00402BB8: 33 C0              xor         eax,eax
  00402BBA: C9                 leave
  00402BBB: C2 10 00           ret         10h
  00402BBE: 56                 push        esi
  00402BBF: 33 F6              xor         esi,esi
  00402BC1: 39 74 24 08        cmp         dword ptr [esp+8],esi
  00402BC5: 74 18              je          00402BDF
  00402BC7: A1 88 0B 42 00     mov         eax,dword ptr ds:[00420B88h]
  00402BCC: 3B C6              cmp         eax,esi
  00402BCE: 74 07              je          00402BD7
  00402BD0: 50                 push        eax
  00402BD1: FF 15 E8 71 40 00  call        dword ptr ds:[004071E8h]
  00402BD7: 89 35 88 0B 42 00  mov         dword ptr ds:[00420B88h],esi
  00402BDD: 5E                 pop         esi
  00402BDE: C3                 ret
  00402BDF: 39 35 88 0B 42 00  cmp         dword ptr ds:[00420B88h],esi
  00402BE5: 74 08              je          00402BEF
  00402BE7: 56                 push        esi
  00402BE8: E8 7A 31 00 00     call        00405D67
  00402BED: 5E                 pop         esi
  00402BEE: C3                 ret
  00402BEF: FF 15 8C 70 40 00  call        dword ptr ds:[0040708Ch]
  00402BF5: 3B 05 6C EB 42 00  cmp         eax,dword ptr ds:[0042EB6Ch]
  00402BFB: 76 23              jbe         00402C20
  00402BFD: 56                 push        esi
  00402BFE: 68 3B 2B 40 00     push        402B3Bh
  00402C03: 56                 push        esi
  00402C04: 6A 6F              push        6Fh
  00402C06: FF 35 60 EB 42 00  push        dword ptr ds:[0042EB60h]
  00402C0C: FF 15 EC 71 40 00  call        dword ptr ds:[004071ECh]
  00402C12: 6A 05              push        5
  00402C14: 50                 push        eax
  00402C15: A3 88 0B 42 00     mov         dword ptr ds:[00420B88h],eax
  00402C1A: FF 15 60 72 40 00  call        dword ptr ds:[00407260h]
  00402C20: 5E                 pop         esi
  00402C21: C3                 ret
  00402C22: 55                 push        ebp
  00402C23: 8B EC              mov         ebp,esp
  00402C25: 83 EC 28           sub         esp,28h
  00402C28: 53                 push        ebx
  00402C29: 56                 push        esi
  00402C2A: 33 DB              xor         ebx,ebx
  00402C2C: 57                 push        edi
  00402C2D: 89 5D F8           mov         dword ptr [ebp-8],ebx
  00402C30: 89 5D FC           mov         dword ptr [ebp-4],ebx
  00402C33: FF 15 8C 70 40 00  call        dword ptr ds:[0040708Ch]
  00402C39: BE 00 5C 43 00     mov         esi,435C00h
  00402C3E: 68 00 04 00 00     push        400h
  00402C43: 05 E8 03 00 00     add         eax,3E8h
  00402C48: 56                 push        esi
  00402C49: 53                 push        ebx
  00402C4A: A3 6C EB 42 00     mov         dword ptr ds:[0042EB6Ch],eax
  00402C4F: FF 15 94 70 40 00  call        dword ptr ds:[00407094h]
  00402C55: 6A 03              push        3
  00402C57: 68 00 00 00 80     push        80000000h
  00402C5C: 56                 push        esi
  00402C5D: E8 81 2A 00 00     call        004056E3
  00402C62: 8B F8              mov         edi,eax
  00402C64: 83 FF FF           cmp         edi,0FFFFFFFFh
  00402C67: 89 7D F4           mov         dword ptr [ebp-0Ch],edi
  00402C6A: 89 3D 14 90 40 00  mov         dword ptr ds:[00409014h],edi
  00402C70: 75 0A              jne         00402C7C
  00402C72: B8 04 91 40 00     mov         eax,409104h
  00402C77: E9 D8 01 00 00     jmp         00402E54
  00402C7C: 56                 push        esi
  00402C7D: BE 00 4C 43 00     mov         esi,434C00h
  00402C82: 56                 push        esi
  00402C83: E8 84 2D 00 00     call        00405A0C
  00402C88: 56                 push        esi
  00402C89: E8 B8 28 00 00     call        00405546
  00402C8E: 50                 push        eax
  00402C8F: 68 00 60 43 00     push        436000h
  00402C94: E8 73 2D 00 00     call        00405A0C
  00402C99: 53                 push        ebx
  00402C9A: 57                 push        edi
  00402C9B: FF 15 90 70 40 00  call        dword ptr ds:[00407090h]
  00402CA1: 3B C3              cmp         eax,ebx
  00402CA3: A3 90 8B 42 00     mov         dword ptr ds:[00428B90h],eax
  00402CA8: 8B F0              mov         esi,eax
  00402CAA: 0F 8E E7 00 00 00  jle         00402D97
  00402CB0: BB 90 0B 42 00     mov         ebx,420B90h
  00402CB5: A1 74 EB 42 00     mov         eax,dword ptr ds:[0042EB74h]
  00402CBA: 8B FE              mov         edi,esi
  00402CBC: F7 D8              neg         eax
  00402CBE: 1B C0              sbb         eax,eax
  00402CC0: 25 00 7E 00 00     and         eax,7E00h
  00402CC5: 05 00 02 00 00     add         eax,200h
  00402CCA: 3B F0              cmp         esi,eax
  00402CCC: 7C 02              jl          00402CD0
  00402CCE: 8B F8              mov         edi,eax
  00402CD0: 57                 push        edi
  00402CD1: 53                 push        ebx
  00402CD2: E8 A6 03 00 00     call        0040307D
  00402CD7: 85 C0              test        eax,eax
  00402CD9: 0F 84 22 01 00 00  je          00402E01
  00402CDF: 83 3D 74 EB 42 00  cmp         dword ptr ds:[0042EB74h],0
            00
  00402CE6: 75 7A              jne         00402D62
  00402CE8: 6A 1C              push        1Ch
  00402CEA: 8D 45 D8           lea         eax,[ebp-28h]
  00402CED: 53                 push        ebx
  00402CEE: 50                 push        eax
  00402CEF: E8 B0 29 00 00     call        004056A4
  00402CF4: 8B 45 D8           mov         eax,dword ptr [ebp-28h]
  00402CF7: A9 F0 FF FF FF     test        eax,0FFFFFFF0h
  00402CFC: 75 72              jne         00402D70
  00402CFE: 81 7D DC EF BE AD  cmp         dword ptr [ebp-24h],0DEADBEEFh
            DE
  00402D05: 75 69              jne         00402D70
  00402D07: 81 7D E8 49 6E 73  cmp         dword ptr [ebp-18h],74736E49h
            74
  00402D0E: 75 60              jne         00402D70
  00402D10: 81 7D E4 73 6F 66  cmp         dword ptr [ebp-1Ch],74666F73h
            74
  00402D17: 75 57              jne         00402D70
  00402D19: 81 7D E0 4E 75 6C  cmp         dword ptr [ebp-20h],6C6C754Eh
            6C
  00402D20: 75 4E              jne         00402D70
  00402D22: 09 45 08           or          dword ptr [ebp+8],eax
  00402D25: 8B 45 08           mov         eax,dword ptr [ebp+8]
  00402D28: 8B 0D 80 4B 41 00  mov         ecx,dword ptr ds:[00414B80h]
  00402D2E: 83 E0 02           and         eax,2
  00402D31: 09 05 00 EC 42 00  or          dword ptr ds:[0042EC00h],eax
  00402D37: 8B 45 F0           mov         eax,dword ptr [ebp-10h]
  00402D3A: 3B C6              cmp         eax,esi
  00402D3C: 89 0D 74 EB 42 00  mov         dword ptr ds:[0042EB74h],ecx
  00402D42: 0F 8F B2 00 00 00  jg          00402DFA
  00402D48: F6 45 08 08        test        byte ptr [ebp+8],8
  00402D4C: 75 06              jne         00402D54
  00402D4E: F6 45 08 04        test        byte ptr [ebp+8],4
  00402D52: 75 41              jne         00402D95
  00402D54: FF 45 FC           inc         dword ptr [ebp-4]
  00402D57: 8D 70 FC           lea         esi,[eax-4]
  00402D5A: 3B FE              cmp         edi,esi
  00402D5C: 76 12              jbe         00402D70
  00402D5E: 8B FE              mov         edi,esi
  00402D60: EB 0E              jmp         00402D70
  00402D62: F6 45 08 02        test        byte ptr [ebp+8],2
  00402D66: 75 08              jne         00402D70
  00402D68: 6A 00              push        0
  00402D6A: E8 4F FE FF FF     call        00402BBE
  00402D6F: 59                 pop         ecx
  00402D70: 3B 35 90 8B 42 00  cmp         esi,dword ptr ds:[00428B90h]
  00402D76: 7D 0D              jge         00402D85
  00402D78: 57                 push        edi
  00402D79: 53                 push        ebx
  00402D7A: FF 75 F8           push        dword ptr [ebp-8]
  00402D7D: E8 18 30 00 00     call        00405D9A
  00402D82: 89 45 F8           mov         dword ptr [ebp-8],eax
  00402D85: 01 3D 80 4B 41 00  add         dword ptr ds:[00414B80h],edi
  00402D8B: 2B F7              sub         esi,edi
  00402D8D: 85 F6              test        esi,esi
  00402D8F: 0F 8F 20 FF FF FF  jg          00402CB5
  00402D95: 33 DB              xor         ebx,ebx
  00402D97: 6A 01              push        1
  00402D99: E8 20 FE FF FF     call        00402BBE
  00402D9E: 39 1D 74 EB 42 00  cmp         dword ptr ds:[0042EB74h],ebx
  00402DA4: 59                 pop         ecx
  00402DA5: 74 53              je          00402DFA
  00402DA7: 39 5D FC           cmp         dword ptr [ebp-4],ebx
  00402DAA: 74 22              je          00402DCE
  00402DAC: FF 35 80 4B 41 00  push        dword ptr ds:[00414B80h]
  00402DB2: E8 F8 02 00 00     call        004030AF
  00402DB7: 8D 45 08           lea         eax,[ebp+8]
  00402DBA: 6A 04              push        4
  00402DBC: 50                 push        eax
  00402DBD: E8 BB 02 00 00     call        0040307D
  00402DC2: 85 C0              test        eax,eax
  00402DC4: 74 34              je          00402DFA
  00402DC6: 8B 45 F8           mov         eax,dword ptr [ebp-8]
  00402DC9: 3B 45 08           cmp         eax,dword ptr [ebp+8]
  00402DCC: 75 2C              jne         00402DFA
  00402DCE: FF 75 EC           push        dword ptr [ebp-14h]
  00402DD1: 6A 40              push        40h
  00402DD3: FF 15 00 71 40 00  call        dword ptr ds:[00407100h]
  00402DD9: 8B F0              mov         esi,eax
  00402DDB: A1 74 EB 42 00     mov         eax,dword ptr ds:[0042EB74h]
  00402DE0: 83 C0 1C           add         eax,1Ch
  00402DE3: 50                 push        eax
  00402DE4: E8 C6 02 00 00     call        004030AF
  00402DE9: FF 75 EC           push        dword ptr [ebp-14h]
  00402DEC: 56                 push        esi
  00402DED: 53                 push        ebx
  00402DEE: 6A FF              push        0FFFFFFFFh
  00402DF0: E8 66 00 00 00     call        00402E5B
  00402DF5: 3B 45 EC           cmp         eax,dword ptr [ebp-14h]
  00402DF8: 74 11              je          00402E0B
  00402DFA: B8 38 90 40 00     mov         eax,409038h
  00402DFF: EB 53              jmp         00402E54
  00402E01: 6A 01              push        1
  00402E03: E8 B6 FD FF FF     call        00402BBE
  00402E08: 59                 pop         ecx
  00402E09: EB EF              jmp         00402DFA
  00402E0B: F6 45 D8 01        test        byte ptr [ebp-28h],1
  00402E0F: 89 35 70 EB 42 00  mov         dword ptr ds:[0042EB70h],esi
  00402E15: 8B 06              mov         eax,dword ptr [esi]
  00402E17: A3 78 EB 42 00     mov         dword ptr ds:[0042EB78h],eax
  00402E1C: 74 06              je          00402E24
  00402E1E: FF 05 7C EB 42 00  inc         dword ptr ds:[0042EB7Ch]
  00402E24: 6A 08              push        8
  00402E26: 8D 46 44           lea         eax,[esi+44h]
  00402E29: 59                 pop         ecx
  00402E2A: 83 E8 08           sub         eax,8
  00402E2D: 01 30              add         dword ptr [eax],esi
  00402E2F: 49                 dec         ecx
  00402E30: 75 F8              jne         00402E2A
  00402E32: 6A 01              push        1
  00402E34: 53                 push        ebx
  00402E35: 53                 push        ebx
  00402E36: FF 75 F4           push        dword ptr [ebp-0Ch]
  00402E39: FF 15 34 71 40 00  call        dword ptr ds:[00407134h]
  00402E3F: 89 46 3C           mov         dword ptr [esi+3Ch],eax
  00402E42: 83 C6 04           add         esi,4
  00402E45: 6A 40              push        40h
  00402E47: 56                 push        esi
  00402E48: 68 80 EB 42 00     push        42EB80h
  00402E4D: E8 52 28 00 00     call        004056A4
  00402E52: 33 C0              xor         eax,eax
  00402E54: 5F                 pop         edi
  00402E55: 5E                 pop         esi
  00402E56: 5B                 pop         ebx
  00402E57: C9                 leave
  00402E58: C2 04 00           ret         4
  00402E5B: 55                 push        ebp
  00402E5C: 8B EC              mov         ebp,esp
  00402E5E: 83 EC 58           sub         esp,58h
  00402E61: 53                 push        ebx
  00402E62: 56                 push        esi
  00402E63: 8B 75 14           mov         esi,dword ptr [ebp+14h]
  00402E66: 57                 push        edi
  00402E67: 8B 7D 10           mov         edi,dword ptr [ebp+10h]
  00402E6A: 89 75 F8           mov         dword ptr [ebp-8],esi
  00402E6D: 85 FF              test        edi,edi
  00402E6F: 75 07              jne         00402E78
  00402E71: C7 45 F8 00 80 00  mov         dword ptr [ebp-8],8000h
            00
  00402E78: 83 65 FC 00        and         dword ptr [ebp-4],0
  00402E7C: 89 7D F4           mov         dword ptr [ebp-0Ch],edi
  00402E7F: 85 FF              test        edi,edi
  00402E81: 75 07              jne         00402E8A
  00402E83: C7 45 F4 88 8B 41  mov         dword ptr [ebp-0Ch],418B88h
            00
  00402E8A: 8B 45 08           mov         eax,dword ptr [ebp+8]
  00402E8D: 85 C0              test        eax,eax
  00402E8F: 7C 0E              jl          00402E9F
  00402E91: 8B 0D B8 EB 42 00  mov         ecx,dword ptr ds:[0042EBB8h]
  00402E97: 03 C8              add         ecx,eax
  00402E99: 51                 push        ecx
  00402E9A: E8 10 02 00 00     call        004030AF
  00402E9F: 8D 45 14           lea         eax,[ebp+14h]
  00402EA2: 6A 04              push        4
  00402EA4: 50                 push        eax
  00402EA5: E8 D3 01 00 00     call        0040307D
  00402EAA: 85 C0              test        eax,eax
  00402EAC: 0F 84 76 01 00 00  je          00403028
  00402EB2: F6 45 17 80        test        byte ptr [ebp+17h],80h
  00402EB6: 0F 84 55 01 00 00  je          00403011
  00402EBC: 8B 1D 8C 70 40 00  mov         ebx,dword ptr ds:[0040708Ch]
  00402EC2: FF D3              call        ebx
  00402EC4: 83 25 EC B4 40 00  and         dword ptr ds:[0040B4ECh],0
            00
  00402ECB: 83 25 E8 B4 40 00  and         dword ptr ds:[0040B4E8h],0
            00
  00402ED2: 81 65 14 FF FF FF  and         dword ptr [ebp+14h],7FFFFFFFh
            7F
  00402ED9: 89 45 F0           mov         dword ptr [ebp-10h],eax
  00402EDC: B8 70 CB 40 00     mov         eax,40CB70h
  00402EE1: C7 05 D0 AF 40 00  mov         dword ptr ds:[0040AFD0h],8
            08 00 00 00
  00402EEB: A3 78 4B 41 00     mov         dword ptr ds:[00414B78h],eax
  00402EF0: A3 74 4B 41 00     mov         dword ptr ds:[00414B74h],eax
  00402EF5: 8B 45 14           mov         eax,dword ptr [ebp+14h]
  00402EF8: C7 05 70 4B 41 00  mov         dword ptr ds:[00414B70h],414B70h
            70 4B 41 00
  00402F02: 89 45 08           mov         dword ptr [ebp+8],eax
  00402F05: 0F 8E 68 01 00 00  jle         00403073
  00402F0B: BE 00 40 00 00     mov         esi,4000h
  00402F10: 39 75 14           cmp         dword ptr [ebp+14h],esi
  00402F13: 7D 03              jge         00402F18
  00402F15: 8B 75 14           mov         esi,dword ptr [ebp+14h]
  00402F18: BF 88 4B 41 00     mov         edi,414B88h
  00402F1D: 56                 push        esi
  00402F1E: 57                 push        edi
  00402F1F: E8 59 01 00 00     call        0040307D
  00402F24: 85 C0              test        eax,eax
  00402F26: 0F 84 FC 00 00 00  je          00403028
  00402F2C: 29 75 14           sub         dword ptr [ebp+14h],esi
  00402F2F: 89 3D C0 AF 40 00  mov         dword ptr ds:[0040AFC0h],edi
  00402F35: 89 35 C4 AF 40 00  mov         dword ptr ds:[0040AFC4h],esi
  00402F3B: 8B 7D F4           mov         edi,dword ptr [ebp-0Ch]
  00402F3E: 8B 45 F8           mov         eax,dword ptr [ebp-8]
  00402F41: 68 C0 AF 40 00     push        40AFC0h
  00402F46: 89 3D C8 AF 40 00  mov         dword ptr ds:[0040AFC8h],edi
  00402F4C: A3 CC AF 40 00     mov         dword ptr ds:[0040AFCCh],eax
  00402F51: E8 B2 2E 00 00     call        00405E08
  00402F56: 85 C0              test        eax,eax
  00402F58: 89 45 E8           mov         dword ptr [ebp-18h],eax
  00402F5B: 0F 8C A8 00 00 00  jl          00403009
  00402F61: 8B 35 C8 AF 40 00  mov         esi,dword ptr ds:[0040AFC8h]
  00402F67: 2B F7              sub         esi,edi
  00402F69: FF D3              call        ebx
  00402F6B: F6 05 14 EC 42 00  test        byte ptr ds:[0042EC14h],1
            01
  00402F72: 8B F8              mov         edi,eax
  00402F74: 74 43              je          00402FB9
  00402F76: 2B 45 F0           sub         eax,dword ptr [ebp-10h]
  00402F79: 3D C8 00 00 00     cmp         eax,0C8h
  00402F7E: 77 06              ja          00402F86
  00402F80: 83 7D 14 00        cmp         dword ptr [ebp+14h],0
  00402F84: 75 33              jne         00402FB9
  00402F86: 8B 45 08           mov         eax,dword ptr [ebp+8]
  00402F89: FF 75 08           push        dword ptr [ebp+8]
  00402F8C: 2B 45 14           sub         eax,dword ptr [ebp+14h]
  00402F8F: 6A 64              push        64h
  00402F91: 50                 push        eax
  00402F92: FF 15 30 71 40 00  call        dword ptr ds:[00407130h]
  00402F98: 50                 push        eax
  00402F99: 8D 45 A8           lea         eax,[ebp-58h]
  00402F9C: 68 20 91 40 00     push        409120h
  00402FA1: 50                 push        eax
  00402FA2: FF 15 00 72 40 00  call        dword ptr ds:[00407200h]
  00402FA8: 83 C4 0C           add         esp,0Ch
  00402FAB: 8D 45 A8           lea         eax,[ebp-58h]
  00402FAE: 50                 push        eax
  00402FAF: 6A 00              push        0
  00402FB1: E8 F4 1D 00 00     call        00404DAA
  00402FB6: 89 7D F0           mov         dword ptr [ebp-10h],edi
  00402FB9: 33 C0              xor         eax,eax
  00402FBB: 3B F0              cmp         esi,eax
  00402FBD: 74 3F              je          00402FFE
  00402FBF: 39 45 10           cmp         dword ptr [ebp+10h],eax
  00402FC2: 75 20              jne         00402FE4
  00402FC4: 50                 push        eax
  00402FC5: 8D 45 EC           lea         eax,[ebp-14h]
  00402FC8: 50                 push        eax
  00402FC9: 56                 push        esi
  00402FCA: FF 75 F4           push        dword ptr [ebp-0Ch]
  00402FCD: FF 75 0C           push        dword ptr [ebp+0Ch]
  00402FD0: FF 15 28 71 40 00  call        dword ptr ds:[00407128h]
  00402FD6: 85 C0              test        eax,eax
  00402FD8: 74 33              je          0040300D
  00402FDA: 39 75 EC           cmp         dword ptr [ebp-14h],esi
  00402FDD: 75 2E              jne         0040300D
  00402FDF: 01 75 FC           add         dword ptr [ebp-4],esi
  00402FE2: EB 0E              jmp         00402FF2
  00402FE4: A1 C8 AF 40 00     mov         eax,dword ptr ds:[0040AFC8h]
  00402FE9: 01 75 FC           add         dword ptr [ebp-4],esi
  00402FEC: 29 75 F8           sub         dword ptr [ebp-8],esi
  00402FEF: 89 45 F4           mov         dword ptr [ebp-0Ch],eax
  00402FF2: 83 7D E8 01        cmp         dword ptr [ebp-18h],1
  00402FF6: 0F 85 3F FF FF FF  jne         00402F3B
  00402FFC: EB 75              jmp         00403073
  00402FFE: 39 45 14           cmp         dword ptr [ebp+14h],eax
  00403001: 0F 8F 04 FF FF FF  jg          00402F0B
  00403007: EB 6A              jmp         00403073
  00403009: 6A FC              push        0FFFFFFFCh
  0040300B: EB 1D              jmp         0040302A
  0040300D: 6A FE              push        0FFFFFFFEh
  0040300F: EB 19              jmp         0040302A
  00403011: 85 FF              test        edi,edi
  00403013: 74 53              je          00403068
  00403015: 39 75 14           cmp         dword ptr [ebp+14h],esi
  00403018: 7D 03              jge         0040301D
  0040301A: 8B 75 14           mov         esi,dword ptr [ebp+14h]
  0040301D: 56                 push        esi
  0040301E: 57                 push        edi
  0040301F: E8 59 00 00 00     call        0040307D
  00403024: 85 C0              test        eax,eax
  00403026: 75 48              jne         00403070
  00403028: 6A FD              push        0FFFFFFFDh
  0040302A: 58                 pop         eax
  0040302B: EB 49              jmp         00403076
  0040302D: 8B 75 F8           mov         esi,dword ptr [ebp-8]
  00403030: 39 75 14           cmp         dword ptr [ebp+14h],esi
  00403033: 7D 03              jge         00403038
  00403035: 8B 75 14           mov         esi,dword ptr [ebp+14h]
  00403038: BF 88 4B 41 00     mov         edi,414B88h
  0040303D: 56                 push        esi
  0040303E: 57                 push        edi
  0040303F: E8 39 00 00 00     call        0040307D
  00403044: 85 C0              test        eax,eax
  00403046: 74 E0              je          00403028
  00403048: 8D 45 10           lea         eax,[ebp+10h]
  0040304B: 6A 00              push        0
  0040304D: 50                 push        eax
  0040304E: 56                 push        esi
  0040304F: 57                 push        edi
  00403050: FF 75 0C           push        dword ptr [ebp+0Ch]
  00403053: FF 15 28 71 40 00  call        dword ptr ds:[00407128h]
  00403059: 85 C0              test        eax,eax
  0040305B: 74 B0              je          0040300D
  0040305D: 3B 75 10           cmp         esi,dword ptr [ebp+10h]
  00403060: 75 AB              jne         0040300D
  00403062: 01 75 FC           add         dword ptr [ebp-4],esi
  00403065: 29 75 14           sub         dword ptr [ebp+14h],esi
  00403068: 83 7D 14 00        cmp         dword ptr [ebp+14h],0
  0040306C: 7F BF              jg          0040302D
  0040306E: EB 03              jmp         00403073
  00403070: 89 75 FC           mov         dword ptr [ebp-4],esi
  00403073: 8B 45 FC           mov         eax,dword ptr [ebp-4]
  00403076: 5F                 pop         edi
  00403077: 5E                 pop         esi
  00403078: 5B                 pop         ebx
  00403079: C9                 leave
  0040307A: C2 10 00           ret         10h
  0040307D: 55                 push        ebp
  0040307E: 8B EC              mov         ebp,esp
  00403080: 56                 push        esi
  00403081: 8B 75 0C           mov         esi,dword ptr [ebp+0Ch]
  00403084: 8D 45 0C           lea         eax,[ebp+0Ch]
  00403087: 6A 00              push        0
  00403089: 50                 push        eax
  0040308A: 56                 push        esi
  0040308B: FF 75 08           push        dword ptr [ebp+8]
  0040308E: FF 35 14 90 40 00  push        dword ptr ds:[00409014h]
  00403094: FF 15 2C 71 40 00  call        dword ptr ds:[0040712Ch]
  0040309A: 85 C0              test        eax,eax
  0040309C: 74 0A              je          004030A8
  0040309E: 39 75 0C           cmp         dword ptr [ebp+0Ch],esi
  004030A1: 75 05              jne         004030A8
  004030A3: 33 C0              xor         eax,eax
  004030A5: 40                 inc         eax
  004030A6: EB 02              jmp         004030AA
  004030A8: 33 C0              xor         eax,eax
  004030AA: 5E                 pop         esi
  004030AB: 5D                 pop         ebp
  004030AC: C2 08 00           ret         8
  004030AF: 6A 00              push        0
  004030B1: 6A 00              push        0
  004030B3: FF 74 24 0C        push        dword ptr [esp+0Ch]
  004030B7: FF 35 14 90 40 00  push        dword ptr ds:[00409014h]
  004030BD: FF 15 34 71 40 00  call        dword ptr ds:[00407134h]
  004030C3: C2 04 00           ret         4
  004030C6: 56                 push        esi
  004030C7: BE 00 54 43 00     mov         esi,435400h
  004030CC: 56                 push        esi
  004030CD: E8 9C 2B 00 00     call        00405C6E
  004030D2: 56                 push        esi
  004030D3: E8 94 24 00 00     call        0040556C
  004030D8: 85 C0              test        eax,eax
  004030DA: 75 02              jne         004030DE
  004030DC: 5E                 pop         esi
  004030DD: C3                 ret
  004030DE: 56                 push        esi
  004030DF: E8 1B 24 00 00     call        004054FF
  004030E4: 6A 00              push        0
  004030E6: 56                 push        esi
  004030E7: FF 15 80 70 40 00  call        dword ptr ds:[00407080h]
  004030ED: 56                 push        esi
  004030EE: 68 00 50 43 00     push        435000h
  004030F3: E8 1A 26 00 00     call        00405712
  004030F8: 5E                 pop         esi
  004030F9: C3                 ret
  004030FA: 81 EC 80 01 00 00  sub         esp,180h
  00403100: 53                 push        ebx
  00403101: 55                 push        ebp
  00403102: 56                 push        esi
  00403103: 33 DB              xor         ebx,ebx
  00403105: 57                 push        edi
  00403106: 89 5C 24 18        mov         dword ptr [esp+18h],ebx
  0040310A: C7 44 24 10 60 91  mov         dword ptr [esp+10h],409160h
            40 00
  00403112: 33 F6              xor         esi,esi
  00403114: C6 44 24 14 20     mov         byte ptr [esp+14h],20h
  00403119: FF 15 30 70 40 00  call        dword ptr ds:[00407030h]
  0040311F: 68 01 80 00 00     push        8001h
  00403124: FF 15 B0 70 40 00  call        dword ptr ds:[004070B0h]
  0040312A: 53                 push        ebx
  0040312B: FF 15 7C 72 40 00  call        dword ptr ds:[0040727Ch]
  00403131: 6A 08              push        8
  00403133: A3 18 EC 42 00     mov         dword ptr ds:[0042EC18h],eax
  00403138: E8 F1 2B 00 00     call        00405D2E
  0040313D: A3 64 EB 42 00     mov         dword ptr ds:[0042EB64h],eax
  00403142: 53                 push        ebx
  00403143: 8D 44 24 34        lea         eax,[esp+34h]
  00403147: 68 60 01 00 00     push        160h
  0040314C: 50                 push        eax
  0040314D: 53                 push        ebx
  0040314E: 68 98 8F 42 00     push        428F98h
  00403153: FF 15 58 71 40 00  call        dword ptr ds:[00407158h]
  00403159: 68 54 91 40 00     push        409154h
  0040315E: 68 60 E3 42 00     push        42E360h
  00403163: E8 A4 28 00 00     call        00405A0C
  00403168: FF 15 AC 70 40 00  call        dword ptr ds:[004070ACh]
  0040316E: BF 00 40 43 00     mov         edi,434000h
  00403173: 50                 push        eax
  00403174: 57                 push        edi
  00403175: E8 92 28 00 00     call        00405A0C
  0040317A: 53                 push        ebx
  0040317B: FF 15 0C 71 40 00  call        dword ptr ds:[0040710Ch]
  00403181: 80 3D 00 40 43 00  cmp         byte ptr ds:[00434000h],22h
            22
  00403188: A3 60 EB 42 00     mov         dword ptr ds:[0042EB60h],eax
  0040318D: 8B C7              mov         eax,edi
  0040318F: 75 0A              jne         0040319B
  00403191: C6 44 24 14 22     mov         byte ptr [esp+14h],22h
  00403196: B8 01 40 43 00     mov         eax,434001h
  0040319B: FF 74 24 14        push        dword ptr [esp+14h]
  0040319F: 50                 push        eax
  004031A0: E8 85 23 00 00     call        0040552A
  004031A5: 50                 push        eax
  004031A6: FF 15 1C 72 40 00  call        dword ptr ds:[0040721Ch]
  004031AC: 89 44 24 1C        mov         dword ptr [esp+1Ch],eax
  004031B0: EB 63              jmp         00403215
  004031B2: 80 F9 20           cmp         cl,20h
  004031B5: 75 06              jne         004031BD
  004031B7: 40                 inc         eax
  004031B8: 80 38 20           cmp         byte ptr [eax],20h
  004031BB: 74 FA              je          004031B7
  004031BD: 80 38 22           cmp         byte ptr [eax],22h
  004031C0: C6 44 24 14 20     mov         byte ptr [esp+14h],20h
  004031C5: 75 06              jne         004031CD
  004031C7: 40                 inc         eax
  004031C8: C6 44 24 14 22     mov         byte ptr [esp+14h],22h
  004031CD: 80 38 2F           cmp         byte ptr [eax],2Fh
  004031D0: 75 33              jne         00403205
  004031D2: 40                 inc         eax
  004031D3: 80 38 53           cmp         byte ptr [eax],53h
  004031D6: 75 0E              jne         004031E6
  004031D8: 8A 48 01           mov         cl,byte ptr [eax+1]
  004031DB: 80 C9 20           or          cl,20h
  004031DE: 80 F9 20           cmp         cl,20h
  004031E1: 75 03              jne         004031E6
  004031E3: 83 CE 02           or          esi,2
  004031E6: 81 38 4E 43 52 43  cmp         dword ptr [eax],4352434Eh
  004031EC: 75 0E              jne         004031FC
  004031EE: 8A 48 04           mov         cl,byte ptr [eax+4]
  004031F1: 80 C9 20           or          cl,20h
  004031F4: 80 F9 20           cmp         cl,20h
  004031F7: 75 03              jne         004031FC
  004031F9: 83 CE 04           or          esi,4
  004031FC: 81 78 FE 20 2F 44  cmp         dword ptr [eax-2],3D442F20h
            3D
  00403203: 74 18              je          0040321D
  00403205: FF 74 24 14        push        dword ptr [esp+14h]
  00403209: 50                 push        eax
  0040320A: E8 1B 23 00 00     call        0040552A
  0040320F: 80 38 22           cmp         byte ptr [eax],22h
  00403212: 75 01              jne         00403215
  00403214: 40                 inc         eax
  00403215: 8A 08              mov         cl,byte ptr [eax]
  00403217: 3A CB              cmp         cl,bl
  00403219: 75 97              jne         004031B2
  0040321B: EB 11              jmp         0040322E
  0040321D: 89 58 FE           mov         dword ptr [eax-2],ebx
  00403220: 83 C0 02           add         eax,2
  00403223: 50                 push        eax
  00403224: 68 00 44 43 00     push        434400h
  00403229: E8 DE 27 00 00     call        00405A0C
  0040322E: BD 00 54 43 00     mov         ebp,435400h
  00403233: 55                 push        ebp
  00403234: 68 00 04 00 00     push        400h
  00403239: FF 15 48 71 40 00  call        dword ptr ds:[00407148h]
  0040323F: E8 82 FE FF FF     call        004030C6
  00403244: 85 C0              test        eax,eax
  00403246: 75 20              jne         00403268
  00403248: 68 FB 03 00 00     push        3FBh
  0040324D: 55                 push        ebp
  0040324E: FF 15 A4 70 40 00  call        dword ptr ds:[004070A4h]
  00403254: 68 4C 91 40 00     push        40914Ch
  00403259: 55                 push        ebp
  0040325A: E8 C9 27 00 00     call        00405A28
  0040325F: E8 62 FE FF FF     call        004030C6
  00403264: 85 C0              test        eax,eax
  00403266: 74 7E              je          004032E6
  00403268: 68 00 50 43 00     push        435000h
  0040326D: FF 15 44 71 40 00  call        dword ptr ds:[00407144h]
  00403273: 56                 push        esi
  00403274: E8 A9 F9 FF FF     call        00402C22
  00403279: 3B C3              cmp         eax,ebx
  0040327B: 89 44 24 10        mov         dword ptr [esp+10h],eax
  0040327F: 75 65              jne         004032E6
  00403281: 39 1D 7C EB 42 00  cmp         dword ptr ds:[0042EB7Ch],ebx
  00403287: 74 4D              je          004032D6
  00403289: 53                 push        ebx
  0040328A: 57                 push        edi
  0040328B: E8 9A 22 00 00     call        0040552A
  00403290: 8B F0              mov         esi,eax
  00403292: EB 09              jmp         0040329D
  00403294: 81 3E 20 5F 3F 3D  cmp         dword ptr [esi],3D3F5F20h
  0040329A: 74 05              je          004032A1
  0040329C: 4E                 dec         esi
  0040329D: 3B F7              cmp         esi,edi
  0040329F: 73 F3              jae         00403294
  004032A1: 3B F7              cmp         esi,edi
  004032A3: C7 44 24 10 04 91  mov         dword ptr [esp+10h],409104h
            40 00
  004032AB: 72 64              jb          00403311
  004032AD: 88 1E              mov         byte ptr [esi],bl
  004032AF: 83 C6 04           add         esi,4
  004032B2: 56                 push        esi
  004032B3: E8 28 23 00 00     call        004055E0
  004032B8: 85 C0              test        eax,eax
  004032BA: 74 2A              je          004032E6
  004032BC: 56                 push        esi
  004032BD: 68 00 44 43 00     push        434400h
  004032C2: E8 45 27 00 00     call        00405A0C
  004032C7: 56                 push        esi
  004032C8: 68 00 48 43 00     push        434800h
  004032CD: E8 3A 27 00 00     call        00405A0C
  004032D2: 89 5C 24 10        mov         dword ptr [esp+10h],ebx
  004032D6: 83 0D 0C EC 42 00  or          dword ptr ds:[0042EC0Ch],0FFFFFFFFh
            FF
  004032DD: E8 73 02 00 00     call        00403555
  004032E2: 89 44 24 18        mov         dword ptr [esp+18h],eax
  004032E6: E8 90 01 00 00     call        0040347B
  004032EB: FF 15 80 72 40 00  call        dword ptr ds:[00407280h]
  004032F1: 39 5C 24 10        cmp         dword ptr [esp+10h],ebx
  004032F5: 0F 84 E5 00 00 00  je          004033E0
  004032FB: 68 10 00 20 00     push        200010h
  00403300: FF 74 24 14        push        dword ptr [esp+14h]
  00403304: E8 C4 1F 00 00     call        004052CD
  00403309: 6A 02              push        2
  0040330B: FF 15 A0 70 40 00  call        dword ptr ds:[004070A0h]
  00403311: 68 40 91 40 00     push        409140h
  00403316: 55                 push        ebp
  00403317: E8 0C 27 00 00     call        00405A28
  0040331C: BE 00 4C 43 00     mov         esi,434C00h
  00403321: 56                 push        esi
  00403322: 55                 push        ebp
  00403323: FF 15 F0 70 40 00  call        dword ptr ds:[004070F0h]
  00403329: 85 C0              test        eax,eax
  0040332B: 74 B9              je          004032E6
  0040332D: 53                 push        ebx
  0040332E: 55                 push        ebp
  0040332F: FF 15 80 70 40 00  call        dword ptr ds:[00407080h]
  00403335: 55                 push        ebp
  00403336: FF 15 74 70 40 00  call        dword ptr ds:[00407074h]
  0040333C: 38 1D 00 44 43 00  cmp         byte ptr ds:[00434400h],bl
  00403342: 75 0B              jne         0040334F
  00403344: 56                 push        esi
  00403345: 68 00 44 43 00     push        434400h
  0040334A: E8 BD 26 00 00     call        00405A0C
  0040334F: FF 74 24 1C        push        dword ptr [esp+1Ch]
  00403353: 68 00 F0 42 00     push        42F000h
  00403358: E8 AF 26 00 00     call        00405A0C
  0040335D: 6A 1A              push        1Ah
  0040335F: 66 C7 05 00 F4 42  mov         word ptr ds:[0042F400h],41h
            00 41 00
  00403368: 5F                 pop         edi
  00403369: BE 98 8B 42 00     mov         esi,428B98h
  0040336E: A1 70 EB 42 00     mov         eax,dword ptr ds:[0042EB70h]
  00403373: FF B0 20 01 00 00  push        dword ptr [eax+00000120h]
  00403379: 56                 push        esi
  0040337A: E8 AF 26 00 00     call        00405A2E
  0040337F: 56                 push        esi
  00403380: FF 15 44 71 40 00  call        dword ptr ds:[00407144h]
  00403386: 39 5C 24 10        cmp         dword ptr [esp+10h],ebx
  0040338A: 74 3F              je          004033CB
  0040338C: 6A 01              push        1
  0040338E: 56                 push        esi
  0040338F: 68 00 5C 43 00     push        435C00h
  00403394: FF 15 9C 70 40 00  call        dword ptr ds:[0040709Ch]
  0040339A: 85 C0              test        eax,eax
  0040339C: 74 2D              je          004033CB
  0040339E: 53                 push        ebx
  0040339F: 56                 push        esi
  004033A0: E8 B5 23 00 00     call        0040575A
  004033A5: A1 70 EB 42 00     mov         eax,dword ptr ds:[0042EB70h]
  004033AA: FF B0 24 01 00 00  push        dword ptr [eax+00000124h]
  004033B0: 56                 push        esi
  004033B1: E8 78 26 00 00     call        00405A2E
  004033B6: 56                 push        esi
  004033B7: E8 B0 1E 00 00     call        0040526C
  004033BC: 3B C3              cmp         eax,ebx
  004033BE: 74 0B              je          004033CB
  004033C0: 50                 push        eax
  004033C1: FF 15 EC 70 40 00  call        dword ptr ds:[004070ECh]
  004033C7: 89 5C 24 10        mov         dword ptr [esp+10h],ebx
  004033CB: FE 05 00 F4 42 00  inc         byte ptr ds:[0042F400h]
  004033D1: 4F                 dec         edi
  004033D2: 75 9A              jne         0040336E
  004033D4: 53                 push        ebx
  004033D5: 55                 push        ebp
  004033D6: E8 7F 23 00 00     call        0040575A
  004033DB: E9 06 FF FF FF     jmp         004032E6
  004033E0: 39 1D F4 EB 42 00  cmp         dword ptr ds:[0042EBF4h],ebx
  004033E6: 74 7B              je          00403463
  004033E8: 6A 03              push        3
  004033EA: E8 3F 29 00 00     call        00405D2E
  004033EF: 6A 04              push        4
  004033F1: 8B E8              mov         ebp,eax
  004033F3: E8 36 29 00 00     call        00405D2E
  004033F8: 6A 05              push        5
  004033FA: 8B F0              mov         esi,eax
  004033FC: E8 2D 29 00 00     call        00405D2E
  00403401: 3B EB              cmp         ebp,ebx
  00403403: 8B F8              mov         edi,eax
  00403405: 74 48              je          0040344F
  00403407: 3B F3              cmp         esi,ebx
  00403409: 74 44              je          0040344F
  0040340B: 3B FB              cmp         edi,ebx
  0040340D: 74 40              je          0040344F
  0040340F: 8D 44 24 1C        lea         eax,[esp+1Ch]
  00403413: 50                 push        eax
  00403414: 6A 28              push        28h
  00403416: FF 15 98 70 40 00  call        dword ptr ds:[00407098h]
  0040341C: 50                 push        eax
  0040341D: FF D5              call        ebp
  0040341F: 85 C0              test        eax,eax
  00403421: 74 2C              je          0040344F
  00403423: 8D 44 24 24        lea         eax,[esp+24h]
  00403427: 50                 push        eax
  00403428: 68 2C 91 40 00     push        40912Ch
  0040342D: 53                 push        ebx
  0040342E: FF D6              call        esi
  00403430: 53                 push        ebx
  00403431: 53                 push        ebx
  00403432: 8D 44 24 28        lea         eax,[esp+28h]
  00403436: 53                 push        ebx
  00403437: 50                 push        eax
  00403438: 53                 push        ebx
  00403439: FF 74 24 30        push        dword ptr [esp+30h]
  0040343D: C7 44 24 38 01 00  mov         dword ptr [esp+38h],1
            00 00
  00403445: C7 44 24 44 02 00  mov         dword ptr [esp+44h],2
            00 00
  0040344D: FF D7              call        edi
  0040344F: 53                 push        ebx
  00403450: 6A 02              push        2
  00403452: FF 15 24 72 40 00  call        dword ptr ds:[00407224h]
  00403458: 85 C0              test        eax,eax
  0040345A: 75 07              jne         00403463
  0040345C: 6A 09              push        9
  0040345E: E8 A8 DF FF FF     call        0040140B
  00403463: A1 0C EC 42 00     mov         eax,dword ptr ds:[0042EC0Ch]
  00403468: 83 F8 FF           cmp         eax,0FFFFFFFFh
  0040346B: 74 04              je          00403471
  0040346D: 89 44 24 18        mov         dword ptr [esp+18h],eax
  00403471: FF 74 24 18        push        dword ptr [esp+18h]
  00403475: FF 15 A0 70 40 00  call        dword ptr ds:[004070A0h]
  0040347B: A1 14 90 40 00     mov         eax,dword ptr ds:[00409014h]
  00403480: 83 F8 FF           cmp         eax,0FFFFFFFFh
  00403483: 74 0E              je          00403493
  00403485: 50                 push        eax
  00403486: FF 15 EC 70 40 00  call        dword ptr ds:[004070ECh]
  0040348C: 83 0D 14 90 40 00  or          dword ptr ds:[00409014h],0FFFFFFFFh
            FF
  00403493: E8 28 00 00 00     call        004034C0
  00403498: 6A 07              push        7
  0040349A: 68 00 58 43 00     push        435800h
  0040349F: E8 8D 1E 00 00     call        00405331
  004034A4: C3                 ret
  004034A5: 56                 push        esi
  004034A6: 8B 35 9C 8F 42 00  mov         esi,dword ptr ds:[00428F9Ch]
  004034AC: EB 0A              jmp         004034B8
  004034AE: FF 74 24 08        push        dword ptr [esp+8]
  004034B2: FF 56 04           call        dword ptr [esi+4]
  004034B5: 8B 36              mov         esi,dword ptr [esi]
  004034B7: 59                 pop         ecx
  004034B8: 85 F6              test        esi,esi
  004034BA: 75 F2              jne         004034AE
  004034BC: 5E                 pop         esi
  004034BD: C2 04 00           ret         4
  004034C0: 56                 push        esi
  004034C1: 8B 35 9C 8F 42 00  mov         esi,dword ptr ds:[00428F9Ch]
  004034C7: 6A 00              push        0
  004034C9: E8 D7 FF FF FF     call        004034A5
  004034CE: 85 F6              test        esi,esi
  004034D0: 74 1A              je          004034EC
  004034D2: 57                 push        edi
  004034D3: 8B FE              mov         edi,esi
  004034D5: 8B 36              mov         esi,dword ptr [esi]
  004034D7: FF 77 08           push        dword ptr [edi+8]
  004034DA: FF 15 18 71 40 00  call        dword ptr ds:[00407118h]
  004034E0: 57                 push        edi
  004034E1: FF 15 FC 70 40 00  call        dword ptr ds:[004070FCh]
  004034E7: 85 F6              test        esi,esi
  004034E9: 75 E8              jne         004034D3
  004034EB: 5F                 pop         edi
  004034EC: 83 25 9C 8F 42 00  and         dword ptr ds:[00428F9Ch],0
            00
  004034F3: 5E                 pop         esi
  004034F4: C3                 ret
  004034F5: A1 9C 8F 42 00     mov         eax,dword ptr ds:[00428F9Ch]
  004034FA: EB 0B              jmp         00403507
  004034FC: 8B 48 08           mov         ecx,dword ptr [eax+8]
  004034FF: 3B 4C 24 04        cmp         ecx,dword ptr [esp+4]
  00403503: 74 0A              je          0040350F
  00403505: 8B 00              mov         eax,dword ptr [eax]
  00403507: 85 C0              test        eax,eax
  00403509: 75 F1              jne         004034FC
  0040350B: 40                 inc         eax
  0040350C: C2 04 00           ret         4
  0040350F: 33 C0              xor         eax,eax
  00403511: EB F9              jmp         0040350C
  00403513: 56                 push        esi
  00403514: 8B 74 24 08        mov         esi,dword ptr [esp+8]
  00403518: 56                 push        esi
  00403519: E8 D7 FF FF FF     call        004034F5
  0040351E: 85 C0              test        eax,eax
  00403520: 75 03              jne         00403525
  00403522: 40                 inc         eax
  00403523: EB 2C              jmp         00403551
  00403525: 6A 0C              push        0Ch
  00403527: 6A 40              push        40h
  00403529: FF 15 00 71 40 00  call        dword ptr ds:[00407100h]
  0040352F: 85 C0              test        eax,eax
  00403531: 74 1B              je          0040354E
  00403533: 8B 4C 24 0C        mov         ecx,dword ptr [esp+0Ch]
  00403537: 89 70 08           mov         dword ptr [eax+8],esi
  0040353A: 89 48 04           mov         dword ptr [eax+4],ecx
  0040353D: 8B 0D 9C 8F 42 00  mov         ecx,dword ptr ds:[00428F9Ch]
  00403543: 89 08              mov         dword ptr [eax],ecx
  00403545: A3 9C 8F 42 00     mov         dword ptr ds:[00428F9Ch],eax
  0040354A: 33 C0              xor         eax,eax
  0040354C: EB 03              jmp         00403551
  0040354E: 83 C8 FF           or          eax,0FFFFFFFFh
  00403551: 5E                 pop         esi
  00403552: C2 08 00           ret         8
  00403555: 83 EC 14           sub         esp,14h
  00403558: 53                 push        ebx
  00403559: 55                 push        ebp
  0040355A: 56                 push        esi
  0040355B: 8B 35 70 EB 42 00  mov         esi,dword ptr ds:[0042EB70h]
  00403561: 57                 push        edi
  00403562: 6A 06              push        6
  00403564: E8 C5 27 00 00     call        00405D2E
  00403569: 33 DB              xor         ebx,ebx
  0040356B: 3B C3              cmp         eax,ebx
  0040356D: 74 12              je          00403581
  0040356F: FF D0              call        eax
  00403571: 0F B7 C0           movzx       eax,ax
  00403574: 50                 push        eax
  00403575: 68 00 50 43 00     push        435000h
  0040357A: E8 EB 23 00 00     call        0040596A
  0040357F: EB 4A              jmp         004035CB
  00403581: BF E0 9F 42 00     mov         edi,429FE0h
  00403586: 53                 push        ebx
  00403587: 57                 push        edi
  00403588: 53                 push        ebx
  00403589: 68 E4 72 40 00     push        4072E4h
  0040358E: 68 01 00 00 80     push        80000001h
  00403593: C7 05 00 50 43 00  mov         dword ptr ds:[00435000h],7830h
            30 78 00 00
  0040359D: E8 51 23 00 00     call        004058F3
  004035A2: 38 1D E0 9F 42 00  cmp         byte ptr ds:[00429FE0h],bl
  004035A8: 75 16              jne         004035C0
  004035AA: 53                 push        ebx
  004035AB: 57                 push        edi
  004035AC: 68 02 73 40 00     push        407302h
  004035B1: 68 BC 72 40 00     push        4072BCh
  004035B6: 68 03 00 00 80     push        80000003h
  004035BB: E8 33 23 00 00     call        004058F3
  004035C0: 57                 push        edi
  004035C1: 68 00 50 43 00     push        435000h
  004035C6: E8 5D 24 00 00     call        00405A28
  004035CB: E8 4E 02 00 00     call        0040381E
  004035D0: A1 78 EB 42 00     mov         eax,dword ptr ds:[0042EB78h]
  004035D5: BD 00 44 43 00     mov         ebp,434400h
  004035DA: 83 E0 20           and         eax,20h
  004035DD: 55                 push        ebp
  004035DE: A3 E0 EB 42 00     mov         dword ptr ds:[0042EBE0h],eax
  004035E3: C7 05 FC EB 42 00  mov         dword ptr ds:[0042EBFCh],10000h
            00 00 01 00
  004035ED: E8 EE 1F 00 00     call        004055E0
  004035F2: 85 C0              test        eax,eax
  004035F4: 0F 85 81 00 00 00  jne         0040367B
  004035FA: 8B 4E 48           mov         ecx,dword ptr [esi+48h]
  004035FD: 3B CB              cmp         ecx,ebx
  004035FF: 74 7A              je          0040367B
  00403601: 8B 56 4C           mov         edx,dword ptr [esi+4Ch]
  00403604: A1 98 EB 42 00     mov         eax,dword ptr ds:[0042EB98h]
  00403609: BF 00 DB 42 00     mov         edi,42DB00h
  0040360E: 53                 push        ebx
  0040360F: 03 D0              add         edx,eax
  00403611: 57                 push        edi
  00403612: 03 C8              add         ecx,eax
  00403614: 52                 push        edx
  00403615: 51                 push        ecx
  00403616: FF 76 44           push        dword ptr [esi+44h]
  00403619: E8 D5 22 00 00     call        004058F3
  0040361E: A0 00 DB 42 00     mov         al,byte ptr ds:[0042DB00h]
  00403623: 3A C3              cmp         al,bl
  00403625: 74 54              je          0040367B
  00403627: 3C 22              cmp         al,22h
  00403629: 75 0F              jne         0040363A
  0040362B: BF 01 DB 42 00     mov         edi,42DB01h
  00403630: 6A 22              push        22h
  00403632: 57                 push        edi
  00403633: E8 F2 1E 00 00     call        0040552A
  00403638: 88 18              mov         byte ptr [eax],bl
  0040363A: 57                 push        edi
  0040363B: E8 E2 23 00 00     call        00405A22
  00403640: 8D 44 38 FC        lea         eax,[eax+edi-4]
  00403644: 3B C7              cmp         eax,edi
  00403646: 76 26              jbe         0040366E
  00403648: 68 BC 91 40 00     push        4091BCh
  0040364D: 50                 push        eax
  0040364E: FF 15 F0 70 40 00  call        dword ptr ds:[004070F0h]
  00403654: 85 C0              test        eax,eax
  00403656: 75 16              jne         0040366E
  00403658: 57                 push        edi
  00403659: FF 15 78 70 40 00  call        dword ptr ds:[00407078h]
  0040365F: 83 F8 FF           cmp         eax,0FFFFFFFFh
  00403662: 74 04              je          00403668
  00403664: A8 10              test        al,10h
  00403666: 75 06              jne         0040366E
  00403668: 57                 push        edi
  00403669: E8 D8 1E 00 00     call        00405546
  0040366E: 57                 push        edi
  0040366F: E8 8B 1E 00 00     call        004054FF
  00403674: 50                 push        eax
  00403675: 55                 push        ebp
  00403676: E8 91 23 00 00     call        00405A0C
  0040367B: 55                 push        ebp
  0040367C: E8 5F 1F 00 00     call        004055E0
  00403681: 85 C0              test        eax,eax
  00403683: 75 0C              jne         00403691
  00403685: FF B6 18 01 00 00  push        dword ptr [esi+00000118h]
  0040368B: 55                 push        ebp
  0040368C: E8 9D 23 00 00     call        00405A2E
  00403691: 68 40 80 00 00     push        8040h
  00403696: 53                 push        ebx
  00403697: 53                 push        ebx
  00403698: 6A 01              push        1
  0040369A: 6A 67              push        67h
  0040369C: FF 35 60 EB 42 00  push        dword ptr ds:[0042EB60h]
  004036A2: FF 15 34 72 40 00  call        dword ptr ds:[00407234h]
  004036A8: A3 48 E3 42 00     mov         dword ptr ds:[0042E348h],eax
  004036AD: 83 7E 50 FF        cmp         dword ptr [esi+50h],0FFFFFFFFh
  004036B1: BF 00 E3 42 00     mov         edi,42E300h
  004036B6: 0F 84 89 00 00 00  je          00403745
  004036BC: 8B 0D 60 EB 42 00  mov         ecx,dword ptr ds:[0042EB60h]
  004036C2: A3 14 E3 42 00     mov         dword ptr ds:[0042E314h],eax
  004036C7: 8D 44 24 10        lea         eax,[esp+10h]
  004036CB: 57                 push        edi
  004036CC: C7 44 24 14 5F 4E  mov         dword ptr [esp+14h],624E5Fh
            62 00
  004036D4: C7 05 04 E3 42 00  mov         dword ptr ds:[0042E304h],401000h
            00 10 40 00
  004036DE: 89 0D 10 E3 42 00  mov         dword ptr ds:[0042E310h],ecx
  004036E4: A3 24 E3 42 00     mov         dword ptr ds:[0042E324h],eax
  004036E9: FF 15 BC 71 40 00  call        dword ptr ds:[004071BCh]
  004036EF: 66 85 C0           test        ax,ax
  004036F2: 0F 84 1C 01 00 00  je          00403814
  004036F8: 8D 44 24 14        lea         eax,[esp+14h]
  004036FC: 53                 push        ebx
  004036FD: 50                 push        eax
  004036FE: 53                 push        ebx
  004036FF: 6A 30              push        30h
  00403701: FF 15 0C 72 40 00  call        dword ptr ds:[0040720Ch]
  00403707: 53                 push        ebx
  00403708: FF 35 60 EB 42 00  push        dword ptr ds:[0042EB60h]
  0040370E: 8B 44 24 28        mov         eax,dword ptr [esp+28h]
  00403712: 2B 44 24 20        sub         eax,dword ptr [esp+20h]
  00403716: 53                 push        ebx
  00403717: 53                 push        ebx
  00403718: 50                 push        eax
  00403719: 8B 44 24 30        mov         eax,dword ptr [esp+30h]
  0040371D: 2B 44 24 28        sub         eax,dword ptr [esp+28h]
  00403721: 50                 push        eax
  00403722: 8D 44 24 28        lea         eax,[esp+28h]
  00403726: FF 74 24 30        push        dword ptr [esp+30h]
  0040372A: FF 74 24 30        push        dword ptr [esp+30h]
  0040372E: 68 00 00 00 80     push        80000000h
  00403733: 53                 push        ebx
  00403734: 50                 push        eax
  00403735: 68 80 00 00 00     push        80h
  0040373A: FF 15 10 72 40 00  call        dword ptr ds:[00407210h]
  00403740: A3 B8 9F 42 00     mov         dword ptr ds:[00429FB8h],eax
  00403745: 53                 push        ebx
  00403746: E8 C0 DC FF FF     call        0040140B
  0040374B: 85 C0              test        eax,eax
  0040374D: 74 08              je          00403757
  0040374F: 6A 02              push        2
  00403751: 58                 pop         eax
  00403752: E9 BF 00 00 00     jmp         00403816
  00403757: E8 C2 00 00 00     call        0040381E
  0040375C: 39 1D 00 EC 42 00  cmp         dword ptr ds:[0042EC00h],ebx
  00403762: 0F 85 83 00 00 00  jne         004037EB
  00403768: 6A 05              push        5
  0040376A: FF 35 B8 9F 42 00  push        dword ptr ds:[00429FB8h]
  00403770: FF 15 60 72 40 00  call        dword ptr ds:[00407260h]
  00403776: 8B 35 B4 70 40 00  mov         esi,dword ptr ds:[004070B4h]
  0040377C: 68 B0 72 40 00     push        4072B0h
  00403781: FF D6              call        esi
  00403783: 85 C0              test        eax,eax
  00403785: 75 07              jne         0040378E
  00403787: 68 A4 72 40 00     push        4072A4h
  0040378C: FF D6              call        esi
  0040378E: 8B 35 14 72 40 00  mov         esi,dword ptr ds:[00407214h]
  00403794: BD 98 72 40 00     mov         ebp,407298h
  00403799: 57                 push        edi
  0040379A: 55                 push        ebp
  0040379B: 53                 push        ebx
  0040379C: FF D6              call        esi
  0040379E: 85 C0              test        eax,eax
  004037A0: 75 16              jne         004037B8
  004037A2: 57                 push        edi
  004037A3: 68 8C 72 40 00     push        40728Ch
  004037A8: 53                 push        ebx
  004037A9: FF D6              call        esi
  004037AB: 57                 push        edi
  004037AC: 89 2D 24 E3 42 00  mov         dword ptr ds:[0042E324h],ebp
  004037B2: FF 15 BC 71 40 00  call        dword ptr ds:[004071BCh]
  004037B8: A1 40 E3 42 00     mov         eax,dword ptr ds:[0042E340h]
  004037BD: 53                 push        ebx
  004037BE: 83 C0 69           add         eax,69h
  004037C1: 68 EB 38 40 00     push        4038EBh
  004037C6: 0F B7 C0           movzx       eax,ax
  004037C9: 53                 push        ebx
  004037CA: 50                 push        eax
  004037CB: FF 35 60 EB 42 00  push        dword ptr ds:[0042EB60h]
  004037D1: FF 15 18 72 40 00  call        dword ptr ds:[00407218h]
  004037D7: 6A 05              push        5
  004037D9: 8B F0              mov         esi,eax
  004037DB: E8 2B DC FF FF     call        0040140B
  004037E0: 6A 01              push        1
  004037E2: E8 BE FC FF FF     call        004034A5
  004037E7: 8B C6              mov         eax,esi
  004037E9: EB 2B              jmp         00403816
  004037EB: 53                 push        ebx
  004037EC: E8 8B 16 00 00     call        00404E7C
  004037F1: 85 C0              test        eax,eax
  004037F3: 74 18              je          0040380D
  004037F5: 39 1D 2C E3 42 00  cmp         dword ptr ds:[0042E32Ch],ebx
  004037FB: 0F 85 4E FF FF FF  jne         0040374F
  00403801: 6A 02              push        2
  00403803: E8 03 DC FF FF     call        0040140B
  00403808: E9 42 FF FF FF     jmp         0040374F
  0040380D: 6A 01              push        1
  0040380F: E8 F7 DB FF FF     call        0040140B
  00403814: 33 C0              xor         eax,eax
  00403816: 5F                 pop         edi
  00403817: 5E                 pop         esi
  00403818: 5D                 pop         ebp
  00403819: 5B                 pop         ebx
  0040381A: 83 C4 14           add         esp,14h
  0040381D: C3                 ret
  0040381E: 53                 push        ebx
  0040381F: 55                 push        ebp
  00403820: 56                 push        esi
  00403821: 57                 push        edi
  00403822: BF 00 50 43 00     mov         edi,435000h
  00403827: BB FF FF 00 00     mov         ebx,0FFFFh
  0040382C: 57                 push        edi
  0040382D: E8 51 21 00 00     call        00405983
  00403832: 8B 35 A4 EB 42 00  mov         esi,dword ptr ds:[0042EBA4h]
  00403838: 85 F6              test        esi,esi
  0040383A: 74 45              je          00403881
  0040383C: 8B 0D 70 EB 42 00  mov         ecx,dword ptr ds:[0042EB70h]
  00403842: 8B 49 64           mov         ecx,dword ptr [ecx+64h]
  00403845: 8B D1              mov         edx,ecx
  00403847: 0F AF CE           imul        ecx,esi
  0040384A: F7 DA              neg         edx
  0040384C: 03 0D A0 EB 42 00  add         ecx,dword ptr ds:[0042EBA0h]
  00403852: 03 CA              add         ecx,edx
  00403854: 4E                 dec         esi
  00403855: 66 8B 29           mov         bp,word ptr [ecx]
  00403858: 66 33 E8           xor         bp,ax
  0040385B: 23 EB              and         ebp,ebx
  0040385D: 66 85 ED           test        bp,bp
  00403860: 74 06              je          00403868
  00403862: 85 F6              test        esi,esi
  00403864: 75 EC              jne         00403852
  00403866: EB 19              jmp         00403881
  00403868: 8B 51 02           mov         edx,dword ptr [ecx+2]
  0040386B: 89 15 40 E3 42 00  mov         dword ptr ds:[0042E340h],edx
  00403871: 8B 51 06           mov         edx,dword ptr [ecx+6]
  00403874: 89 15 08 EC 42 00  mov         dword ptr ds:[0042EC08h],edx
  0040387A: 8D 51 0A           lea         edx,[ecx+0Ah]
  0040387D: 85 D2              test        edx,edx
  0040387F: 75 12              jne         00403893
  00403881: 66 81 FB FF FF     cmp         bx,0FFFFh
  00403886: 75 07              jne         0040388F
  00403888: BB FF 03 00 00     mov         ebx,3FFh
  0040388D: EB A3              jmp         00403832
  0040388F: 33 DB              xor         ebx,ebx
  00403891: EB 9F              jmp         00403832
  00403893: 89 15 3C E3 42 00  mov         dword ptr ds:[0042E33Ch],edx
  00403899: 0F B7 01           movzx       eax,word ptr [ecx]
  0040389C: 50                 push        eax
  0040389D: 57                 push        edi
  0040389E: E8 C7 20 00 00     call        0040596A
  004038A3: 6A FE              push        0FFFFFFFEh
  004038A5: 68 60 E3 42 00     push        42E360h
  004038AA: E8 7F 21 00 00     call        00405A2E
  004038AF: 50                 push        eax
  004038B0: FF 35 B8 9F 42 00  push        dword ptr ds:[00429FB8h]
  004038B6: FF 15 F4 71 40 00  call        dword ptr ds:[004071F4h]
  004038BC: A1 8C EB 42 00     mov         eax,dword ptr ds:[0042EB8Ch]
  004038C1: 8B 35 88 EB 42 00  mov         esi,dword ptr ds:[0042EB88h]
  004038C7: 85 C0              test        eax,eax
  004038C9: 74 1B              je          004038E6
  004038CB: 8B F8              mov         edi,eax
  004038CD: 8B 06              mov         eax,dword ptr [esi]
  004038CF: 85 C0              test        eax,eax
  004038D1: 74 0A              je          004038DD
  004038D3: 50                 push        eax
  004038D4: 8D 46 18           lea         eax,[esi+18h]
  004038D7: 50                 push        eax
  004038D8: E8 51 21 00 00     call        00405A2E
  004038DD: 81 C6 18 04 00 00  add         esi,418h
  004038E3: 4F                 dec         edi
  004038E4: 75 E7              jne         004038CD
  004038E6: 5F                 pop         edi
  004038E7: 5E                 pop         esi
  004038E8: 5D                 pop         ebp
  004038E9: 5B                 pop         ebx
  004038EA: C3                 ret
  004038EB: 83 EC 10           sub         esp,10h
  004038EE: B9 10 01 00 00     mov         ecx,110h
  004038F3: 53                 push        ebx
  004038F4: 8B 5C 24 1C        mov         ebx,dword ptr [esp+1Ch]
  004038F8: 55                 push        ebp
  004038F9: 56                 push        esi
  004038FA: 3B D9              cmp         ebx,ecx
  004038FC: 57                 push        edi
  004038FD: 0F 84 3B 01 00 00  je          00403A3E
  00403903: 81 FB 08 04 00 00  cmp         ebx,408h
  00403909: 0F 84 2F 01 00 00  je          00403A3E
  0040390F: 8B 7C 24 24        mov         edi,dword ptr [esp+24h]
  00403913: 33 ED              xor         ebp,ebp
  00403915: 83 FB 47           cmp         ebx,47h
  00403918: 75 13              jne         0040392D
  0040391A: 6A 13              push        13h
  0040391C: 55                 push        ebp
  0040391D: 55                 push        ebp
  0040391E: 55                 push        ebp
  0040391F: 55                 push        ebp
  00403920: 57                 push        edi
  00403921: FF 35 B8 9F 42 00  push        dword ptr ds:[00429FB8h]
  00403927: FF 15 88 71 40 00  call        dword ptr ds:[00407188h]
  0040392D: 83 FB 05           cmp         ebx,5
  00403930: 75 18              jne         0040394A
  00403932: 8B 44 24 2C        mov         eax,dword ptr [esp+2Ch]
  00403936: 48                 dec         eax
  00403937: F7 D8              neg         eax
  00403939: 1B C0              sbb         eax,eax
  0040393B: 23 C3              and         eax,ebx
  0040393D: 50                 push        eax
  0040393E: FF 35 B8 9F 42 00  push        dword ptr ds:[00429FB8h]
  00403944: FF 15 60 72 40 00  call        dword ptr ds:[00407260h]
  0040394A: 81 FB 0D 04 00 00  cmp         ebx,40Dh
  00403950: 75 1A              jne         0040396C
  00403952: FF 35 38 E3 42 00  push        dword ptr ds:[0042E338h]
  00403958: FF 15 E8 71 40 00  call        dword ptr ds:[004071E8h]
  0040395E: 8B 44 24 2C        mov         eax,dword ptr [esp+2Ch]
  00403962: A3 38 E3 42 00     mov         dword ptr ds:[0042E338h],eax
  00403967: E9 FC 03 00 00     jmp         00403D68
  0040396C: 83 FB 11           cmp         ebx,11h
  0040396F: 75 11              jne         00403982
  00403971: 55                 push        ebp
  00403972: 55                 push        ebp
  00403973: 57                 push        edi
  00403974: FF 15 30 72 40 00  call        dword ptr ds:[00407230h]
  0040397A: 33 C0              xor         eax,eax
  0040397C: 40                 inc         eax
  0040397D: E9 0B 04 00 00     jmp         00403D8D
  00403982: 81 FB 11 01 00 00  cmp         ebx,111h
  00403988: 0F 85 9D 00 00 00  jne         00403A2B
  0040398E: 0F B7 74 24 2C     movzx       esi,word ptr [esp+2Ch]
  00403993: 56                 push        esi
  00403994: 57                 push        edi
  00403995: FF 15 2C 72 40 00  call        dword ptr ds:[0040722Ch]
  0040399B: 8B F8              mov         edi,eax
  0040399D: 3B FD              cmp         edi,ebp
  0040399F: 74 1D              je          004039BE
  004039A1: 55                 push        ebp
  004039A2: 55                 push        ebp
  004039A3: 68 F3 00 00 00     push        0F3h
  004039A8: 57                 push        edi
  004039A9: FF 15 44 72 40 00  call        dword ptr ds:[00407244h]
  004039AF: 57                 push        edi
  004039B0: FF 15 84 71 40 00  call        dword ptr ds:[00407184h]
  004039B6: 85 C0              test        eax,eax
  004039B8: 0F 84 CD 03 00 00  je          00403D8B
  004039BE: 83 FE 01           cmp         esi,1
  004039C1: 75 03              jne         004039C6
  004039C3: 56                 push        esi
  004039C4: EB 2E              jmp         004039F4
  004039C6: 83 FE 03           cmp         esi,3
  004039C9: 75 0C              jne         004039D7
  004039CB: 39 2D A4 91 40 00  cmp         dword ptr ds:[004091A4h],ebp
  004039D1: 7E 3F              jle         00403A12
  004039D3: 6A FF              push        0FFFFFFFFh
  004039D5: EB 1D              jmp         004039F4
  004039D7: 6A 02              push        2
  004039D9: 5F                 pop         edi
  004039DA: 3B F7              cmp         esi,edi
  004039DC: 75 34              jne         00403A12
  004039DE: 39 2D EC EB 42 00  cmp         dword ptr ds:[0042EBECh],ebp
  004039E4: 74 15              je          004039FB
  004039E6: 57                 push        edi
  004039E7: E8 1F DA FF FF     call        0040140B
  004039EC: 89 3D A8 93 42 00  mov         dword ptr ds:[004293A8h],edi
  004039F2: 6A 78              push        78h
  004039F4: E8 9E 03 00 00     call        00403D97
  004039F9: EB 30              jmp         00403A2B
  004039FB: 6A 03              push        3
  004039FD: E8 09 DA FF FF     call        0040140B
  00403A02: 85 C0              test        eax,eax
  00403A04: 75 25              jne         00403A2B
  00403A06: C7 05 A8 93 42 00  mov         dword ptr ds:[004293A8h],1
            01 00 00 00
  00403A10: EB E0              jmp         004039F2
  00403A12: FF 74 24 30        push        dword ptr [esp+30h]
  00403A16: FF 74 24 30        push        dword ptr [esp+30h]
  00403A1A: 68 11 01 00 00     push        111h
  00403A1F: FF 35 38 E3 42 00  push        dword ptr ds:[0042E338h]
  00403A25: FF 15 44 72 40 00  call        dword ptr ds:[00407244h]
  00403A2B: FF 74 24 30        push        dword ptr [esp+30h]
  00403A2F: FF 74 24 30        push        dword ptr [esp+30h]
  00403A33: 53                 push        ebx
  00403A34: E8 EC 03 00 00     call        00403E25
  00403A39: E9 4F 03 00 00     jmp         00403D8D
  00403A3E: 8B 44 24 2C        mov         eax,dword ptr [esp+2Ch]
  00403A42: 8B 7C 24 24        mov         edi,dword ptr [esp+24h]
  00403A46: 3B D9              cmp         ebx,ecx
  00403A48: A3 C4 9F 42 00     mov         dword ptr ds:[00429FC4h],eax
  00403A4D: 75 4D              jne         00403A9C
  00403A4F: 8B 35 2C 72 40 00  mov         esi,dword ptr ds:[0040722Ch]
  00403A55: 6A 01              push        1
  00403A57: 57                 push        edi
  00403A58: 89 3D 68 EB 42 00  mov         dword ptr ds:[0042EB68h],edi
  00403A5E: FF D6              call        esi
  00403A60: 6A 02              push        2
  00403A62: 57                 push        edi
  00403A63: A3 D8 9F 42 00     mov         dword ptr ds:[00429FD8h],eax
  00403A68: FF D6              call        esi
  00403A6A: 6A FF              push        0FFFFFFFFh
  00403A6C: 6A 1C              push        1Ch
  00403A6E: 57                 push        edi
  00403A6F: A3 A0 8F 42 00     mov         dword ptr ds:[00428FA0h],eax
  00403A74: E8 45 03 00 00     call        00403DBE
  00403A79: FF 35 48 E3 42 00  push        dword ptr ds:[0042E348h]
  00403A7F: 6A F2              push        0FFFFFFF2h
  00403A81: 57                 push        edi
  00403A82: FF 15 80 71 40 00  call        dword ptr ds:[00407180h]
  00403A88: 6A 04              push        4
  00403A8A: E8 7C D9 FF FF     call        0040140B
  00403A8F: A3 2C E3 42 00     mov         dword ptr ds:[0042E32Ch],eax
  00403A94: 33 C0              xor         eax,eax
  00403A96: 40                 inc         eax
  00403A97: A3 C4 9F 42 00     mov         dword ptr ds:[00429FC4h],eax
  00403A9C: 8B 0D A4 91 40 00  mov         ecx,dword ptr ds:[004091A4h]
  00403AA2: 33 ED              xor         ebp,ebp
  00403AA4: 8B F1              mov         esi,ecx
  00403AA6: C1 E6 06           shl         esi,6
  00403AA9: 03 35 80 EB 42 00  add         esi,dword ptr ds:[0042EB80h]
  00403AAF: 3B CD              cmp         ecx,ebp
  00403AB1: 7C 3E              jl          00403AF1
  00403AB3: 83 F8 01           cmp         eax,1
  00403AB6: 75 31              jne         00403AE9
  00403AB8: 55                 push        ebp
  00403AB9: FF 76 10           push        dword ptr [esi+10h]
  00403ABC: E8 C8 D8 FF FF     call        00401389
  00403AC1: 85 C0              test        eax,eax
  00403AC3: 74 24              je          00403AE9
  00403AC5: 6A 01              push        1
  00403AC7: 55                 push        ebp
  00403AC8: 68 0F 04 00 00     push        40Fh
  00403ACD: FF 35 38 E3 42 00  push        dword ptr ds:[0042E338h]
  00403AD3: FF 15 44 72 40 00  call        dword ptr ds:[00407244h]
  00403AD9: 33 C0              xor         eax,eax
  00403ADB: 39 2D 2C E3 42 00  cmp         dword ptr ds:[0042E32Ch],ebp
  00403AE1: 0F 94 C0           sete        al
  00403AE4: E9 A4 02 00 00     jmp         00403D8D
  00403AE9: 39 2E              cmp         dword ptr [esi],ebp
  00403AEB: 0F 84 9A 02 00 00  je          00403D8B
  00403AF1: 68 0B 04 00 00     push        40Bh
  00403AF6: E8 0F 03 00 00     call        00403E0A
  00403AFB: A1 C4 9F 42 00     mov         eax,dword ptr ds:[00429FC4h]
  00403B00: 01 05 A4 91 40 00  add         dword ptr ds:[004091A4h],eax
  00403B06: C1 E0 06           shl         eax,6
  00403B09: 03 F0              add         esi,eax
  00403B0B: A1 A4 91 40 00     mov         eax,dword ptr ds:[004091A4h]
  00403B10: 3B 05 84 EB 42 00  cmp         eax,dword ptr ds:[0042EB84h]
  00403B16: 75 07              jne         00403B1F
  00403B18: 6A 01              push        1
  00403B1A: E8 EC D8 FF FF     call        0040140B
  00403B1F: 39 2D 2C E3 42 00  cmp         dword ptr ds:[0042E32Ch],ebp
  00403B25: 0F 85 1E 02 00 00  jne         00403D49
  00403B2B: A1 84 EB 42 00     mov         eax,dword ptr ds:[0042EB84h]
  00403B30: 39 05 A4 91 40 00  cmp         dword ptr ds:[004091A4h],eax
  00403B36: 0F 83 0D 02 00 00  jae         00403D49
  00403B3C: FF 76 24           push        dword ptr [esi+24h]
  00403B3F: 8B 5E 14           mov         ebx,dword ptr [esi+14h]
  00403B42: 68 00 68 43 00     push        436800h
  00403B47: E8 E2 1E 00 00     call        00405A2E
  00403B4C: FF 76 20           push        dword ptr [esi+20h]
  00403B4F: 68 19 FC FF FF     push        0FFFFFC19h
  00403B54: 57                 push        edi
  00403B55: E8 64 02 00 00     call        00403DBE
  00403B5A: FF 76 1C           push        dword ptr [esi+1Ch]
  00403B5D: 68 1B FC FF FF     push        0FFFFFC1Bh
  00403B62: 57                 push        edi
  00403B63: E8 56 02 00 00     call        00403DBE
  00403B68: FF 76 28           push        dword ptr [esi+28h]
  00403B6B: 68 1A FC FF FF     push        0FFFFFC1Ah
  00403B70: 57                 push        edi
  00403B71: E8 48 02 00 00     call        00403DBE
  00403B76: 6A 03              push        3
  00403B78: 57                 push        edi
  00403B79: FF 15 2C 72 40 00  call        dword ptr ds:[0040722Ch]
  00403B7F: 39 2D EC EB 42 00  cmp         dword ptr ds:[0042EBECh],ebp
  00403B85: 89 44 24 2C        mov         dword ptr [esp+2Ch],eax
  00403B89: 74 08              je          00403B93
  00403B8B: 66 81 E3 FD FE     and         bx,0FEFDh
  00403B90: 83 CB 04           or          ebx,4
  00403B93: 8B CB              mov         ecx,ebx
  00403B95: 83 E1 08           and         ecx,8
  00403B98: 51                 push        ecx
  00403B99: 50                 push        eax
  00403B9A: FF 15 60 72 40 00  call        dword ptr ds:[00407260h]
  00403BA0: 8B C3              mov         eax,ebx
  00403BA2: 25 00 01 00 00     and         eax,100h
  00403BA7: 50                 push        eax
  00403BA8: FF 74 24 30        push        dword ptr [esp+30h]
  00403BAC: FF 15 3C 72 40 00  call        dword ptr ds:[0040723Ch]
  00403BB2: 8B C3              mov         eax,ebx
  00403BB4: 83 E0 02           and         eax,2
  00403BB7: 50                 push        eax
  00403BB8: E8 23 02 00 00     call        00403DE0
  00403BBD: 83 E3 04           and         ebx,4
  00403BC0: 53                 push        ebx
  00403BC1: FF 35 A0 8F 42 00  push        dword ptr ds:[00428FA0h]
  00403BC7: FF 15 3C 72 40 00  call        dword ptr ds:[0040723Ch]
  00403BCD: 3B DD              cmp         ebx,ebp
  00403BCF: 74 03              je          00403BD4
  00403BD1: 55                 push        ebp
  00403BD2: EB 02              jmp         00403BD6
  00403BD4: 6A 01              push        1
  00403BD6: 68 60 F0 00 00     push        0F060h
  00403BDB: 55                 push        ebp
  00403BDC: 57                 push        edi
  00403BDD: FF 15 7C 71 40 00  call        dword ptr ds:[0040717Ch]
  00403BE3: 50                 push        eax
  00403BE4: FF 15 78 71 40 00  call        dword ptr ds:[00407178h]
  00403BEA: 8B 1D 44 72 40 00  mov         ebx,dword ptr ds:[00407244h]
  00403BF0: 6A 01              push        1
  00403BF2: 55                 push        ebp
  00403BF3: 68 F4 00 00 00     push        0F4h
  00403BF8: FF 74 24 38        push        dword ptr [esp+38h]
  00403BFC: FF D3              call        ebx
  00403BFE: 39 2D EC EB 42 00  cmp         dword ptr ds:[0042EBECh],ebp
  00403C04: 74 13              je          00403C19
  00403C06: 55                 push        ebp
  00403C07: 6A 02              push        2
  00403C09: 68 01 04 00 00     push        401h
  00403C0E: 57                 push        edi
  00403C0F: FF D3              call        ebx
  00403C11: FF 35 A0 8F 42 00  push        dword ptr ds:[00428FA0h]
  00403C17: EB 06              jmp         00403C1F
  00403C19: FF 35 D8 9F 42 00  push        dword ptr ds:[00429FD8h]
  00403C1F: E8 CF 01 00 00     call        00403DF3
  00403C24: BB E0 9F 42 00     mov         ebx,429FE0h
  00403C29: 68 60 E3 42 00     push        42E360h
  00403C2E: 53                 push        ebx
  00403C2F: E8 D8 1D 00 00     call        00405A0C
  00403C34: FF 76 18           push        dword ptr [esi+18h]
  00403C37: 53                 push        ebx
  00403C38: E8 E5 1D 00 00     call        00405A22
  00403C3D: 03 C3              add         eax,ebx
  00403C3F: 50                 push        eax
  00403C40: E8 E9 1D 00 00     call        00405A2E
  00403C45: 53                 push        ebx
  00403C46: 57                 push        edi
  00403C47: FF 15 F4 71 40 00  call        dword ptr ds:[004071F4h]
  00403C4D: 55                 push        ebp
  00403C4E: FF 76 08           push        dword ptr [esi+8]
  00403C51: E8 33 D7 FF FF     call        00401389
  00403C56: 85 C0              test        eax,eax
  00403C58: 0F 85 9D FE FF FF  jne         00403AFB
  00403C5E: 39 2E              cmp         dword ptr [esi],ebp
  00403C60: 0F 84 95 FE FF FF  je          00403AFB
  00403C66: 83 7E 04 05        cmp         dword ptr [esi+4],5
  00403C6A: 75 1D              jne         00403C89
  00403C6C: 39 2D EC EB 42 00  cmp         dword ptr ds:[0042EBECh],ebp
  00403C72: 0F 85 13 01 00 00  jne         00403D8B
  00403C78: 39 2D E0 EB 42 00  cmp         dword ptr ds:[0042EBE0h],ebp
  00403C7E: 0F 85 77 FE FF FF  jne         00403AFB
  00403C84: E9 02 01 00 00     jmp         00403D8B
  00403C89: FF 35 38 E3 42 00  push        dword ptr ds:[0042E338h]
  00403C8F: FF 15 E8 71 40 00  call        dword ptr ds:[004071E8h]
  00403C95: 89 35 B0 97 42 00  mov         dword ptr ds:[004297B0h],esi
  00403C9B: 39 2E              cmp         dword ptr [esi],ebp
  00403C9D: 0F 8E C5 00 00 00  jle         00403D68
  00403CA3: 8B 46 04           mov         eax,dword ptr [esi+4]
  00403CA6: 56                 push        esi
  00403CA7: FF 34 85 A8 91 40  push        dword ptr [eax*4+004091A8h]
            00
  00403CAE: 66 8B 06           mov         ax,word ptr [esi]
  00403CB1: 66 03 05 40 E3 42  add         ax,word ptr ds:[0042E340h]
            00
  00403CB8: 57                 push        edi
  00403CB9: 0F B7 C0           movzx       eax,ax
  00403CBC: 50                 push        eax
  00403CBD: FF 35 60 EB 42 00  push        dword ptr ds:[0042EB60h]
  00403CC3: FF 15 EC 71 40 00  call        dword ptr ds:[004071ECh]
  00403CC9: 3B C5              cmp         eax,ebp
  00403CCB: A3 38 E3 42 00     mov         dword ptr ds:[0042E338h],eax
  00403CD0: 0F 84 92 00 00 00  je          00403D68
  00403CD6: FF 76 2C           push        dword ptr [esi+2Ch]
  00403CD9: 6A 06              push        6
  00403CDB: 50                 push        eax
  00403CDC: E8 DD 00 00 00     call        00403DBE
  00403CE1: 8D 44 24 10        lea         eax,[esp+10h]
  00403CE5: 50                 push        eax
  00403CE6: 68 FA 03 00 00     push        3FAh
  00403CEB: 57                 push        edi
  00403CEC: FF 15 2C 72 40 00  call        dword ptr ds:[0040722Ch]
  00403CF2: 50                 push        eax
  00403CF3: FF 15 74 71 40 00  call        dword ptr ds:[00407174h]
  00403CF9: 8D 44 24 10        lea         eax,[esp+10h]
  00403CFD: 50                 push        eax
  00403CFE: 57                 push        edi
  00403CFF: FF 15 70 71 40 00  call        dword ptr ds:[00407170h]
  00403D05: 6A 15              push        15h
  00403D07: 55                 push        ebp
  00403D08: 55                 push        ebp
  00403D09: FF 74 24 20        push        dword ptr [esp+20h]
  00403D0D: FF 74 24 20        push        dword ptr [esp+20h]
  00403D11: 55                 push        ebp
  00403D12: FF 35 38 E3 42 00  push        dword ptr ds:[0042E338h]
  00403D18: FF 15 88 71 40 00  call        dword ptr ds:[00407188h]
  00403D1E: 55                 push        ebp
  00403D1F: FF 76 0C           push        dword ptr [esi+0Ch]
  00403D22: E8 62 D6 FF FF     call        00401389
  00403D27: 39 2D 2C E3 42 00  cmp         dword ptr ds:[0042E32Ch],ebp
  00403D2D: 75 5C              jne         00403D8B
  00403D2F: 6A 08              push        8
  00403D31: FF 35 38 E3 42 00  push        dword ptr ds:[0042E338h]
  00403D37: FF 15 60 72 40 00  call        dword ptr ds:[00407260h]
  00403D3D: 68 05 04 00 00     push        405h
  00403D42: E8 C3 00 00 00     call        00403E0A
  00403D47: EB 1F              jmp         00403D68
  00403D49: FF 35 38 E3 42 00  push        dword ptr ds:[0042E338h]
  00403D4F: FF 15 E8 71 40 00  call        dword ptr ds:[004071E8h]
  00403D55: FF 35 A8 93 42 00  push        dword ptr ds:[004293A8h]
  00403D5B: 89 2D 68 EB 42 00  mov         dword ptr ds:[0042EB68h],ebp
  00403D61: 57                 push        edi
  00403D62: FF 15 6C 71 40 00  call        dword ptr ds:[0040716Ch]
  00403D68: 39 2D E0 AF 42 00  cmp         dword ptr ds:[0042AFE0h],ebp
  00403D6E: 75 1B              jne         00403D8B
  00403D70: 39 2D 38 E3 42 00  cmp         dword ptr ds:[0042E338h],ebp
  00403D76: 74 13              je          00403D8B
  00403D78: 6A 0A              push        0Ah
  00403D7A: 57                 push        edi
  00403D7B: FF 15 60 72 40 00  call        dword ptr ds:[00407260h]
  00403D81: C7 05 E0 AF 42 00  mov         dword ptr ds:[0042AFE0h],1
            01 00 00 00
  00403D8B: 33 C0              xor         eax,eax
  00403D8D: 5F                 pop         edi
  00403D8E: 5E                 pop         esi
  00403D8F: 5D                 pop         ebp
  00403D90: 5B                 pop         ebx
  00403D91: 83 C4 10           add         esp,10h
  00403D94: C2 10 00           ret         10h
  00403D97: 83 7C 24 04 78     cmp         dword ptr [esp+4],78h
  00403D9C: 75 06              jne         00403DA4
  00403D9E: FF 05 2C E3 42 00  inc         dword ptr ds:[0042E32Ch]
  00403DA4: 6A 00              push        0
  00403DA6: FF 74 24 08        push        dword ptr [esp+8]
  00403DAA: 68 08 04 00 00     push        408h
  00403DAF: FF 35 68 EB 42 00  push        dword ptr ds:[0042EB68h]
  00403DB5: FF 15 44 72 40 00  call        dword ptr ds:[00407244h]
  00403DBB: C2 04 00           ret         4
  00403DBE: FF 74 24 0C        push        dword ptr [esp+0Ch]
  00403DC2: 6A 00              push        0
  00403DC4: E8 65 1C 00 00     call        00405A2E
  00403DC9: 50                 push        eax
  00403DCA: 8B 44 24 0C        mov         eax,dword ptr [esp+0Ch]
  00403DCE: 05 E8 03 00 00     add         eax,3E8h
  00403DD3: 50                 push        eax
  00403DD4: FF 74 24 0C        push        dword ptr [esp+0Ch]
  00403DD8: E8 CE 14 00 00     call        004052AB
  00403DDD: C2 0C 00           ret         0Ch
  00403DE0: FF 74 24 04        push        dword ptr [esp+4]
  00403DE4: FF 35 D8 9F 42 00  push        dword ptr ds:[00429FD8h]
  00403DEA: FF 15 3C 72 40 00  call        dword ptr ds:[0040723Ch]
  00403DF0: C2 04 00           ret         4
  00403DF3: 6A 01              push        1
  00403DF5: FF 74 24 08        push        dword ptr [esp+8]
  00403DF9: 6A 28              push        28h
  00403DFB: FF 35 68 EB 42 00  push        dword ptr ds:[0042EB68h]
  00403E01: FF 15 44 72 40 00  call        dword ptr ds:[00407244h]
  00403E07: C2 04 00           ret         4
  00403E0A: A1 38 E3 42 00     mov         eax,dword ptr ds:[0042E338h]
  00403E0F: 85 C0              test        eax,eax
  00403E11: 74 0F              je          00403E22
  00403E13: 6A 00              push        0
  00403E15: 6A 00              push        0
  00403E17: FF 74 24 0C        push        dword ptr [esp+0Ch]
  00403E1B: 50                 push        eax
  00403E1C: FF 15 44 72 40 00  call        dword ptr ds:[00407244h]
  00403E22: C2 04 00           ret         4
  00403E25: 55                 push        ebp
  00403E26: 8B EC              mov         ebp,esp
  00403E28: 83 EC 0C           sub         esp,0Ch
  00403E2B: 8B 45 08           mov         eax,dword ptr [ebp+8]
  00403E2E: 56                 push        esi
  00403E2F: 05 CD FE FF FF     add         eax,0FFFFFECDh
  00403E34: 83 F8 05           cmp         eax,5
  00403E37: 0F 87 8E 00 00 00  ja          00403ECB
  00403E3D: 6A EB              push        0FFFFFFEBh
  00403E3F: FF 75 10           push        dword ptr [ebp+10h]
  00403E42: FF 15 90 71 40 00  call        dword ptr ds:[00407190h]
  00403E48: 8B F0              mov         esi,eax
  00403E4A: 85 F6              test        esi,esi
  00403E4C: 74 7D              je          00403ECB
  00403E4E: F6 46 14 02        test        byte ptr [esi+14h],2
  00403E52: 8B 06              mov         eax,dword ptr [esi]
  00403E54: 57                 push        edi
  00403E55: 8B 3D 8C 71 40 00  mov         edi,dword ptr ds:[0040718Ch]
  00403E5B: 74 03              je          00403E60
  00403E5D: 50                 push        eax
  00403E5E: FF D7              call        edi
  00403E60: F6 46 14 01        test        byte ptr [esi+14h],1
  00403E64: 74 0A              je          00403E70
  00403E66: 50                 push        eax
  00403E67: FF 75 0C           push        dword ptr [ebp+0Ch]
  00403E6A: FF 15 54 70 40 00  call        dword ptr ds:[00407054h]
  00403E70: FF 76 10           push        dword ptr [esi+10h]
  00403E73: FF 75 0C           push        dword ptr [ebp+0Ch]
  00403E76: FF 15 50 70 40 00  call        dword ptr ds:[00407050h]
  00403E7C: 8B 46 04           mov         eax,dword ptr [esi+4]
  00403E7F: F6 46 14 08        test        byte ptr [esi+14h],8
  00403E83: 89 45 F8           mov         dword ptr [ebp-8],eax
  00403E86: 74 06              je          00403E8E
  00403E88: 50                 push        eax
  00403E89: FF D7              call        edi
  00403E8B: 89 45 F8           mov         dword ptr [ebp-8],eax
  00403E8E: F6 46 14 04        test        byte ptr [esi+14h],4
  00403E92: 5F                 pop         edi
  00403E93: 74 0A              je          00403E9F
  00403E95: 50                 push        eax
  00403E96: FF 75 0C           push        dword ptr [ebp+0Ch]
  00403E99: FF 15 3C 70 40 00  call        dword ptr ds:[0040703Ch]
  00403E9F: F6 46 14 10        test        byte ptr [esi+14h],10h
  00403EA3: 74 21              je          00403EC6
  00403EA5: 8B 46 08           mov         eax,dword ptr [esi+8]
  00403EA8: 89 45 F4           mov         dword ptr [ebp-0Ch],eax
  00403EAB: 8B 46 0C           mov         eax,dword ptr [esi+0Ch]
  00403EAE: 85 C0              test        eax,eax
  00403EB0: 74 07              je          00403EB9
  00403EB2: 50                 push        eax
  00403EB3: FF 15 44 70 40 00  call        dword ptr ds:[00407044h]
  00403EB9: 8D 45 F4           lea         eax,[ebp-0Ch]
  00403EBC: 50                 push        eax
  00403EBD: FF 15 48 70 40 00  call        dword ptr ds:[00407048h]
  00403EC3: 89 46 0C           mov         dword ptr [esi+0Ch],eax
  00403EC6: 8B 46 0C           mov         eax,dword ptr [esi+0Ch]
  00403EC9: EB 02              jmp         00403ECD
  00403ECB: 33 C0              xor         eax,eax
  00403ECD: 5E                 pop         esi
  00403ECE: C9                 leave
  00403ECF: C2 0C 00           ret         0Ch
  00403ED2: 55                 push        ebp
  00403ED3: 8B EC              mov         ebp,esp
  00403ED5: 8B 45 08           mov         eax,dword ptr [ebp+8]
  00403ED8: 8B 0D A4 8F 42 00  mov         ecx,dword ptr ds:[00428FA4h]
  00403EDE: FF 75 10           push        dword ptr [ebp+10h]
  00403EE1: 03 C8              add         ecx,eax
  00403EE3: 51                 push        ecx
  00403EE4: FF 75 0C           push        dword ptr [ebp+0Ch]
  00403EE7: FF 15 B8 70 40 00  call        dword ptr ds:[004070B8h]
  00403EED: FF 75 0C           push        dword ptr [ebp+0Ch]
  00403EF0: E8 2D 1B 00 00     call        00405A22
  00403EF5: 8B 4D 14           mov         ecx,dword ptr [ebp+14h]
  00403EF8: 89 01              mov         dword ptr [ecx],eax
  00403EFA: 01 05 A4 8F 42 00  add         dword ptr ds:[00428FA4h],eax
  00403F00: 33 C0              xor         eax,eax
  00403F02: 5D                 pop         ebp
  00403F03: C2 10 00           ret         10h
  00403F06: 55                 push        ebp
  00403F07: 8B EC              mov         ebp,esp
  00403F09: 83 EC 0C           sub         esp,0Ch
  00403F0C: 81 7D 0C 10 01 00  cmp         dword ptr [ebp+0Ch],110h
            00
  00403F13: 53                 push        ebx
  00403F14: 56                 push        esi
  00403F15: 57                 push        edi
  00403F16: 0F 85 0D 01 00 00  jne         00404029
  00403F1C: 8B 5D 14           mov         ebx,dword ptr [ebp+14h]
  00403F1F: 8B 7B 30           mov         edi,dword ptr [ebx+30h]
  00403F22: 85 FF              test        edi,edi
  00403F24: 7D 11              jge         00403F37
  00403F26: 8B 0D 3C E3 42 00  mov         ecx,dword ptr ds:[0042E33Ch]
  00403F2C: 8D 04 BD 04 00 00  lea         eax,[edi*4+00000004h]
            00
  00403F33: 2B C8              sub         ecx,eax
  00403F35: 8B 39              mov         edi,dword ptr [ecx]
  00403F37: A1 98 EB 42 00     mov         eax,dword ptr ds:[0042EB98h]
  00403F3C: FF 73 34           push        dword ptr [ebx+34h]
  00403F3F: 03 F8              add         edi,eax
  00403F41: 6A 22              push        22h
  00403F43: 0F BE 07           movsx       eax,byte ptr [edi]
  00403F46: 89 45 14           mov         dword ptr [ebp+14h],eax
  00403F49: 8B 43 14           mov         eax,dword ptr [ebx+14h]
  00403F4C: FF 75 08           push        dword ptr [ebp+8]
  00403F4F: 83 65 F8 00        and         dword ptr [ebp-8],0
  00403F53: 8B F0              mov         esi,eax
  00403F55: 47                 inc         edi
  00403F56: F7 D6              not         esi
  00403F58: C1 EE 05           shr         esi,5
  00403F5B: 83 E6 01           and         esi,1
  00403F5E: 83 E0 01           and         eax,1
  00403F61: 89 7D F4           mov         dword ptr [ebp-0Ch],edi
  00403F64: C7 45 FC D2 3E 40  mov         dword ptr [ebp-4],403ED2h
            00
  00403F6B: 0B F0              or          esi,eax
  00403F6D: E8 4C FE FF FF     call        00403DBE
  00403F72: FF 73 38           push        dword ptr [ebx+38h]
  00403F75: 6A 23              push        23h
  00403F77: FF 75 08           push        dword ptr [ebp+8]
  00403F7A: E8 3F FE FF FF     call        00403DBE
  00403F7F: 33 C0              xor         eax,eax
  00403F81: 6A 01              push        1
  00403F83: 85 F6              test        esi,esi
  00403F85: 0F 94 C0           sete        al
  00403F88: 05 0A 04 00 00     add         eax,40Ah
  00403F8D: 50                 push        eax
  00403F8E: FF 75 08           push        dword ptr [ebp+8]
  00403F91: FF 15 9C 71 40 00  call        dword ptr ds:[0040719Ch]
  00403F97: 56                 push        esi
  00403F98: E8 43 FE FF FF     call        00403DE0
  00403F9D: 68 E8 03 00 00     push        3E8h
  00403FA2: FF 75 08           push        dword ptr [ebp+8]
  00403FA5: FF 15 2C 72 40 00  call        dword ptr ds:[0040722Ch]
  00403FAB: 8B D8              mov         ebx,eax
  00403FAD: 53                 push        ebx
  00403FAE: E8 40 FE FF FF     call        00403DF3
  00403FB3: 8B 35 44 72 40 00  mov         esi,dword ptr ds:[00407244h]
  00403FB9: 6A 00              push        0
  00403FBB: 6A 01              push        1
  00403FBD: 68 5B 04 00 00     push        45Bh
  00403FC2: 53                 push        ebx
  00403FC3: FF D6              call        esi
  00403FC5: A1 70 EB 42 00     mov         eax,dword ptr ds:[0042EB70h]
  00403FCA: 8B 40 68           mov         eax,dword ptr [eax+68h]
  00403FCD: 85 C0              test        eax,eax
  00403FCF: 7D 09              jge         00403FDA
  00403FD1: F7 D8              neg         eax
  00403FD3: 50                 push        eax
  00403FD4: FF 15 8C 71 40 00  call        dword ptr ds:[0040718Ch]
  00403FDA: 50                 push        eax
  00403FDB: 6A 00              push        0
  00403FDD: 68 43 04 00 00     push        443h
  00403FE2: 53                 push        ebx
  00403FE3: FF D6              call        esi
  00403FE5: 68 00 00 01 04     push        4010000h
  00403FEA: 6A 00              push        0
  00403FEC: 68 45 04 00 00     push        445h
  00403FF1: 53                 push        ebx
  00403FF2: FF D6              call        esi
  00403FF4: 83 25 A4 8F 42 00  and         dword ptr ds:[00428FA4h],0
            00
  00403FFB: 57                 push        edi
  00403FFC: E8 21 1A 00 00     call        00405A22
  00404001: 50                 push        eax
  00404002: 6A 00              push        0
  00404004: 68 35 04 00 00     push        435h
  00404009: 53                 push        ebx
  0040400A: FF D6              call        esi
  0040400C: 8D 45 F4           lea         eax,[ebp-0Ch]
  0040400F: 50                 push        eax
  00404010: FF 75 14           push        dword ptr [ebp+14h]
  00404013: 68 49 04 00 00     push        449h
  00404018: 53                 push        ebx
  00404019: FF D6              call        esi
  0040401B: 83 25 C0 9F 42 00  and         dword ptr ds:[00429FC0h],0
            00
  00404022: 33 C0              xor         eax,eax
  00404024: E9 61 01 00 00     jmp         0040418A
  00404029: 81 7D 0C 11 01 00  cmp         dword ptr [ebp+0Ch],111h
            00
  00404030: 8B 1D 2C 72 40 00  mov         ebx,dword ptr ds:[0040722Ch]
  00404036: 8B 35 44 72 40 00  mov         esi,dword ptr ds:[00407244h]
  0040403C: 75 5A              jne         00404098
  0040403E: 8B 45 10           mov         eax,dword ptr [ebp+10h]
  00404041: C1 E8 10           shr         eax,10h
  00404044: 66 85 C0           test        ax,ax
  00404047: 0F 85 2E 01 00 00  jne         0040417B
  0040404D: 33 C0              xor         eax,eax
  0040404F: 39 05 C0 9F 42 00  cmp         dword ptr ds:[00429FC0h],eax
  00404055: 0F 85 20 01 00 00  jne         0040417B
  0040405B: 8B 0D B0 97 42 00  mov         ecx,dword ptr ds:[004297B0h]
  00404061: 8D 79 14           lea         edi,[ecx+14h]
  00404064: F6 07 20           test        byte ptr [edi],20h
  00404067: 0F 84 0E 01 00 00  je          0040417B
  0040406D: 50                 push        eax
  0040406E: 50                 push        eax
  0040406F: 68 F0 00 00 00     push        0F0h
  00404074: 68 0A 04 00 00     push        40Ah
  00404079: FF 75 08           push        dword ptr [ebp+8]
  0040407C: FF D3              call        ebx
  0040407E: 50                 push        eax
  0040407F: FF D6              call        esi
  00404081: 8B 0F              mov         ecx,dword ptr [edi]
  00404083: 83 E0 01           and         eax,1
  00404086: 83 E1 FE           and         ecx,0FFFFFFFEh
  00404089: 50                 push        eax
  0040408A: 0B C8              or          ecx,eax
  0040408C: 89 0F              mov         dword ptr [edi],ecx
  0040408E: E8 4D FD FF FF     call        00403DE0
  00404093: E8 F9 00 00 00     call        00404191
  00404098: 83 7D 0C 4E        cmp         dword ptr [ebp+0Ch],4Eh
  0040409C: 0F 85 CA 00 00 00  jne         0040416C
  004040A2: 68 E8 03 00 00     push        3E8h
  004040A7: FF 75 08           push        dword ptr [ebp+8]
  004040AA: FF D3              call        ebx
  004040AC: 8B 7D 14           mov         edi,dword ptr [ebp+14h]
  004040AF: 81 7F 08 0B 07 00  cmp         dword ptr [edi+8],70Bh
            00
  004040B6: 75 72              jne         0040412A
  004040B8: 81 7F 0C 01 02 00  cmp         dword ptr [edi+0Ch],201h
            00
  004040BF: 75 69              jne         0040412A
  004040C1: 8B 4F 1C           mov         ecx,dword ptr [edi+1Ch]
  004040C4: 8B 57 18           mov         edx,dword ptr [edi+18h]
  004040C7: 89 4D F8           mov         dword ptr [ebp-8],ecx
  004040CA: 2B CA              sub         ecx,edx
  004040CC: 81 F9 00 08 00 00  cmp         ecx,800h
  004040D2: 89 55 F4           mov         dword ptr [ebp-0Ch],edx
  004040D5: C7 45 FC 00 DB 42  mov         dword ptr [ebp-4],42DB00h
            00
  004040DC: 73 4C              jae         0040412A
  004040DE: 8D 4D F4           lea         ecx,[ebp-0Ch]
  004040E1: 51                 push        ecx
  004040E2: 6A 00              push        0
  004040E4: 68 4B 04 00 00     push        44Bh
  004040E9: 50                 push        eax
  004040EA: FF D6              call        esi
  004040EC: 8B 3D 98 71 40 00  mov         edi,dword ptr ds:[00407198h]
  004040F2: 68 02 7F 00 00     push        7F02h
  004040F7: 6A 00              push        0
  004040F9: FF D7              call        edi
  004040FB: 8B 1D 94 71 40 00  mov         ebx,dword ptr ds:[00407194h]
  00404101: 50                 push        eax
  00404102: FF D3              call        ebx
  00404104: 6A 01              push        1
  00404106: 6A 00              push        0
  00404108: 6A 00              push        0
  0040410A: FF 75 FC           push        dword ptr [ebp-4]
  0040410D: 68 C4 91 40 00     push        4091C4h
  00404112: FF 75 08           push        dword ptr [ebp+8]
  00404115: FF 15 5C 71 40 00  call        dword ptr ds:[0040715Ch]
  0040411B: 68 00 7F 00 00     push        7F00h
  00404120: 6A 00              push        0
  00404122: FF D7              call        edi
  00404124: 50                 push        eax
  00404125: FF D3              call        ebx
  00404127: 8B 7D 14           mov         edi,dword ptr [ebp+14h]
  0040412A: 81 7F 08 00 07 00  cmp         dword ptr [edi+8],700h
            00
  00404131: 75 4B              jne         0040417E
  00404133: 81 7F 0C 00 01 00  cmp         dword ptr [edi+0Ch],100h
            00
  0040413A: 75 42              jne         0040417E
  0040413C: 83 7F 10 0D        cmp         dword ptr [edi+10h],0Dh
  00404140: 75 11              jne         00404153
  00404142: 6A 00              push        0
  00404144: 6A 01              push        1
  00404146: 68 11 01 00 00     push        111h
  0040414B: FF 35 68 EB 42 00  push        dword ptr ds:[0042EB68h]
  00404151: FF D6              call        esi
  00404153: 83 7F 10 1B        cmp         dword ptr [edi+10h],1Bh
  00404157: 75 0E              jne         00404167
  00404159: 6A 00              push        0
  0040415B: 6A 00              push        0
  0040415D: 6A 10              push        10h
  0040415F: FF 35 68 EB 42 00  push        dword ptr ds:[0042EB68h]
  00404165: FF D6              call        esi
  00404167: 33 C0              xor         eax,eax
  00404169: 40                 inc         eax
  0040416A: EB 1E              jmp         0040418A
  0040416C: 81 7D 0C 0B 04 00  cmp         dword ptr [ebp+0Ch],40Bh
            00
  00404173: 75 06              jne         0040417B
  00404175: FF 05 C0 9F 42 00  inc         dword ptr ds:[00429FC0h]
  0040417B: 8B 7D 14           mov         edi,dword ptr [ebp+14h]
  0040417E: 57                 push        edi
  0040417F: FF 75 10           push        dword ptr [ebp+10h]
  00404182: FF 75 0C           push        dword ptr [ebp+0Ch]
  00404185: E8 9B FC FF FF     call        00403E25
  0040418A: 5F                 pop         edi
  0040418B: 5E                 pop         esi
  0040418C: 5B                 pop         ebx
  0040418D: C9                 leave
  0040418E: C2 10 00           ret         10h
  00404191: 83 3D EC EB 42 00  cmp         dword ptr ds:[0042EBECh],0
            00
  00404198: A1 A0 8F 42 00     mov         eax,dword ptr ds:[00428FA0h]
  0040419D: 75 05              jne         004041A4
  0040419F: A1 D8 9F 42 00     mov         eax,dword ptr ds:[00429FD8h]
  004041A4: 6A 01              push        1
  004041A6: 6A 01              push        1
  004041A8: 68 F4 00 00 00     push        0F4h
  004041AD: 50                 push        eax
  004041AE: FF 15 44 72 40 00  call        dword ptr ds:[00407244h]
  004041B4: C3                 ret
  004041B5: 55                 push        ebp
  004041B6: 8B EC              mov         ebp,esp
  004041B8: 81 7D 0C 10 01 00  cmp         dword ptr [ebp+0Ch],110h
            00
  004041BF: 56                 push        esi
  004041C0: 8B 75 14           mov         esi,dword ptr [ebp+14h]
  004041C3: 75 26              jne         004041EB
  004041C5: FF 76 30           push        dword ptr [esi+30h]
  004041C8: 6A 1D              push        1Dh
  004041CA: FF 75 08           push        dword ptr [ebp+8]
  004041CD: E8 EC FB FF FF     call        00403DBE
  004041D2: 8B 46 3C           mov         eax,dword ptr [esi+3Ch]
  004041D5: C1 E0 0A           shl         eax,0Ah
  004041D8: 05 00 F0 42 00     add         eax,42F000h
  004041DD: 50                 push        eax
  004041DE: 68 E8 03 00 00     push        3E8h
  004041E3: FF 75 08           push        dword ptr [ebp+8]
  004041E6: E8 C0 10 00 00     call        004052AB
  004041EB: 56                 push        esi
  004041EC: FF 75 10           push        dword ptr [ebp+10h]
  004041EF: FF 75 0C           push        dword ptr [ebp+0Ch]
  004041F2: E8 2E FC FF FF     call        00403E25
  004041F7: 5E                 pop         esi
  004041F8: 5D                 pop         ebp
  004041F9: C2 10 00           ret         10h
  004041FC: 55                 push        ebp
  004041FD: 8B EC              mov         ebp,esp
  004041FF: 83 EC 48           sub         esp,48h
  00404202: A1 B0 97 42 00     mov         eax,dword ptr ds:[004297B0h]
  00404207: 53                 push        ebx
  00404208: 56                 push        esi
  00404209: 89 45 E0           mov         dword ptr [ebp-20h],eax
  0040420C: 8B 70 3C           mov         esi,dword ptr [eax+3Ch]
  0040420F: 8B 40 38           mov         eax,dword ptr [eax+38h]
  00404212: C1 E6 0A           shl         esi,0Ah
  00404215: 81 C6 00 F0 42 00  add         esi,42F000h
  0040421B: 81 7D 0C 0B 04 00  cmp         dword ptr [ebp+0Ch],40Bh
            00
  00404222: 57                 push        edi
  00404223: 89 45 FC           mov         dword ptr [ebp-4],eax
  00404226: BB FB 03 00 00     mov         ebx,3FBh
  0040422B: 75 0D              jne         0040423A
  0040422D: 56                 push        esi
  0040422E: 53                 push        ebx
  0040422F: E8 7D 10 00 00     call        004052B1
  00404234: 56                 push        esi
  00404235: E8 34 1A 00 00     call        00405C6E
  0040423A: 81 7D 0C 10 01 00  cmp         dword ptr [ebp+0Ch],110h
            00
  00404241: 75 72              jne         004042B5
  00404243: 8B 7D 08           mov         edi,dword ptr [ebp+8]
  00404246: 53                 push        ebx
  00404247: 57                 push        edi
  00404248: FF 15 2C 72 40 00  call        dword ptr ds:[0040722Ch]
  0040424E: 56                 push        esi
  0040424F: 89 45 F8           mov         dword ptr [ebp-8],eax
  00404252: E8 15 13 00 00     call        0040556C
  00404257: 85 C0              test        eax,eax
  00404259: 74 10              je          0040426B
  0040425B: 56                 push        esi
  0040425C: E8 32 13 00 00     call        00405593
  00404261: 85 C0              test        eax,eax
  00404263: 75 06              jne         0040426B
  00404265: 56                 push        esi
  00404266: E8 94 12 00 00     call        004054FF
  0040426B: 56                 push        esi
  0040426C: 89 3D 38 E3 42 00  mov         dword ptr ds:[0042E338h],edi
  00404272: FF 75 F8           push        dword ptr [ebp-8]
  00404275: FF 15 F4 71 40 00  call        dword ptr ds:[004071F4h]
  0040427B: 8B 45 14           mov         eax,dword ptr [ebp+14h]
  0040427E: FF 70 34           push        dword ptr [eax+34h]
  00404281: 6A 01              push        1
  00404283: 57                 push        edi
  00404284: E8 35 FB FF FF     call        00403DBE
  00404289: 8B 45 14           mov         eax,dword ptr [ebp+14h]
  0040428C: FF 70 30           push        dword ptr [eax+30h]
  0040428F: 6A 14              push        14h
  00404291: 57                 push        edi
  00404292: E8 27 FB FF FF     call        00403DBE
  00404297: FF 75 F8           push        dword ptr [ebp-8]
  0040429A: E8 54 FB FF FF     call        00403DF3
  0040429F: 6A 07              push        7
  004042A1: E8 88 1A 00 00     call        00405D2E
  004042A6: 85 C0              test        eax,eax
  004042A8: 0F 84 6E 02 00 00  je          0040451C
  004042AE: 6A 01              push        1
  004042B0: FF 75 F8           push        dword ptr [ebp-8]
  004042B3: FF D0              call        eax
  004042B5: 81 7D 0C 11 01 00  cmp         dword ptr [ebp+0Ch],111h
            00
  004042BC: 0F 85 CF 00 00 00  jne         00404391
  004042C2: 0F B7 45 10        movzx       eax,word ptr [ebp+10h]
  004042C6: 3B C3              cmp         eax,ebx
  004042C8: 75 18              jne         004042E2
  004042CA: 8B 4D 10           mov         ecx,dword ptr [ebp+10h]
  004042CD: C1 E9 10           shr         ecx,10h
  004042D0: 66 81 F9 00 03     cmp         cx,300h
  004042D5: 0F 85 41 02 00 00  jne         0040451C
  004042DB: C7 45 0C 0F 04 00  mov         dword ptr [ebp+0Ch],40Fh
            00
  004042E2: 3D E9 03 00 00     cmp         eax,3E9h
  004042E7: 0F 85 A4 00 00 00  jne         00404391
  004042ED: 6A 07              push        7
  004042EF: 33 C0              xor         eax,eax
  004042F1: 59                 pop         ecx
  004042F2: 8D 7D BC           lea         edi,[ebp-44h]
  004042F5: FF 75 FC           push        dword ptr [ebp-4]
  004042F8: F3 AB              rep stos    dword ptr es:[edi]
  004042FA: 8B 45 08           mov         eax,dword ptr [ebp+8]
  004042FD: BF E0 9F 42 00     mov         edi,429FE0h
  00404302: 68 B0 93 42 00     push        4293B0h
  00404307: 89 45 B8           mov         dword ptr [ebp-48h],eax
  0040430A: 89 7D C0           mov         dword ptr [ebp-40h],edi
  0040430D: C7 45 CC 31 45 40  mov         dword ptr [ebp-34h],404531h
            00
  00404314: 89 75 D0           mov         dword ptr [ebp-30h],esi
  00404317: E8 12 17 00 00     call        00405A2E
  0040431C: 89 45 C4           mov         dword ptr [ebp-3Ch],eax
  0040431F: 8D 45 B8           lea         eax,[ebp-48h]
  00404322: 50                 push        eax
  00404323: C7 45 C8 41 00 00  mov         dword ptr [ebp-38h],41h
            00
  0040432A: FF 15 54 71 40 00  call        dword ptr ds:[00407154h]
  00404330: 85 C0              test        eax,eax
  00404332: 74 56              je          0040438A
  00404334: 50                 push        eax
  00404335: FF 15 78 72 40 00  call        dword ptr ds:[00407278h]
  0040433B: 56                 push        esi
  0040433C: E8 BE 11 00 00     call        004054FF
  00404341: A1 70 EB 42 00     mov         eax,dword ptr ds:[0042EB70h]
  00404346: 8B 80 1C 01 00 00  mov         eax,dword ptr [eax+0000011Ch]
  0040434C: 85 C0              test        eax,eax
  0040434E: 74 28              je          00404378
  00404350: 81 FE 00 44 43 00  cmp         esi,434400h
  00404356: 75 20              jne         00404378
  00404358: 50                 push        eax
  00404359: 6A 00              push        0
  0040435B: E8 CE 16 00 00     call        00405A2E
  00404360: 57                 push        edi
  00404361: BF 00 DB 42 00     mov         edi,42DB00h
  00404366: 57                 push        edi
  00404367: FF 15 F0 70 40 00  call        dword ptr ds:[004070F0h]
  0040436D: 85 C0              test        eax,eax
  0040436F: 74 07              je          00404378
  00404371: 57                 push        edi
  00404372: 56                 push        esi
  00404373: E8 B0 16 00 00     call        00405A28
  00404378: FF 05 CC 9F 42 00  inc         dword ptr ds:[00429FCCh]
  0040437E: 56                 push        esi
  0040437F: 53                 push        ebx
  00404380: FF 75 08           push        dword ptr [ebp+8]
  00404383: E8 23 0F 00 00     call        004052AB
  00404388: EB 07              jmp         00404391
  0040438A: C7 45 0C 0F 04 00  mov         dword ptr [ebp+0Ch],40Fh
            00
  00404391: 81 7D 0C 0F 04 00  cmp         dword ptr [ebp+0Ch],40Fh
            00
  00404398: 74 0D              je          004043A7
  0040439A: 81 7D 0C 05 04 00  cmp         dword ptr [ebp+0Ch],405h
            00
  004043A1: 0F 85 75 01 00 00  jne         0040451C
  004043A7: 83 65 FC 00        and         dword ptr [ebp-4],0
  004043AB: 83 65 F8 00        and         dword ptr [ebp-8],0
  004043AF: 56                 push        esi
  004043B0: 53                 push        ebx
  004043B1: E8 FB 0E 00 00     call        004052B1
  004043B6: 56                 push        esi
  004043B7: E8 24 12 00 00     call        004055E0
  004043BC: 85 C0              test        eax,eax
  004043BE: 75 07              jne         004043C7
  004043C0: C7 45 FC 01 00 00  mov         dword ptr [ebp-4],1
            00
  004043C7: BF A8 8F 42 00     mov         edi,428FA8h
  004043CC: 56                 push        esi
  004043CD: 57                 push        edi
  004043CE: E8 39 16 00 00     call        00405A0C
  004043D3: 33 DB              xor         ebx,ebx
  004043D5: 53                 push        ebx
  004043D6: E8 53 19 00 00     call        00405D2E
  004043DB: 3B C3              cmp         eax,ebx
  004043DD: 89 45 F4           mov         dword ptr [ebp-0Ch],eax
  004043E0: 74 35              je          00404417
  004043E2: 33 C0              xor         eax,eax
  004043E4: 3B C7              cmp         eax,edi
  004043E6: 74 2D              je          00404415
  004043E8: 8D 45 E4           lea         eax,[ebp-1Ch]
  004043EB: 50                 push        eax
  004043EC: 8D 45 EC           lea         eax,[ebp-14h]
  004043EF: 50                 push        eax
  004043F0: 8D 45 D8           lea         eax,[ebp-28h]
  004043F3: 50                 push        eax
  004043F4: 57                 push        edi
  004043F5: FF 55 F4           call        dword ptr [ebp-0Ch]
  004043F8: 85 C0              test        eax,eax
  004043FA: 75 6C              jne         00404468
  004043FC: 85 DB              test        ebx,ebx
  004043FE: 74 03              je          00404403
  00404400: 66 21 03           and         word ptr [ebx],ax
  00404403: 57                 push        edi
  00404404: E8 3D 11 00 00     call        00405546
  00404409: 8B D8              mov         ebx,eax
  0040440B: 4B                 dec         ebx
  0040440C: 3B DF              cmp         ebx,edi
  0040440E: 66 C7 03 5C 00     mov         word ptr [ebx],5Ch
  00404413: 75 D3              jne         004043E8
  00404415: 33 DB              xor         ebx,ebx
  00404417: 56                 push        esi
  00404418: 57                 push        edi
  00404419: E8 EE 15 00 00     call        00405A0C
  0040441E: 57                 push        edi
  0040441F: E8 6F 11 00 00     call        00405593
  00404424: 3B C3              cmp         eax,ebx
  00404426: 74 03              je          0040442B
  00404428: 80 20 00           and         byte ptr [eax],0
  0040442B: 8D 45 DC           lea         eax,[ebp-24h]
  0040442E: 50                 push        eax
  0040442F: 8D 45 F4           lea         eax,[ebp-0Ch]
  00404432: 50                 push        eax
  00404433: 8D 45 E8           lea         eax,[ebp-18h]
  00404436: 50                 push        eax
  00404437: 8D 45 F0           lea         eax,[ebp-10h]
  0040443A: 50                 push        eax
  0040443B: 57                 push        edi
  0040443C: FF 15 BC 70 40 00  call        dword ptr ds:[004070BCh]
  00404442: 85 C0              test        eax,eax
  00404444: 74 3A              je          00404480
  00404446: 8B 45 F0           mov         eax,dword ptr [ebp-10h]
  00404449: BE 00 04 00 00     mov         esi,400h
  0040444E: 0F AF 45 E8        imul        eax,dword ptr [ebp-18h]
  00404452: 56                 push        esi
  00404453: FF 75 F4           push        dword ptr [ebp-0Ch]
  00404456: 50                 push        eax
  00404457: FF 15 30 71 40 00  call        dword ptr ds:[00407130h]
  0040445D: 8B F8              mov         edi,eax
  0040445F: C7 45 F8 01 00 00  mov         dword ptr [ebp-8],1
            00
  00404466: EB 20              jmp         00404488
  00404468: 8B 7D D8           mov         edi,dword ptr [ebp-28h]
  0040446B: 8B 45 DC           mov         eax,dword ptr [ebp-24h]
  0040446E: 0F AC C7 0A        shrd        edi,eax,0Ah
  00404472: C1 E8 0A           shr         eax,0Ah
  00404475: C7 45 F8 01 00 00  mov         dword ptr [ebp-8],1
            00
  0040447C: 33 DB              xor         ebx,ebx
  0040447E: EB 03              jmp         00404483
  00404480: 8B 7D 0C           mov         edi,dword ptr [ebp+0Ch]
  00404483: BE 00 04 00 00     mov         esi,400h
  00404488: 6A 05              push        5
  0040448A: E8 BD 01 00 00     call        0040464C
  0040448F: 39 5D F8           cmp         dword ptr [ebp-8],ebx
  00404492: 74 0B              je          0040449F
  00404494: 3B F8              cmp         edi,eax
  00404496: 73 07              jae         0040449F
  00404498: C7 45 FC 02 00 00  mov         dword ptr [ebp-4],2
            00
  0040449F: 8B 0D 3C E3 42 00  mov         ecx,dword ptr ds:[0042E33Ch]
  004044A5: 39 59 10           cmp         dword ptr [ecx+10h],ebx
  004044A8: 74 2B              je          004044D5
  004044AA: 50                 push        eax
  004044AB: 6A FB              push        0FFFFFFFBh
  004044AD: 68 FF 03 00 00     push        3FFh
  004044B2: E8 E0 00 00 00     call        00404597
  004044B7: 39 5D F8           cmp         dword ptr [ebp-8],ebx
  004044BA: 74 0B              je          004044C7
  004044BC: 57                 push        edi
  004044BD: 6A FC              push        0FFFFFFFCh
  004044BF: 56                 push        esi
  004044C0: E8 D2 00 00 00     call        00404597
  004044C5: EB 0E              jmp         004044D5
  004044C7: 68 98 8F 42 00     push        428F98h
  004044CC: 56                 push        esi
  004044CD: FF 75 08           push        dword ptr [ebp+8]
  004044D0: E8 D6 0D 00 00     call        004052AB
  004044D5: 8B 45 FC           mov         eax,dword ptr [ebp-4]
  004044D8: 3B C3              cmp         eax,ebx
  004044DA: A3 04 EC 42 00     mov         dword ptr ds:[0042EC04h],eax
  004044DF: 75 0A              jne         004044EB
  004044E1: 6A 07              push        7
  004044E3: E8 23 CF FF FF     call        0040140B
  004044E8: 89 45 FC           mov         dword ptr [ebp-4],eax
  004044EB: 8B 45 E0           mov         eax,dword ptr [ebp-20h]
  004044EE: 85 70 14           test        dword ptr [eax+14h],esi
  004044F1: 74 03              je          004044F6
  004044F3: 89 5D FC           mov         dword ptr [ebp-4],ebx
  004044F6: 33 C0              xor         eax,eax
  004044F8: 39 5D FC           cmp         dword ptr [ebp-4],ebx
  004044FB: 0F 94 C0           sete        al
  004044FE: 50                 push        eax
  004044FF: E8 DC F8 FF FF     call        00403DE0
  00404504: 39 5D FC           cmp         dword ptr [ebp-4],ebx
  00404507: 75 0D              jne         00404516
  00404509: 39 1D CC 9F 42 00  cmp         dword ptr ds:[00429FCCh],ebx
  0040450F: 75 05              jne         00404516
  00404511: E8 7B FC FF FF     call        00404191
  00404516: 89 1D CC 9F 42 00  mov         dword ptr ds:[00429FCCh],ebx
  0040451C: FF 75 14           push        dword ptr [ebp+14h]
  0040451F: FF 75 10           push        dword ptr [ebp+10h]
  00404522: FF 75 0C           push        dword ptr [ebp+0Ch]
  00404525: E8 FB F8 FF FF     call        00403E25
  0040452A: 5F                 pop         edi
  0040452B: 5E                 pop         esi
  0040452C: 5B                 pop         ebx
  0040452D: C9                 leave
  0040452E: C2 10 00           ret         10h
  00404531: 55                 push        ebp
  00404532: 8B EC              mov         ebp,esp
  00404534: 83 7D 0C 01        cmp         dword ptr [ebp+0Ch],1
  00404538: 56                 push        esi
  00404539: 8B 35 44 72 40 00  mov         esi,dword ptr ds:[00407244h]
  0040453F: 75 1C              jne         0040455D
  00404541: FF 75 14           push        dword ptr [ebp+14h]
  00404544: 68 FB 03 00 00     push        3FBh
  00404549: E8 63 0D 00 00     call        004052B1
  0040454E: FF 75 14           push        dword ptr [ebp+14h]
  00404551: 6A 01              push        1
  00404553: 68 66 04 00 00     push        466h
  00404558: FF 75 08           push        dword ptr [ebp+8]
  0040455B: FF D6              call        esi
  0040455D: 83 7D 0C 02        cmp         dword ptr [ebp+0Ch],2
  00404561: 75 2D              jne         00404590
  00404563: FF 75 14           push        dword ptr [ebp+14h]
  00404566: FF 75 10           push        dword ptr [ebp+10h]
  00404569: FF 15 50 71 40 00  call        dword ptr ds:[00407150h]
  0040456F: 85 C0              test        eax,eax
  00404571: 74 0E              je          00404581
  00404573: 6A 07              push        7
  00404575: E8 91 CE FF FF     call        0040140B
  0040457A: 85 C0              test        eax,eax
  0040457C: 75 03              jne         00404581
  0040457E: 40                 inc         eax
  0040457F: EB 02              jmp         00404583
  00404581: 33 C0              xor         eax,eax
  00404583: 50                 push        eax
  00404584: 6A 00              push        0
  00404586: 68 65 04 00 00     push        465h
  0040458B: FF 75 08           push        dword ptr [ebp+8]
  0040458E: FF D6              call        esi
  00404590: 33 C0              xor         eax,eax
  00404592: 5E                 pop         esi
  00404593: 5D                 pop         ebp
  00404594: C2 10 00           ret         10h
  00404597: 55                 push        ebp
  00404598: 8B EC              mov         ebp,esp
  0040459A: 83 EC 40           sub         esp,40h
  0040459D: 53                 push        ebx
  0040459E: 56                 push        esi
  0040459F: 8B 75 10           mov         esi,dword ptr [ebp+10h]
  004045A2: 57                 push        edi
  004045A3: 6A 14              push        14h
  004045A5: 81 FE 00 00 10 00  cmp         esi,100000h
  004045AB: 5F                 pop         edi
  004045AC: 6A DC              push        0FFFFFFDCh
  004045AE: 5B                 pop         ebx
  004045AF: 73 06              jae         004045B7
  004045B1: 6A 0A              push        0Ah
  004045B3: 5F                 pop         edi
  004045B4: 6A DD              push        0FFFFFFDDh
  004045B6: 5B                 pop         ebx
  004045B7: 81 FE 00 04 00 00  cmp         esi,400h
  004045BD: 73 05              jae         004045C4
  004045BF: 6A DE              push        0FFFFFFDEh
  004045C1: 33 FF              xor         edi,edi
  004045C3: 5B                 pop         ebx
  004045C4: 81 FE 33 33 FF FF  cmp         esi,0FFFF3333h
  004045CA: 73 0F              jae         004045DB
  004045CC: 33 C0              xor         eax,eax
  004045CE: 8B CF              mov         ecx,edi
  004045D0: 40                 inc         eax
  004045D1: 6A 14              push        14h
  004045D3: D3 E0              shl         eax,cl
  004045D5: 59                 pop         ecx
  004045D6: 99                 cdq
  004045D7: F7 F9              idiv        eax,ecx
  004045D9: 03 F0              add         esi,eax
  004045DB: 8D 45 E0           lea         eax,[ebp-20h]
  004045DE: 6A DF              push        0FFFFFFDFh
  004045E0: 50                 push        eax
  004045E1: E8 48 14 00 00     call        00405A2E
  004045E6: 50                 push        eax
  004045E7: 8D 45 C0           lea         eax,[ebp-40h]
  004045EA: 53                 push        ebx
  004045EB: 50                 push        eax
  004045EC: E8 3D 14 00 00     call        00405A2E
  004045F1: 50                 push        eax
  004045F2: 8B C6              mov         eax,esi
  004045F4: 25 FF FF FF 00     and         eax,0FFFFFFh
  004045F9: 8B CF              mov         ecx,edi
  004045FB: 6A 0A              push        0Ah
  004045FD: 33 D2              xor         edx,edx
  004045FF: 8D 04 80           lea         eax,[eax+eax*4]
  00404602: 03 C0              add         eax,eax
  00404604: D3 E8              shr         eax,cl
  00404606: 59                 pop         ecx
  00404607: F7 F1              div         eax,ecx
  00404609: 8B CF              mov         ecx,edi
  0040460B: D3 EE              shr         esi,cl
  0040460D: 52                 push        edx
  0040460E: 56                 push        esi
  0040460F: 68 CC 91 40 00     push        4091CCh
  00404614: BE E0 9F 42 00     mov         esi,429FE0h
  00404619: FF 75 0C           push        dword ptr [ebp+0Ch]
  0040461C: 56                 push        esi
  0040461D: E8 0C 14 00 00     call        00405A2E
  00404622: 56                 push        esi
  00404623: 8B F8              mov         edi,eax
  00404625: E8 F8 13 00 00     call        00405A22
  0040462A: 03 F8              add         edi,eax
  0040462C: 57                 push        edi
  0040462D: FF 15 00 72 40 00  call        dword ptr ds:[00407200h]
  00404633: 83 C4 18           add         esp,18h
  00404636: 56                 push        esi
  00404637: FF 75 08           push        dword ptr [ebp+8]
  0040463A: FF 35 38 E3 42 00  push        dword ptr ds:[0042E338h]
  00404640: E8 66 0C 00 00     call        004052AB
  00404645: 5F                 pop         edi
  00404646: 5E                 pop         esi
  00404647: 5B                 pop         ebx
  00404648: C9                 leave
  00404649: C2 0C 00           ret         0Ch
  0040464C: 8B 15 8C EB 42 00  mov         edx,dword ptr ds:[0042EB8Ch]
  00404652: 8B 0D 88 EB 42 00  mov         ecx,dword ptr ds:[0042EB88h]
  00404658: 33 C0              xor         eax,eax
  0040465A: 85 D2              test        edx,edx
  0040465C: 74 18              je          00404676
  0040465E: 56                 push        esi
  0040465F: F6 41 08 01        test        byte ptr [ecx+8],1
  00404663: 74 07              je          0040466C
  00404665: 8B 74 24 08        mov         esi,dword ptr [esp+8]
  00404669: 03 04 B1           add         eax,dword ptr [ecx+esi*4]
  0040466C: 81 C1 18 04 00 00  add         ecx,418h
  00404672: 4A                 dec         edx
  00404673: 75 EA              jne         0040465F
  00404675: 5E                 pop         esi
  00404676: C2 04 00           ret         4
  00404679: 55                 push        ebp
  0040467A: 8B EC              mov         ebp,esp
  0040467C: 83 EC 38           sub         esp,38h
  0040467F: 56                 push        esi
  00404680: 8B 35 44 72 40 00  mov         esi,dword ptr ds:[00407244h]
  00404686: 57                 push        edi
  00404687: 8B 7D 08           mov         edi,dword ptr [ebp+8]
  0040468A: 6A 00              push        0
  0040468C: 6A 09              push        9
  0040468E: 68 0A 11 00 00     push        110Ah
  00404693: 57                 push        edi
  00404694: FF D6              call        esi
  00404696: 83 7D 0C 00        cmp         dword ptr [ebp+0Ch],0
  0040469A: 74 3C              je          004046D8
  0040469C: FF 15 A0 71 40 00  call        dword ptr ds:[004071A0h]
  004046A2: 0F BF C8           movsx       ecx,ax
  004046A5: C1 E8 10           shr         eax,10h
  004046A8: 0F BF C0           movsx       eax,ax
  004046AB: 89 45 F4           mov         dword ptr [ebp-0Ch],eax
  004046AE: 8D 45 F0           lea         eax,[ebp-10h]
  004046B1: 50                 push        eax
  004046B2: 57                 push        edi
  004046B3: 89 4D F0           mov         dword ptr [ebp-10h],ecx
  004046B6: FF 15 70 71 40 00  call        dword ptr ds:[00407170h]
  004046BC: 8D 45 F0           lea         eax,[ebp-10h]
  004046BF: 50                 push        eax
  004046C0: 6A 00              push        0
  004046C2: 68 11 11 00 00     push        1111h
  004046C7: 57                 push        edi
  004046C8: FF D6              call        esi
  004046CA: F6 45 F8 66        test        byte ptr [ebp-8],66h
  004046CE: 75 05              jne         004046D5
  004046D0: 83 C8 FF           or          eax,0FFFFFFFFh
  004046D3: EB 1E              jmp         004046F3
  004046D5: 8B 45 FC           mov         eax,dword ptr [ebp-4]
  004046D8: 89 45 CC           mov         dword ptr [ebp-34h],eax
  004046DB: 8D 45 C8           lea         eax,[ebp-38h]
  004046DE: 50                 push        eax
  004046DF: 6A 00              push        0
  004046E1: 68 0C 11 00 00     push        110Ch
  004046E6: 57                 push        edi
  004046E7: C7 45 C8 04 00 00  mov         dword ptr [ebp-38h],4
            00
  004046EE: FF D6              call        esi
  004046F0: 8B 45 EC           mov         eax,dword ptr [ebp-14h]
  004046F3: 5F                 pop         edi
  004046F4: 5E                 pop         esi
  004046F5: C9                 leave
  004046F6: C2 08 00           ret         8
  004046F9: 55                 push        ebp
  004046FA: 8B EC              mov         ebp,esp
  004046FC: 83 EC 50           sub         esp,50h
  004046FF: 53                 push        ebx
  00404700: 56                 push        esi
  00404701: 8B 35 2C 72 40 00  mov         esi,dword ptr ds:[0040722Ch]
  00404707: 57                 push        edi
  00404708: 68 F9 03 00 00     push        3F9h
  0040470D: FF 75 08           push        dword ptr [ebp+8]
  00404710: FF D6              call        esi
  00404712: 68 08 04 00 00     push        408h
  00404717: 89 45 F8           mov         dword ptr [ebp-8],eax
  0040471A: FF 75 08           push        dword ptr [ebp+8]
  0040471D: FF D6              call        esi
  0040471F: 8B 1D 88 EB 42 00  mov         ebx,dword ptr ds:[0042EB88h]
  00404725: 8B 35 44 72 40 00  mov         esi,dword ptr ds:[00407244h]
  0040472B: 89 45 FC           mov         dword ptr [ebp-4],eax
  0040472E: A1 70 EB 42 00     mov         eax,dword ptr ds:[0042EB70h]
  00404733: 05 94 00 00 00     add         eax,94h
  00404738: 33 FF              xor         edi,edi
  0040473A: 81 7D 0C 10 01 00  cmp         dword ptr [ebp+0Ch],110h
            00
  00404741: 89 5D E4           mov         dword ptr [ebp-1Ch],ebx
  00404744: 89 45 F0           mov         dword ptr [ebp-10h],eax
  00404747: 0F 85 22 02 00 00  jne         0040496F
  0040474D: 8B 45 08           mov         eax,dword ptr [ebp+8]
  00404750: 6A 02              push        2
  00404752: A3 C0 EB 42 00     mov         dword ptr ds:[0042EBC0h],eax
  00404757: A1 8C EB 42 00     mov         eax,dword ptr ds:[0042EB8Ch]
  0040475C: 5B                 pop         ebx
  0040475D: 89 7D E8           mov         dword ptr [ebp-18h],edi
  00404760: C1 E0 02           shl         eax,2
  00404763: 50                 push        eax
  00404764: 6A 40              push        40h
  00404766: 89 5D F4           mov         dword ptr [ebp-0Ch],ebx
  00404769: FF 15 00 71 40 00  call        dword ptr ds:[00407100h]
  0040476F: 6A 6E              push        6Eh
  00404771: A3 D4 9F 42 00     mov         dword ptr ds:[00429FD4h],eax
  00404776: FF 35 60 EB 42 00  push        dword ptr ds:[0042EB60h]
  0040477C: FF 15 A4 71 40 00  call        dword ptr ds:[004071A4h]
  00404782: 83 0D C8 9F 42 00  or          dword ptr ds:[00429FC8h],0FFFFFFFFh
            FF
  00404789: 68 FA 4C 40 00     push        404CFAh
  0040478E: 6A FC              push        0FFFFFFFCh
  00404790: 89 45 EC           mov         dword ptr [ebp-14h],eax
  00404793: FF 75 FC           push        dword ptr [ebp-4]
  00404796: FF 15 30 72 40 00  call        dword ptr ds:[00407230h]
  0040479C: 57                 push        edi
  0040479D: 6A 06              push        6
  0040479F: 6A 21              push        21h
  004047A1: 6A 10              push        10h
  004047A3: 6A 10              push        10h
  004047A5: A3 D0 9F 42 00     mov         dword ptr ds:[00429FD0h],eax
  004047AA: FF 15 34 70 40 00  call        dword ptr ds:[00407034h]
  004047B0: 68 FF 00 FF 00     push        0FF00FFh
  004047B5: A3 BC 9F 42 00     mov         dword ptr ds:[00429FBCh],eax
  004047BA: FF 75 EC           push        dword ptr [ebp-14h]
  004047BD: 50                 push        eax
  004047BE: FF 15 28 70 40 00  call        dword ptr ds:[00407028h]
  004047C4: FF 35 BC 9F 42 00  push        dword ptr ds:[00429FBCh]
  004047CA: 53                 push        ebx
  004047CB: 68 09 11 00 00     push        1109h
  004047D0: FF 75 FC           push        dword ptr [ebp-4]
  004047D3: FF D6              call        esi
  004047D5: 57                 push        edi
  004047D6: 57                 push        edi
  004047D7: 68 1C 11 00 00     push        111Ch
  004047DC: FF 75 FC           push        dword ptr [ebp-4]
  004047DF: FF D6              call        esi
  004047E1: 83 F8 10           cmp         eax,10h
  004047E4: 7D 0D              jge         004047F3
  004047E6: 57                 push        edi
  004047E7: 6A 10              push        10h
  004047E9: 68 1B 11 00 00     push        111Bh
  004047EE: FF 75 FC           push        dword ptr [ebp-4]
  004047F1: FF D6              call        esi
  004047F3: FF 75 EC           push        dword ptr [ebp-14h]
  004047F6: FF 15 44 70 40 00  call        dword ptr ds:[00407044h]
  004047FC: 33 DB              xor         ebx,ebx
  004047FE: 8B 45 F0           mov         eax,dword ptr [ebp-10h]
  00404801: 8B 04 98           mov         eax,dword ptr [eax+ebx*4]
  00404804: 3B C7              cmp         eax,edi
  00404806: 74 27              je          0040482F
  00404808: 83 FB 20           cmp         ebx,20h
  0040480B: 74 03              je          00404810
  0040480D: 89 7D F4           mov         dword ptr [ebp-0Ch],edi
  00404810: 50                 push        eax
  00404811: 57                 push        edi
  00404812: E8 17 12 00 00     call        00405A2E
  00404817: 50                 push        eax
  00404818: 57                 push        edi
  00404819: 68 43 01 00 00     push        143h
  0040481E: FF 75 F8           push        dword ptr [ebp-8]
  00404821: FF D6              call        esi
  00404823: 53                 push        ebx
  00404824: 50                 push        eax
  00404825: 68 51 01 00 00     push        151h
  0040482A: FF 75 F8           push        dword ptr [ebp-8]
  0040482D: FF D6              call        esi
  0040482F: 43                 inc         ebx
  00404830: 83 FB 21           cmp         ebx,21h
  00404833: 7C C9              jl          004047FE
  00404835: 8B 7D 14           mov         edi,dword ptr [ebp+14h]
  00404838: 8B 5D F4           mov         ebx,dword ptr [ebp-0Ch]
  0040483B: FF 74 9F 30        push        dword ptr [edi+ebx*4+30h]
  0040483F: 6A 15              push        15h
  00404841: FF 75 08           push        dword ptr [ebp+8]
  00404844: E8 75 F5 FF FF     call        00403DBE
  00404849: FF 74 9F 34        push        dword ptr [edi+ebx*4+34h]
  0040484D: 6A 16              push        16h
  0040484F: FF 75 08           push        dword ptr [ebp+8]
  00404852: E8 67 F5 FF FF     call        00403DBE
  00404857: 33 FF              xor         edi,edi
  00404859: 33 DB              xor         ebx,ebx
  0040485B: 39 3D 8C EB 42 00  cmp         dword ptr ds:[0042EB8Ch],edi
  00404861: 0F 8E C4 00 00 00  jle         0040492B
  00404867: 8B 45 E4           mov         eax,dword ptr [ebp-1Ch]
  0040486A: 8D 50 08           lea         edx,[eax+8]
  0040486D: 89 55 EC           mov         dword ptr [ebp-14h],edx
  00404870: 8D 42 10           lea         eax,[edx+10h]
  00404873: 80 38 00           cmp         byte ptr [eax],0
  00404876: 0F 84 90 00 00 00  je          0040490C
  0040487C: 89 45 C8           mov         dword ptr [ebp-38h],eax
  0040487F: 8B 02              mov         eax,dword ptr [edx]
  00404881: 6A 20              push        20h
  00404883: 8B D0              mov         edx,eax
  00404885: 59                 pop         ecx
  00404886: 89 5D B0           mov         dword ptr [ebp-50h],ebx
  00404889: 23 D1              and         edx,ecx
  0040488B: C7 45 B4 02 00 FF  mov         dword ptr [ebp-4Ch],0FFFF0002h
            FF
  00404892: A8 02              test        al,2
  00404894: C7 45 B8 0D 00 00  mov         dword ptr [ebp-48h],0Dh
            00
  0040489B: 89 4D C4           mov         dword ptr [ebp-3Ch],ecx
  0040489E: 89 7D DC           mov         dword ptr [ebp-24h],edi
  004048A1: 89 55 C0           mov         dword ptr [ebp-40h],edx
  004048A4: 74 38              je          004048DE
  004048A6: 8D 45 B0           lea         eax,[ebp-50h]
  004048A9: C7 45 B8 4D 00 00  mov         dword ptr [ebp-48h],4Dh
            00
  004048B0: 50                 push        eax
  004048B1: 6A 00              push        0
  004048B3: 68 00 11 00 00     push        1100h
  004048B8: C7 45 D8 01 00 00  mov         dword ptr [ebp-28h],1
            00
  004048BF: FF 75 FC           push        dword ptr [ebp-4]
  004048C2: FF D6              call        esi
  004048C4: 8B 0D D4 9F 42 00  mov         ecx,dword ptr ds:[00429FD4h]
  004048CA: C7 45 E8 01 00 00  mov         dword ptr [ebp-18h],1
            00
  004048D1: 89 04 B9           mov         dword ptr [ecx+edi*4],eax
  004048D4: A1 D4 9F 42 00     mov         eax,dword ptr ds:[00429FD4h]
  004048D9: 8B 1C B8           mov         ebx,dword ptr [eax+edi*4]
  004048DC: EB 2E              jmp         0040490C
  004048DE: A8 04              test        al,4
  004048E0: 74 11              je          004048F3
  004048E2: 53                 push        ebx
  004048E3: 6A 03              push        3
  004048E5: 68 0A 11 00 00     push        110Ah
  004048EA: FF 75 FC           push        dword ptr [ebp-4]
  004048ED: FF D6              call        esi
  004048EF: 8B D8              mov         ebx,eax
  004048F1: EB 19              jmp         0040490C
  004048F3: 8D 45 B0           lea         eax,[ebp-50h]
  004048F6: 50                 push        eax
  004048F7: 6A 00              push        0
  004048F9: 68 00 11 00 00     push        1100h
  004048FE: FF 75 FC           push        dword ptr [ebp-4]
  00404901: FF D6              call        esi
  00404903: 8B 0D D4 9F 42 00  mov         ecx,dword ptr ds:[00429FD4h]
  00404909: 89 04 B9           mov         dword ptr [ecx+edi*4],eax
  0040490C: 8B 55 EC           mov         edx,dword ptr [ebp-14h]
  0040490F: 47                 inc         edi
  00404910: 81 C2 18 04 00 00  add         edx,418h
  00404916: 3B 3D 8C EB 42 00  cmp         edi,dword ptr ds:[0042EB8Ch]
  0040491C: 89 55 EC           mov         dword ptr [ebp-14h],edx
  0040491F: 0F 8C 4B FF FF FF  jl          00404870
  00404925: 83 7D E8 00        cmp         dword ptr [ebp-18h],0
  00404929: 75 19              jne         00404944
  0040492B: 6A F0              push        0FFFFFFF0h
  0040492D: FF 75 FC           push        dword ptr [ebp-4]
  00404930: FF 15 90 71 40 00  call        dword ptr ds:[00407190h]
  00404936: 24 FB              and         al,0FBh
  00404938: 50                 push        eax
  00404939: 6A F0              push        0FFFFFFF0h
  0040493B: FF 75 FC           push        dword ptr [ebp-4]
  0040493E: FF 15 30 72 40 00  call        dword ptr ds:[00407230h]
  00404944: 83 7D F4 00        cmp         dword ptr [ebp-0Ch],0
  00404948: 75 18              jne         00404962
  0040494A: 6A 05              push        5
  0040494C: FF 75 F8           push        dword ptr [ebp-8]
  0040494F: FF 15 60 72 40 00  call        dword ptr ds:[00407260h]
  00404955: FF 75 F8           push        dword ptr [ebp-8]
  00404958: E8 96 F4 FF FF     call        00403DF3
  0040495D: E9 83 03 00 00     jmp         00404CE5
  00404962: FF 75 FC           push        dword ptr [ebp-4]
  00404965: E8 89 F4 FF FF     call        00403DF3
  0040496A: 8B 5D E4           mov         ebx,dword ptr [ebp-1Ch]
  0040496D: 33 FF              xor         edi,edi
  0040496F: 81 7D 0C 05 04 00  cmp         dword ptr [ebp+0Ch],405h
            00
  00404976: 75 12              jne         0040498A
  00404978: 33 C9              xor         ecx,ecx
  0040497A: 89 7D 10           mov         dword ptr [ebp+10h],edi
  0040497D: 41                 inc         ecx
  0040497E: C7 45 0C 0F 04 00  mov         dword ptr [ebp+0Ch],40Fh
            00
  00404985: 89 4D 14           mov         dword ptr [ebp+14h],ecx
  00404988: EB 03              jmp         0040498D
  0040498A: 8B 4D 14           mov         ecx,dword ptr [ebp+14h]
  0040498D: 83 7D 0C 4E        cmp         dword ptr [ebp+0Ch],4Eh
  00404991: B8 13 04 00 00     mov         eax,413h
  00404996: 74 09              je          004049A1
  00404998: 39 45 0C           cmp         dword ptr [ebp+0Ch],eax
  0040499B: 0F 85 E7 00 00 00  jne         00404A88
  004049A1: 39 45 0C           cmp         dword ptr [ebp+0Ch],eax
  004049A4: 89 4D F4           mov         dword ptr [ebp-0Ch],ecx
  004049A7: 74 0D              je          004049B6
  004049A9: 81 79 04 08 04 00  cmp         dword ptr [ecx+4],408h
            00
  004049B0: 0F 85 D2 00 00 00  jne         00404A88
  004049B6: F6 05 79 EB 42 00  test        byte ptr ds:[0042EB79h],2
            02
  004049BD: 75 76              jne         00404A35
  004049BF: 39 45 0C           cmp         dword ptr [ebp+0Ch],eax
  004049C2: 74 09              je          004049CD
  004049C4: 8B 4D 14           mov         ecx,dword ptr [ebp+14h]
  004049C7: 83 79 08 FE        cmp         dword ptr [ecx+8],0FFFFFFFEh
  004049CB: 75 68              jne         00404A35
  004049CD: 33 C9              xor         ecx,ecx
  004049CF: 39 45 0C           cmp         dword ptr [ebp+0Ch],eax
  004049D2: 0F 95 C1           setne       cl
  004049D5: 51                 push        ecx
  004049D6: FF 75 FC           push        dword ptr [ebp-4]
  004049D9: E8 9B FC FF FF     call        00404679
  004049DE: 3B C7              cmp         eax,edi
  004049E0: 7C 53              jl          00404A35
  004049E2: 8B C8              mov         ecx,eax
  004049E4: 69 C9 18 04 00 00  imul        ecx,ecx,418h
  004049EA: 8D 54 19 08        lea         edx,[ecx+ebx+8]
  004049EE: 8B 0A              mov         ecx,dword ptr [edx]
  004049F0: F6 C1 10           test        cl,10h
  004049F3: 75 40              jne         00404A35
  004049F5: F6 C1 40           test        cl,40h
  004049F8: 74 14              je          00404A0E
  004049FA: 81 F1 80 00 00 00  xor         ecx,80h
  00404A00: 84 C9              test        cl,cl
  00404A02: 79 05              jns         00404A09
  00404A04: 83 C9 01           or          ecx,1
  00404A07: EB 08              jmp         00404A11
  00404A09: 83 E1 FE           and         ecx,0FFFFFFFEh
  00404A0C: EB 03              jmp         00404A11
  00404A0E: 83 F1 01           xor         ecx,1
  00404A11: 50                 push        eax
  00404A12: 89 0A              mov         dword ptr [edx],ecx
  00404A14: E8 64 C7 FF FF     call        0040117D
  00404A19: A1 78 EB 42 00     mov         eax,dword ptr ds:[0042EB78h]
  00404A1E: 33 C9              xor         ecx,ecx
  00404A20: F7 D0              not         eax
  00404A22: 41                 inc         ecx
  00404A23: C7 45 0C 0F 04 00  mov         dword ptr [ebp+0Ch],40Fh
            00
  00404A2A: C1 E8 08           shr         eax,8
  00404A2D: 23 C1              and         eax,ecx
  00404A2F: 89 4D 10           mov         dword ptr [ebp+10h],ecx
  00404A32: 89 45 14           mov         dword ptr [ebp+14h],eax
  00404A35: 39 7D F4           cmp         dword ptr [ebp-0Ch],edi
  00404A38: 74 4E              je          00404A88
  00404A3A: 8B 45 F4           mov         eax,dword ptr [ebp-0Ch]
  00404A3D: 81 78 08 6E FE FF  cmp         dword ptr [eax+8],0FFFFFE6Eh
            FF
  00404A44: 75 0E              jne         00404A54
  00404A46: FF 70 5C           push        dword ptr [eax+5Ch]
  00404A49: 57                 push        edi
  00404A4A: 68 19 04 00 00     push        419h
  00404A4F: FF 75 FC           push        dword ptr [ebp-4]
  00404A52: FF D6              call        esi
  00404A54: 8B 45 F4           mov         eax,dword ptr [ebp-0Ch]
  00404A57: 81 78 08 6A FE FF  cmp         dword ptr [eax+8],0FFFFFE6Ah
            FF
  00404A5E: 75 28              jne         00404A88
  00404A60: 83 78 0C 02        cmp         dword ptr [eax+0Ch],2
  00404A64: 75 12              jne         00404A78
  00404A66: 8B 40 5C           mov         eax,dword ptr [eax+5Ch]
  00404A69: 69 C0 18 04 00 00  imul        eax,eax,418h
  00404A6F: 8D 44 18 08        lea         eax,[eax+ebx+8]
  00404A73: 83 08 20           or          dword ptr [eax],20h
  00404A76: EB 10              jmp         00404A88
  00404A78: 8B 40 5C           mov         eax,dword ptr [eax+5Ch]
  00404A7B: 69 C0 18 04 00 00  imul        eax,eax,418h
  00404A81: 8D 5C 18 08        lea         ebx,[eax+ebx+8]
  00404A85: 83 23 DF           and         dword ptr [ebx],0FFFFFFDFh
  00404A88: 81 7D 0C 11 01 00  cmp         dword ptr [ebp+0Ch],111h
            00
  00404A8F: 75 72              jne         00404B03
  00404A91: 66 81 7D 10 F9 03  cmp         word ptr [ebp+10h],3F9h
  00404A97: 0F 85 48 02 00 00  jne         00404CE5
  00404A9D: 8B 45 10           mov         eax,dword ptr [ebp+10h]
  00404AA0: C1 E8 10           shr         eax,10h
  00404AA3: 66 3D 01 00        cmp         ax,1
  00404AA7: 0F 85 38 02 00 00  jne         00404CE5
  00404AAD: 57                 push        edi
  00404AAE: 57                 push        edi
  00404AAF: 68 47 01 00 00     push        147h
  00404AB4: FF 75 F8           push        dword ptr [ebp-8]
  00404AB7: FF D6              call        esi
  00404AB9: 83 F8 FF           cmp         eax,0FFFFFFFFh
  00404ABC: 0F 84 23 02 00 00  je          00404CE5
  00404AC2: 57                 push        edi
  00404AC3: 50                 push        eax
  00404AC4: 68 50 01 00 00     push        150h
  00404AC9: FF 75 F8           push        dword ptr [ebp-8]
  00404ACC: FF D6              call        esi
  00404ACE: 8B D8              mov         ebx,eax
  00404AD0: 83 FB FF           cmp         ebx,0FFFFFFFFh
  00404AD3: 74 08              je          00404ADD
  00404AD5: 8B 45 F0           mov         eax,dword ptr [ebp-10h]
  00404AD8: 39 3C 98           cmp         dword ptr [eax+ebx*4],edi
  00404ADB: 75 03              jne         00404AE0
  00404ADD: 6A 20              push        20h
  00404ADF: 5B                 pop         ebx
  00404AE0: 53                 push        ebx
  00404AE1: E8 B3 C7 FF FF     call        00401299
  00404AE6: 53                 push        ebx
  00404AE7: 57                 push        edi
  00404AE8: 68 20 04 00 00     push        420h
  00404AED: FF 75 08           push        dword ptr [ebp+8]
  00404AF0: FF D6              call        esi
  00404AF2: C7 45 10 01 00 00  mov         dword ptr [ebp+10h],1
            00
  00404AF9: 89 7D 14           mov         dword ptr [ebp+14h],edi
  00404AFC: C7 45 0C 0F 04 00  mov         dword ptr [ebp+0Ch],40Fh
            00
  00404B03: 81 7D 0C 00 02 00  cmp         dword ptr [ebp+0Ch],200h
            00
  00404B0A: 75 0C              jne         00404B18
  00404B0C: 57                 push        edi
  00404B0D: 57                 push        edi
  00404B0E: 68 00 02 00 00     push        200h
  00404B13: FF 75 FC           push        dword ptr [ebp-4]
  00404B16: FF D6              call        esi
  00404B18: 81 7D 0C 0B 04 00  cmp         dword ptr [ebp+0Ch],40Bh
            00
  00404B1F: 75 32              jne         00404B53
  00404B21: A1 BC 9F 42 00     mov         eax,dword ptr ds:[00429FBCh]
  00404B26: 3B C7              cmp         eax,edi
  00404B28: 74 07              je          00404B31
  00404B2A: 50                 push        eax
  00404B2B: FF 15 2C 70 40 00  call        dword ptr ds:[0040702Ch]
  00404B31: A1 D4 9F 42 00     mov         eax,dword ptr ds:[00429FD4h]
  00404B36: 3B C7              cmp         eax,edi
  00404B38: 74 07              je          00404B41
  00404B3A: 50                 push        eax
  00404B3B: FF 15 FC 70 40 00  call        dword ptr ds:[004070FCh]
  00404B41: 89 3D BC 9F 42 00  mov         dword ptr ds:[00429FBCh],edi
  00404B47: 89 3D D4 9F 42 00  mov         dword ptr ds:[00429FD4h],edi
  00404B4D: 89 3D C0 EB 42 00  mov         dword ptr ds:[0042EBC0h],edi
  00404B53: 81 7D 0C 0F 04 00  cmp         dword ptr [ebp+0Ch],40Fh
            00
  00404B5A: 0F 85 47 01 00 00  jne         00404CA7
  00404B60: 57                 push        edi
  00404B61: 57                 push        edi
  00404B62: E8 88 C6 FF FF     call        004011EF
  00404B67: 39 7D 10           cmp         dword ptr [ebp+10h],edi
  00404B6A: 74 07              je          00404B73
  00404B6C: 6A 08              push        8
  00404B6E: E8 98 C8 FF FF     call        0040140B
  00404B73: 39 7D 14           cmp         dword ptr [ebp+14h],edi
  00404B76: 74 3F              je          00404BB7
  00404B78: FF 35 D4 9F 42 00  push        dword ptr ds:[00429FD4h]
  00404B7E: E8 5F C7 FF FF     call        004012E2
  00404B83: 8B D8              mov         ebx,eax
  00404B85: 53                 push        ebx
  00404B86: E8 0E C7 FF FF     call        00401299
  00404B8B: 33 C0              xor         eax,eax
  00404B8D: 33 C9              xor         ecx,ecx
  00404B8F: 3B DF              cmp         ebx,edi
  00404B91: 7E 0E              jle         00404BA1
  00404B93: 8B 55 F0           mov         edx,dword ptr [ebp-10h]
  00404B96: 39 3C 82           cmp         dword ptr [edx+eax*4],edi
  00404B99: 74 01              je          00404B9C
  00404B9B: 41                 inc         ecx
  00404B9C: 40                 inc         eax
  00404B9D: 3B C3              cmp         eax,ebx
  00404B9F: 7C F2              jl          00404B93
  00404BA1: 57                 push        edi
  00404BA2: 51                 push        ecx
  00404BA3: 68 4E 01 00 00     push        14Eh
  00404BA8: FF 75 F8           push        dword ptr [ebp-8]
  00404BAB: FF D6              call        esi
  00404BAD: 89 5D 14           mov         dword ptr [ebp+14h],ebx
  00404BB0: C7 45 0C 20 04 00  mov         dword ptr [ebp+0Ch],420h
            00
  00404BB7: 57                 push        edi
  00404BB8: 57                 push        edi
  00404BB9: E8 31 C6 FF FF     call        004011EF
  00404BBE: A1 D4 9F 42 00     mov         eax,dword ptr ds:[00429FD4h]
  00404BC3: 39 3D 8C EB 42 00  cmp         dword ptr ds:[0042EB8Ch],edi
  00404BC9: 89 45 E4           mov         dword ptr [ebp-1Ch],eax
  00404BCC: A1 88 EB 42 00     mov         eax,dword ptr ds:[0042EB88h]
  00404BD1: C7 45 C8 30 F0 00  mov         dword ptr [ebp-38h],0F030h
            00
  00404BD8: 89 7D F4           mov         dword ptr [ebp-0Ch],edi
  00404BDB: 0F 8E 9C 00 00 00  jle         00404C7D
  00404BE1: 8D 58 08           lea         ebx,[eax+8]
  00404BE4: 8B 45 E4           mov         eax,dword ptr [ebp-1Ch]
  00404BE7: 8B 4D F4           mov         ecx,dword ptr [ebp-0Ch]
  00404BEA: 8B 04 88           mov         eax,dword ptr [eax+ecx*4]
  00404BED: 3B C7              cmp         eax,edi
  00404BEF: 74 74              je          00404C65
  00404BF1: 8B 0B              mov         ecx,dword ptr [ebx]
  00404BF3: 89 45 C0           mov         dword ptr [ebp-40h],eax
  00404BF6: F6 C5 01           test        ch,1
  00404BF9: C7 45 BC 08 00 00  mov         dword ptr [ebp-44h],8
            00
  00404C00: 74 11              je          00404C13
  00404C02: 8D 43 10           lea         eax,[ebx+10h]
  00404C05: C7 45 BC 09 00 00  mov         dword ptr [ebp-44h],9
            00
  00404C0C: 89 45 CC           mov         dword ptr [ebp-34h],eax
  00404C0F: 80 63 01 FE        and         byte ptr [ebx+1],0FEh
  00404C13: F6 C1 40           test        cl,40h
  00404C16: 74 05              je          00404C1D
  00404C18: 6A 03              push        3
  00404C1A: 58                 pop         eax
  00404C1B: EB 0E              jmp         00404C2B
  00404C1D: 8B C1              mov         eax,ecx
  00404C1F: 83 E0 01           and         eax,1
  00404C22: 40                 inc         eax
  00404C23: F6 C1 10           test        cl,10h
  00404C26: 74 03              je          00404C2B
  00404C28: 83 C0 03           add         eax,3
  00404C2B: 8B D1              mov         edx,ecx
  00404C2D: FF 75 C0           push        dword ptr [ebp-40h]
  00404C30: C1 E0 0B           shl         eax,0Bh
  00404C33: 83 E2 08           and         edx,8
  00404C36: 0B C2              or          eax,edx
  00404C38: 8B D1              mov         edx,ecx
  00404C3A: C1 F9 05           sar         ecx,5
  00404C3D: 03 C0              add         eax,eax
  00404C3F: 83 E2 20           and         edx,20h
  00404C42: 83 E1 01           and         ecx,1
  00404C45: 0B C2              or          eax,edx
  00404C47: 41                 inc         ecx
  00404C48: 89 45 C4           mov         dword ptr [ebp-3Ch],eax
  00404C4B: 51                 push        ecx
  00404C4C: 68 02 11 00 00     push        1102h
  00404C51: FF 75 FC           push        dword ptr [ebp-4]
  00404C54: FF D6              call        esi
  00404C56: 8D 45 BC           lea         eax,[ebp-44h]
  00404C59: 50                 push        eax
  00404C5A: 57                 push        edi
  00404C5B: 68 0D 11 00 00     push        110Dh
  00404C60: FF 75 FC           push        dword ptr [ebp-4]
  00404C63: FF D6              call        esi
  00404C65: FF 45 F4           inc         dword ptr [ebp-0Ch]
  00404C68: 81 C3 18 04 00 00  add         ebx,418h
  00404C6E: 8B 45 F4           mov         eax,dword ptr [ebp-0Ch]
  00404C71: 3B 05 8C EB 42 00  cmp         eax,dword ptr ds:[0042EB8Ch]
  00404C77: 0F 8C 67 FF FF FF  jl          00404BE4
  00404C7D: 6A 01              push        1
  00404C7F: 57                 push        edi
  00404C80: FF 75 FC           push        dword ptr [ebp-4]
  00404C83: FF 15 40 72 40 00  call        dword ptr ds:[00407240h]
  00404C89: A1 3C E3 42 00     mov         eax,dword ptr ds:[0042E33Ch]
  00404C8E: 39 78 10           cmp         dword ptr [eax+10h],edi
  00404C91: 74 14              je          00404CA7
  00404C93: 6A 05              push        5
  00404C95: E8 B2 F9 FF FF     call        0040464C
  00404C9A: 50                 push        eax
  00404C9B: 6A FB              push        0FFFFFFFBh
  00404C9D: 68 FF 03 00 00     push        3FFh
  00404CA2: E8 F0 F8 FF FF     call        00404597
  00404CA7: 81 7D 0C 20 04 00  cmp         dword ptr [ebp+0Ch],420h
            00
  00404CAE: 75 35              jne         00404CE5
  00404CB0: F6 05 79 EB 42 00  test        byte ptr ds:[0042EB79h],1
            01
  00404CB7: 74 2C              je          00404CE5
  00404CB9: 33 C0              xor         eax,eax
  00404CBB: 83 7D 14 20        cmp         dword ptr [ebp+14h],20h
  00404CBF: 8B 35 60 72 40 00  mov         esi,dword ptr ds:[00407260h]
  00404CC5: 0F 94 C0           sete        al
  00404CC8: C1 E0 03           shl         eax,3
  00404CCB: 8B F8              mov         edi,eax
  00404CCD: 57                 push        edi
  00404CCE: FF 75 FC           push        dword ptr [ebp-4]
  00404CD1: FF D6              call        esi
  00404CD3: 57                 push        edi
  00404CD4: 68 FE 03 00 00     push        3FEh
  00404CD9: FF 75 08           push        dword ptr [ebp+8]
  00404CDC: FF 15 2C 72 40 00  call        dword ptr ds:[0040722Ch]
  00404CE2: 50                 push        eax
  00404CE3: FF D6              call        esi
  00404CE5: FF 75 14           push        dword ptr [ebp+14h]
  00404CE8: FF 75 10           push        dword ptr [ebp+10h]
  00404CEB: FF 75 0C           push        dword ptr [ebp+0Ch]
  00404CEE: E8 32 F1 FF FF     call        00403E25
  00404CF3: 5F                 pop         edi
  00404CF4: 5E                 pop         esi
  00404CF5: 5B                 pop         ebx
  00404CF6: C9                 leave
  00404CF7: C2 10 00           ret         10h
  00404CFA: 55                 push        ebp
  00404CFB: 8B EC              mov         ebp,esp
  00404CFD: 81 7D 0C 02 01 00  cmp         dword ptr [ebp+0Ch],102h
            00
  00404D04: 53                 push        ebx
  00404D05: 56                 push        esi
  00404D06: 75 17              jne         00404D1F
  00404D08: 83 7D 10 20        cmp         dword ptr [ebp+10h],20h
  00404D0C: 75 7D              jne         00404D8B
  00404D0E: 68 13 04 00 00     push        413h
  00404D13: E8 F2 F0 FF FF     call        00403E0A
  00404D18: 33 C0              xor         eax,eax
  00404D1A: E9 85 00 00 00     jmp         00404DA4
  00404D1F: 81 7D 0C 00 02 00  cmp         dword ptr [ebp+0Ch],200h
            00
  00404D26: BE 19 04 00 00     mov         esi,419h
  00404D2B: 75 1E              jne         00404D4B
  00404D2D: FF 75 08           push        dword ptr [ebp+8]
  00404D30: FF 15 AC 71 40 00  call        dword ptr ds:[004071ACh]
  00404D36: 85 C0              test        eax,eax
  00404D38: 74 51              je          00404D8B
  00404D3A: 6A 01              push        1
  00404D3C: FF 75 08           push        dword ptr [ebp+8]
  00404D3F: E8 35 F9 FF FF     call        00404679
  00404D44: 8B D8              mov         ebx,eax
  00404D46: 89 75 0C           mov         dword ptr [ebp+0Ch],esi
  00404D49: EB 03              jmp         00404D4E
  00404D4B: 8B 5D 14           mov         ebx,dword ptr [ebp+14h]
  00404D4E: 39 75 0C           cmp         dword ptr [ebp+0Ch],esi
  00404D51: 75 3B              jne         00404D8E
  00404D53: 39 1D C8 9F 42 00  cmp         dword ptr ds:[00429FC8h],ebx
  00404D59: 74 33              je          00404D8E
  00404D5B: 57                 push        edi
  00404D5C: BE 00 F0 42 00     mov         esi,42F000h
  00404D61: BF E0 9F 42 00     mov         edi,429FE0h
  00404D66: 56                 push        esi
  00404D67: 57                 push        edi
  00404D68: 89 1D C8 9F 42 00  mov         dword ptr ds:[00429FC8h],ebx
  00404D6E: E8 99 0C 00 00     call        00405A0C
  00404D73: 53                 push        ebx
  00404D74: 56                 push        esi
  00404D75: E8 F0 0B 00 00     call        0040596A
  00404D7A: 6A 06              push        6
  00404D7C: E8 8A C6 FF FF     call        0040140B
  00404D81: 57                 push        edi
  00404D82: 56                 push        esi
  00404D83: E8 84 0C 00 00     call        00405A0C
  00404D88: 5F                 pop         edi
  00404D89: EB 03              jmp         00404D8E
  00404D8B: 8B 5D 14           mov         ebx,dword ptr [ebp+14h]
  00404D8E: 53                 push        ebx
  00404D8F: FF 75 10           push        dword ptr [ebp+10h]
  00404D92: FF 75 0C           push        dword ptr [ebp+0Ch]
  00404D95: FF 75 08           push        dword ptr [ebp+8]
  00404D98: FF 35 D0 9F 42 00  push        dword ptr ds:[00429FD0h]
  00404D9E: FF 15 A8 71 40 00  call        dword ptr ds:[004071A8h]
  00404DA4: 5E                 pop         esi
  00404DA5: 5B                 pop         ebx
  00404DA6: 5D                 pop         ebp
  00404DA7: C2 10 00           ret         10h
  00404DAA: 55                 push        ebp
  00404DAB: 8B EC              mov         ebp,esp
  00404DAD: 83 EC 30           sub         esp,30h
  00404DB0: A1 44 E3 42 00     mov         eax,dword ptr ds:[0042E344h]
  00404DB5: 53                 push        ebx
  00404DB6: 33 DB              xor         ebx,ebx
  00404DB8: 56                 push        esi
  00404DB9: 3B C3              cmp         eax,ebx
  00404DBB: 57                 push        edi
  00404DBC: 89 45 FC           mov         dword ptr [ebp-4],eax
  00404DBF: 0F 84 B0 00 00 00  je          00404E75
  00404DC5: A1 14 EC 42 00     mov         eax,dword ptr ds:[0042EC14h]
  00404DCA: BE B8 97 42 00     mov         esi,4297B8h
  00404DCF: 8B F8              mov         edi,eax
  00404DD1: 89 45 F8           mov         dword ptr [ebp-8],eax
  00404DD4: 83 E7 01           and         edi,1
  00404DD7: 75 09              jne         00404DE2
  00404DD9: FF 75 08           push        dword ptr [ebp+8]
  00404DDC: 56                 push        esi
  00404DDD: E8 4C 0C 00 00     call        00405A2E
  00404DE2: 56                 push        esi
  00404DE3: E8 3A 0C 00 00     call        00405A22
  00404DE8: 39 5D 0C           cmp         dword ptr [ebp+0Ch],ebx
  00404DEB: 89 45 08           mov         dword ptr [ebp+8],eax
  00404DEE: 74 1B              je          00404E0B
  00404DF0: FF 75 0C           push        dword ptr [ebp+0Ch]
  00404DF3: E8 2A 0C 00 00     call        00405A22
  00404DF8: 03 45 08           add         eax,dword ptr [ebp+8]
  00404DFB: 3D 00 08 00 00     cmp         eax,800h
  00404E00: 73 73              jae         00404E75
  00404E02: FF 75 0C           push        dword ptr [ebp+0Ch]
  00404E05: 56                 push        esi
  00404E06: E8 1D 0C 00 00     call        00405A28
  00404E0B: F6 45 F8 04        test        byte ptr [ebp-8],4
  00404E0F: 75 0D              jne         00404E1E
  00404E11: 56                 push        esi
  00404E12: FF 35 28 E3 42 00  push        dword ptr ds:[0042E328h]
  00404E18: FF 15 F4 71 40 00  call        dword ptr ds:[004071F4h]
  00404E1E: F6 45 F8 02        test        byte ptr [ebp-8],2
  00404E22: 75 44              jne         00404E68
  00404E24: 53                 push        ebx
  00404E25: 53                 push        ebx
  00404E26: 68 04 10 00 00     push        1004h
  00404E2B: 89 75 E4           mov         dword ptr [ebp-1Ch],esi
  00404E2E: FF 75 FC           push        dword ptr [ebp-4]
  00404E31: 8B 35 44 72 40 00  mov         esi,dword ptr ds:[00407244h]
  00404E37: C7 45 D0 01 00 00  mov         dword ptr [ebp-30h],1
            00
  00404E3E: FF D6              call        esi
  00404E40: 2B C7              sub         eax,edi
  00404E42: 89 5D D8           mov         dword ptr [ebp-28h],ebx
  00404E45: 89 45 D4           mov         dword ptr [ebp-2Ch],eax
  00404E48: 8D 45 D0           lea         eax,[ebp-30h]
  00404E4B: 50                 push        eax
  00404E4C: B8 07 10 00 00     mov         eax,1007h
  00404E51: 2B C7              sub         eax,edi
  00404E53: 53                 push        ebx
  00404E54: 50                 push        eax
  00404E55: FF 75 FC           push        dword ptr [ebp-4]
  00404E58: FF D6              call        esi
  00404E5A: 53                 push        ebx
  00404E5B: FF 75 D4           push        dword ptr [ebp-2Ch]
  00404E5E: 68 13 10 00 00     push        1013h
  00404E63: FF 75 FC           push        dword ptr [ebp-4]
  00404E66: FF D6              call        esi
  00404E68: 3B FB              cmp         edi,ebx
  00404E6A: 74 09              je          00404E75
  00404E6C: 8B 45 08           mov         eax,dword ptr [ebp+8]
  00404E6F: 88 98 B8 97 42 00  mov         byte ptr [eax+004297B8h],bl
  00404E75: 5F                 pop         edi
  00404E76: 5E                 pop         esi
  00404E77: 5B                 pop         ebx
  00404E78: C9                 leave
  00404E79: C2 08 00           ret         8
  00404E7C: 56                 push        esi
  00404E7D: 8B 35 88 EB 42 00  mov         esi,dword ptr ds:[0042EB88h]
  00404E83: 57                 push        edi
  00404E84: 8B 3D 8C EB 42 00  mov         edi,dword ptr ds:[0042EB8Ch]
  00404E8A: 6A 00              push        0
  00404E8C: FF 15 7C 72 40 00  call        dword ptr ds:[0040727Ch]
  00404E92: 09 05 18 EC 42 00  or          dword ptr ds:[0042EC18h],eax
  00404E98: 6A 00              push        0
  00404E9A: E8 6B EF FF FF     call        00403E0A
  00404E9F: 85 FF              test        edi,edi
  00404EA1: 74 2B              je          00404ECE
  00404EA3: 83 C6 0C           add         esi,0Ch
  00404EA6: 4F                 dec         edi
  00404EA7: F6 46 FC 01        test        byte ptr [esi-4],1
  00404EAB: 74 0F              je          00404EBC
  00404EAD: FF 74 24 0C        push        dword ptr [esp+0Ch]
  00404EB1: FF 36              push        dword ptr [esi]
  00404EB3: E8 D1 C4 FF FF     call        00401389
  00404EB8: 85 C0              test        eax,eax
  00404EBA: 75 0C              jne         00404EC8
  00404EBC: 81 C6 18 04 00 00  add         esi,418h
  00404EC2: 85 FF              test        edi,edi
  00404EC4: 75 E0              jne         00404EA6
  00404EC6: EB 06              jmp         00404ECE
  00404EC8: FF 05 EC EB 42 00  inc         dword ptr ds:[0042EBECh]
  00404ECE: 68 04 04 00 00     push        404h
  00404ED3: E8 32 EF FF FF     call        00403E0A
  00404ED8: FF 15 80 72 40 00  call        dword ptr ds:[00407280h]
  00404EDE: A1 EC EB 42 00     mov         eax,dword ptr ds:[0042EBECh]
  00404EE3: 5F                 pop         edi
  00404EE4: 5E                 pop         esi
  00404EE5: C2 04 00           ret         4
  00404EE8: 55                 push        ebp
  00404EE9: 8B EC              mov         ebp,esp
  00404EEB: 83 EC 40           sub         esp,40h
  00404EEE: 53                 push        ebx
  00404EEF: 56                 push        esi
  00404EF0: 57                 push        edi
  00404EF1: 8B 3D 44 E3 42 00  mov         edi,dword ptr ds:[0042E344h]
  00404EF7: 33 DB              xor         ebx,ebx
  00404EF9: 81 7D 0C 10 01 00  cmp         dword ptr [ebp+0Ch],110h
            00
  00404F00: 89 7D FC           mov         dword ptr [ebp-4],edi
  00404F03: 0F 85 8B 01 00 00  jne         00405094
  00404F09: 83 4D D0 FF        or          dword ptr [ebp-30h],0FFFFFFFFh
  00404F0D: 83 4D DC FF        or          dword ptr [ebp-24h],0FFFFFFFFh
  00404F11: 33 C0              xor         eax,eax
  00404F13: 8D 7D E0           lea         edi,[ebp-20h]
  00404F16: C7 45 C8 02 00 00  mov         dword ptr [ebp-38h],2
            00
  00404F1D: 89 5D CC           mov         dword ptr [ebp-34h],ebx
  00404F20: 89 5D D4           mov         dword ptr [ebp-2Ch],ebx
  00404F23: 89 5D D8           mov         dword ptr [ebp-28h],ebx
  00404F26: AB                 stos        dword ptr es:[edi]
  00404F27: AB                 stos        dword ptr es:[edi]
  00404F28: A1 70 EB 42 00     mov         eax,dword ptr ds:[0042EB70h]
  00404F2D: 8B 3D 2C 72 40 00  mov         edi,dword ptr ds:[0040722Ch]
  00404F33: 68 03 04 00 00     push        403h
  00404F38: 8B 48 5C           mov         ecx,dword ptr [eax+5Ch]
  00404F3B: 8B 40 60           mov         eax,dword ptr [eax+60h]
  00404F3E: FF 75 08           push        dword ptr [ebp+8]
  00404F41: 89 4D 0C           mov         dword ptr [ebp+0Ch],ecx
  00404F44: 89 45 10           mov         dword ptr [ebp+10h],eax
  00404F47: FF D7              call        edi
  00404F49: 68 EE 03 00 00     push        3EEh
  00404F4E: A3 30 E3 42 00     mov         dword ptr ds:[0042E330h],eax
  00404F53: FF 75 08           push        dword ptr [ebp+8]
  00404F56: FF D7              call        edi
  00404F58: 68 F8 03 00 00     push        3F8h
  00404F5D: A3 28 E3 42 00     mov         dword ptr ds:[0042E328h],eax
  00404F62: FF 75 08           push        dword ptr [ebp+8]
  00404F65: FF D7              call        edi
  00404F67: FF 35 30 E3 42 00  push        dword ptr ds:[0042E330h]
  00404F6D: A3 44 E3 42 00     mov         dword ptr ds:[0042E344h],eax
  00404F72: 89 45 FC           mov         dword ptr [ebp-4],eax
  00404F75: E8 79 EE FF FF     call        00403DF3
  00404F7A: 6A 04              push        4
  00404F7C: E8 CB F6 FF FF     call        0040464C
  00404F81: A3 34 E3 42 00     mov         dword ptr ds:[0042E334h],eax
  00404F86: 8D 45 E8           lea         eax,[ebp-18h]
  00404F89: 50                 push        eax
  00404F8A: 89 1D 4C E3 42 00  mov         dword ptr ds:[0042E34Ch],ebx
  00404F90: FF 75 FC           push        dword ptr [ebp-4]
  00404F93: FF 15 50 72 40 00  call        dword ptr ds:[00407250h]
  00404F99: 6A 15              push        15h
  00404F9B: FF 15 CC 71 40 00  call        dword ptr ds:[004071CCh]
  00404FA1: 8B 4D F0           mov         ecx,dword ptr [ebp-10h]
  00404FA4: 8B 35 44 72 40 00  mov         esi,dword ptr ds:[00407244h]
  00404FAA: 2B C8              sub         ecx,eax
  00404FAC: 8D 45 C8           lea         eax,[ebp-38h]
  00404FAF: 50                 push        eax
  00404FB0: 53                 push        ebx
  00404FB1: 68 1B 10 00 00     push        101Bh
  00404FB6: 89 4D D0           mov         dword ptr [ebp-30h],ecx
  00404FB9: FF 75 FC           push        dword ptr [ebp-4]
  00404FBC: FF D6              call        esi
  00404FBE: B8 00 40 00 00     mov         eax,4000h
  00404FC3: 50                 push        eax
  00404FC4: 50                 push        eax
  00404FC5: 68 36 10 00 00     push        1036h
  00404FCA: FF 75 FC           push        dword ptr [ebp-4]
  00404FCD: FF D6              call        esi
  00404FCF: 39 5D 0C           cmp         dword ptr [ebp+0Ch],ebx
  00404FD2: 7C 1C              jl          00404FF0
  00404FD4: FF 75 0C           push        dword ptr [ebp+0Ch]
  00404FD7: 53                 push        ebx
  00404FD8: 68 01 10 00 00     push        1001h
  00404FDD: FF 75 FC           push        dword ptr [ebp-4]
  00404FE0: FF D6              call        esi
  00404FE2: FF 75 0C           push        dword ptr [ebp+0Ch]
  00404FE5: 53                 push        ebx
  00404FE6: 68 26 10 00 00     push        1026h
  00404FEB: FF 75 FC           push        dword ptr [ebp-4]
  00404FEE: FF D6              call        esi
  00404FF0: 39 5D 10           cmp         dword ptr [ebp+10h],ebx
  00404FF3: 7C 0E              jl          00405003
  00404FF5: FF 75 10           push        dword ptr [ebp+10h]
  00404FF8: 53                 push        ebx
  00404FF9: 68 24 10 00 00     push        1024h
  00404FFE: FF 75 FC           push        dword ptr [ebp-4]
  00405001: FF D6              call        esi
  00405003: 8B 45 14           mov         eax,dword ptr [ebp+14h]
  00405006: FF 70 30           push        dword ptr [eax+30h]
  00405009: 6A 1B              push        1Bh
  0040500B: FF 75 08           push        dword ptr [ebp+8]
  0040500E: E8 AB ED FF FF     call        00403DBE
  00405013: F6 05 78 EB 42 00  test        byte ptr ds:[0042EB78h],3
            03
  0040501A: 74 34              je          00405050
  0040501C: 53                 push        ebx
  0040501D: FF 35 30 E3 42 00  push        dword ptr ds:[0042E330h]
  00405023: FF 15 60 72 40 00  call        dword ptr ds:[00407260h]
  00405029: F6 05 78 EB 42 00  test        byte ptr ds:[0042EB78h],2
            02
  00405030: 75 0D              jne         0040503F
  00405032: 6A 08              push        8
  00405034: FF 75 FC           push        dword ptr [ebp-4]
  00405037: FF 15 60 72 40 00  call        dword ptr ds:[00407260h]
  0040503D: EB 06              jmp         00405045
  0040503F: 89 1D 30 E3 42 00  mov         dword ptr ds:[0042E330h],ebx
  00405045: FF 35 28 E3 42 00  push        dword ptr ds:[0042E328h]
  0040504B: E8 A3 ED FF FF     call        00403DF3
  00405050: 68 EC 03 00 00     push        3ECh
  00405055: FF 75 08           push        dword ptr [ebp+8]
  00405058: FF D7              call        edi
  0040505A: 68 00 00 30 75     push        75300000h
  0040505F: 8B F8              mov         edi,eax
  00405061: 53                 push        ebx
  00405062: 68 01 04 00 00     push        401h
  00405067: 57                 push        edi
  00405068: FF D6              call        esi
  0040506A: F6 05 78 EB 42 00  test        byte ptr ds:[0042EB78h],4
            04
  00405071: 0F 84 EE 01 00 00  je          00405265
  00405077: FF 75 10           push        dword ptr [ebp+10h]
  0040507A: 53                 push        ebx
  0040507B: 68 09 04 00 00     push        409h
  00405080: 57                 push        edi
  00405081: FF D6              call        esi
  00405083: FF 75 0C           push        dword ptr [ebp+0Ch]
  00405086: 53                 push        ebx
  00405087: 68 01 20 00 00     push        2001h
  0040508C: 57                 push        edi
  0040508D: FF D6              call        esi
  0040508F: E9 D1 01 00 00     jmp         00405265
  00405094: 81 7D 0C 05 04 00  cmp         dword ptr [ebp+0Ch],405h
            00
  0040509B: 75 28              jne         004050C5
  0040509D: 8D 45 F8           lea         eax,[ebp-8]
  004050A0: 50                 push        eax
  004050A1: 53                 push        ebx
  004050A2: 68 EC 03 00 00     push        3ECh
  004050A7: FF 75 08           push        dword ptr [ebp+8]
  004050AA: FF 15 2C 72 40 00  call        dword ptr ds:[0040722Ch]
  004050B0: 50                 push        eax
  004050B1: 68 7C 4E 40 00     push        404E7Ch
  004050B6: 53                 push        ebx
  004050B7: 53                 push        ebx
  004050B8: FF 15 C8 70 40 00  call        dword ptr ds:[004070C8h]
  004050BE: 50                 push        eax
  004050BF: FF 15 EC 70 40 00  call        dword ptr ds:[004070ECh]
  004050C5: 81 7D 0C 11 01 00  cmp         dword ptr [ebp+0Ch],111h
            00
  004050CC: 8B 35 60 72 40 00  mov         esi,dword ptr ds:[00407260h]
  004050D2: 75 1C              jne         004050F0
  004050D4: 66 81 7D 10 03 04  cmp         word ptr [ebp+10h],403h
  004050DA: 75 36              jne         00405112
  004050DC: 53                 push        ebx
  004050DD: FF 35 30 E3 42 00  push        dword ptr ds:[0042E330h]
  004050E3: FF D6              call        esi
  004050E5: 6A 08              push        8
  004050E7: 57                 push        edi
  004050E8: FF D6              call        esi
  004050EA: 57                 push        edi
  004050EB: E8 03 ED FF FF     call        00403DF3
  004050F0: 81 7D 0C 04 04 00  cmp         dword ptr [ebp+0Ch],404h
            00
  004050F7: 75 55              jne         0040514E
  004050F9: 39 1D 2C E3 42 00  cmp         dword ptr ds:[0042E32Ch],ebx
  004050FF: 74 26              je          00405127
  00405101: 6A 78              push        78h
  00405103: C7 05 A8 93 42 00  mov         dword ptr ds:[004293A8h],2
            02 00 00 00
  0040510D: E8 85 EC FF FF     call        00403D97
  00405112: FF 75 14           push        dword ptr [ebp+14h]
  00405115: FF 75 10           push        dword ptr [ebp+10h]
  00405118: FF 75 0C           push        dword ptr [ebp+0Ch]
  0040511B: E8 05 ED FF FF     call        00403E25
  00405120: 5F                 pop         edi
  00405121: 5E                 pop         esi
  00405122: 5B                 pop         ebx
  00405123: C9                 leave
  00405124: C2 10 00           ret         10h
  00405127: 6A 08              push        8
  00405129: FF 35 68 EB 42 00  push        dword ptr ds:[0042EB68h]
  0040512F: FF D6              call        esi
  00405131: 39 1D EC EB 42 00  cmp         dword ptr ds:[0042EBECh],ebx
  00405137: 75 0E              jne         00405147
  00405139: A1 B0 97 42 00     mov         eax,dword ptr ds:[004297B0h]
  0040513E: 53                 push        ebx
  0040513F: FF 70 34           push        dword ptr [eax+34h]
  00405142: E8 63 FC FF FF     call        00404DAA
  00405147: 6A 01              push        1
  00405149: E8 49 EC FF FF     call        00403D97
  0040514E: 83 7D 0C 7B        cmp         dword ptr [ebp+0Ch],7Bh
  00405152: 75 BE              jne         00405112
  00405154: 39 7D 10           cmp         dword ptr [ebp+10h],edi
  00405157: 75 B9              jne         00405112
  00405159: 53                 push        ebx
  0040515A: 53                 push        ebx
  0040515B: 68 04 10 00 00     push        1004h
  00405160: 57                 push        edi
  00405161: FF 15 44 72 40 00  call        dword ptr ds:[00407244h]
  00405167: 3B C3              cmp         eax,ebx
  00405169: 89 45 0C           mov         dword ptr [ebp+0Ch],eax
  0040516C: 0F 8E F3 00 00 00  jle         00405265
  00405172: FF 15 C8 71 40 00  call        dword ptr ds:[004071C8h]
  00405178: 6A E1              push        0FFFFFFE1h
  0040517A: 53                 push        ebx
  0040517B: 8B F0              mov         esi,eax
  0040517D: E8 AC 08 00 00     call        00405A2E
  00405182: 50                 push        eax
  00405183: 6A 01              push        1
  00405185: 53                 push        ebx
  00405186: 56                 push        esi
  00405187: FF 15 C4 71 40 00  call        dword ptr ds:[004071C4h]
  0040518D: 8B 45 14           mov         eax,dword ptr [ebp+14h]
  00405190: 83 F8 FF           cmp         eax,0FFFFFFFFh
  00405193: 75 13              jne         004051A8
  00405195: 8D 45 E8           lea         eax,[ebp-18h]
  00405198: 50                 push        eax
  00405199: 57                 push        edi
  0040519A: FF 15 74 71 40 00  call        dword ptr ds:[00407174h]
  004051A0: 8B 4D E8           mov         ecx,dword ptr [ebp-18h]
  004051A3: 8B 45 EC           mov         eax,dword ptr [ebp-14h]
  004051A6: EB 09              jmp         004051B1
  004051A8: 0F BF C8           movsx       ecx,ax
  004051AB: C1 E8 10           shr         eax,10h
  004051AE: 0F BF C0           movsx       eax,ax
  004051B1: 53                 push        ebx
  004051B2: FF 75 08           push        dword ptr [ebp+8]
  004051B5: 53                 push        ebx
  004051B6: 50                 push        eax
  004051B7: 51                 push        ecx
  004051B8: 68 80 01 00 00     push        180h
  004051BD: 56                 push        esi
  004051BE: FF 15 C0 71 40 00  call        dword ptr ds:[004071C0h]
  004051C4: 33 F6              xor         esi,esi
  004051C6: 46                 inc         esi
  004051C7: 3B C6              cmp         eax,esi
  004051C9: 0F 85 96 00 00 00  jne         00405265
  004051CF: 8B 45 0C           mov         eax,dword ptr [ebp+0Ch]
  004051D2: 89 5D C8           mov         dword ptr [ebp-38h],ebx
  004051D5: C7 45 D4 E0 9F 42  mov         dword ptr [ebp-2Ch],429FE0h
            00
  004051DC: C7 45 D8 FF 0F 00  mov         dword ptr [ebp-28h],0FFFh
            00
  004051E3: 89 45 08           mov         dword ptr [ebp+8],eax
  004051E6: BF 2D 10 00 00     mov         edi,102Dh
  004051EB: FF 4D 08           dec         dword ptr [ebp+8]
  004051EE: 8D 45 C0           lea         eax,[ebp-40h]
  004051F1: 50                 push        eax
  004051F2: FF 75 08           push        dword ptr [ebp+8]
  004051F5: 57                 push        edi
  004051F6: FF 75 FC           push        dword ptr [ebp-4]
  004051F9: FF 15 44 72 40 00  call        dword ptr ds:[00407244h]
  004051FF: 39 5D 08           cmp         dword ptr [ebp+8],ebx
  00405202: 8D 74 06 02        lea         esi,[esi+eax+2]
  00405206: 75 E3              jne         004051EB
  00405208: 53                 push        ebx
  00405209: FF 15 20 72 40 00  call        dword ptr ds:[00407220h]
  0040520F: FF 15 B8 71 40 00  call        dword ptr ds:[004071B8h]
  00405215: 56                 push        esi
  00405216: 6A 42              push        42h
  00405218: FF 15 00 71 40 00  call        dword ptr ds:[00407100h]
  0040521E: 50                 push        eax
  0040521F: 89 45 08           mov         dword ptr [ebp+8],eax
  00405222: FF 15 C4 70 40 00  call        dword ptr ds:[004070C4h]
  00405228: 8B F0              mov         esi,eax
  0040522A: 8D 45 C0           lea         eax,[ebp-40h]
  0040522D: 89 75 D4           mov         dword ptr [ebp-2Ch],esi
  00405230: 50                 push        eax
  00405231: 53                 push        ebx
  00405232: 57                 push        edi
  00405233: FF 75 FC           push        dword ptr [ebp-4]
  00405236: FF 15 44 72 40 00  call        dword ptr ds:[00407244h]
  0040523C: 03 F0              add         esi,eax
  0040523E: 66 C7 06 0D 0A     mov         word ptr [esi],0A0Dh
  00405243: 46                 inc         esi
  00405244: 46                 inc         esi
  00405245: 43                 inc         ebx
  00405246: 3B 5D 0C           cmp         ebx,dword ptr [ebp+0Ch]
  00405249: 7C DF              jl          0040522A
  0040524B: FF 75 08           push        dword ptr [ebp+8]
  0040524E: FF 15 C0 70 40 00  call        dword ptr ds:[004070C0h]
  00405254: FF 75 08           push        dword ptr [ebp+8]
  00405257: 6A 01              push        1
  00405259: FF 15 B4 71 40 00  call        dword ptr ds:[004071B4h]
  0040525F: FF 15 B0 71 40 00  call        dword ptr ds:[004071B0h]
  00405265: 33 C0              xor         eax,eax
  00405267: E9 B4 FE FF FF     jmp         00405120
  0040526C: 55                 push        ebp
  0040526D: 8B EC              mov         ebp,esp
  0040526F: 83 EC 10           sub         esp,10h
  00405272: 8D 45 F0           lea         eax,[ebp-10h]
  00405275: C7 05 E8 BF 42 00  mov         dword ptr ds:[0042BFE8h],44h
            44 00 00 00
  0040527F: 50                 push        eax
  00405280: 33 C0              xor         eax,eax
  00405282: 68 E8 BF 42 00     push        42BFE8h
  00405287: 50                 push        eax
  00405288: 50                 push        eax
  00405289: 50                 push        eax
  0040528A: 50                 push        eax
  0040528B: 50                 push        eax
  0040528C: 50                 push        eax
  0040528D: FF 75 08           push        dword ptr [ebp+8]
  00405290: 50                 push        eax
  00405291: FF 15 CC 70 40 00  call        dword ptr ds:[004070CCh]
  00405297: 85 C0              test        eax,eax
  00405299: 74 0C              je          004052A7
  0040529B: FF 75 F4           push        dword ptr [ebp-0Ch]
  0040529E: FF 15 EC 70 40 00  call        dword ptr ds:[004070ECh]
  004052A4: 8B 45 F0           mov         eax,dword ptr [ebp-10h]
  004052A7: C9                 leave
  004052A8: C2 04 00           ret         4
  004052AB: FF 25 D0 71 40 00  jmp         dword ptr ds:[004071D0h]
  004052B1: 68 00 04 00 00     push        400h
  004052B6: FF 74 24 0C        push        dword ptr [esp+0Ch]
  004052BA: FF 74 24 0C        push        dword ptr [esp+0Ch]
  004052BE: FF 35 38 E3 42 00  push        dword ptr ds:[0042E338h]
  004052C4: FF 15 D4 71 40 00  call        dword ptr ds:[004071D4h]
  004052CA: C2 08 00           ret         8
  004052CD: 8B 44 24 08        mov         eax,dword ptr [esp+8]
  004052D1: 8B C8              mov         ecx,eax
  004052D3: 81 E1 FF FF 1F 00  and         ecx,1FFFFFh
  004052D9: 83 3D 00 EC 42 00  cmp         dword ptr ds:[0042EC00h],0
            00
  004052E0: 74 05              je          004052E7
  004052E2: C1 E8 15           shr         eax,15h
  004052E5: 75 47              jne         0040532E
  004052E7: 83 3D 08 EC 42 00  cmp         dword ptr ds:[0042EC08h],0
            00
  004052EE: 74 06              je          004052F6
  004052F0: 81 F1 00 00 18 00  xor         ecx,180000h
  004052F6: A1 68 EB 42 00     mov         eax,dword ptr ds:[0042EB68h]
  004052FB: 68 D8 91 40 00     push        4091D8h
  00405300: A3 DC 91 40 00     mov         dword ptr ds:[004091DCh],eax
  00405305: A1 60 EB 42 00     mov         eax,dword ptr ds:[0042EB60h]
  0040530A: A3 E0 91 40 00     mov         dword ptr ds:[004091E0h],eax
  0040530F: 8B 44 24 08        mov         eax,dword ptr [esp+8]
  00405313: A3 E4 91 40 00     mov         dword ptr ds:[004091E4h],eax
  00405318: C7 05 E8 91 40 00  mov         dword ptr ds:[004091E8h],42E360h
            60 E3 42 00
  00405322: 89 0D EC 91 40 00  mov         dword ptr ds:[004091ECh],ecx
  00405328: FF 15 D8 71 40 00  call        dword ptr ds:[004071D8h]
  0040532E: C2 08 00           ret         8
  00405331: 55                 push        ebp
  00405332: 8B EC              mov         ebp,esp
  00405334: 81 EC 48 01 00 00  sub         esp,148h
  0040533A: 56                 push        esi
  0040533B: 57                 push        edi
  0040533C: 8B 7D 08           mov         edi,dword ptr [ebp+8]
  0040533F: 57                 push        edi
  00405340: E8 9B 02 00 00     call        004055E0
  00405345: F6 45 0C 08        test        byte ptr [ebp+0Ch],8
  00405349: 89 45 F8           mov         dword ptr [ebp-8],eax
  0040534C: 74 17              je          00405365
  0040534E: 57                 push        edi
  0040534F: FF 15 44 71 40 00  call        dword ptr ds:[00407144h]
  00405355: F7 D8              neg         eax
  00405357: 1B C0              sbb         eax,eax
  00405359: 40                 inc         eax
  0040535A: 01 05 E8 EB 42 00  add         dword ptr ds:[0042EBE8h],eax
  00405360: E9 94 01 00 00     jmp         004054F9
  00405365: 53                 push        ebx
  00405366: 8B 5D 0C           mov         ebx,dword ptr [ebp+0Ch]
  00405369: 83 E3 01           and         ebx,1
  0040536C: 89 5D FC           mov         dword ptr [ebp-4],ebx
  0040536F: 74 12              je          00405383
  00405371: 85 C0              test        eax,eax
  00405373: 0F 84 2B 01 00 00  je          004054A4
  00405379: F6 45 0C 02        test        byte ptr [ebp+0Ch],2
  0040537D: 0F 84 21 01 00 00  je          004054A4
  00405383: BE E8 AF 42 00     mov         esi,42AFE8h
  00405388: 57                 push        edi
  00405389: 56                 push        esi
  0040538A: E8 7D 06 00 00     call        00405A0C
  0040538F: 85 DB              test        ebx,ebx
  00405391: 74 0D              je          004053A0
  00405393: 68 28 93 40 00     push        409328h
  00405398: 56                 push        esi
  00405399: E8 8A 06 00 00     call        00405A28
  0040539E: EB 06              jmp         004053A6
  004053A0: 57                 push        edi
  004053A1: E8 A0 01 00 00     call        00405546
  004053A6: 80 3F 00           cmp         byte ptr [edi],0
  004053A9: 75 09              jne         004053B4
  004053AB: 80 3D E8 AF 42 00  cmp         byte ptr ds:[0042AFE8h],5Ch
            5C
  004053B2: 75 0B              jne         004053BF
  004053B4: 68 10 90 40 00     push        409010h
  004053B9: 57                 push        edi
  004053BA: E8 69 06 00 00     call        00405A28
  004053BF: 57                 push        edi
  004053C0: E8 5D 06 00 00     call        00405A22
  004053C5: 8B D8              mov         ebx,eax
  004053C7: 8D 85 B8 FE FF FF  lea         eax,[ebp+FFFFFEB8h]
  004053CD: 50                 push        eax
  004053CE: 56                 push        esi
  004053CF: 03 DF              add         ebx,edi
  004053D1: FF 15 40 71 40 00  call        dword ptr ds:[00407140h]
  004053D7: 83 F8 FF           cmp         eax,0FFFFFFFFh
  004053DA: 89 45 08           mov         dword ptr [ebp+8],eax
  004053DD: 0F 84 B7 00 00 00  je          0040549A
  004053E3: 8D 85 E4 FE FF FF  lea         eax,[ebp+FFFFFEE4h]
  004053E9: 6A 3F              push        3Fh
  004053EB: 50                 push        eax
  004053EC: 8D B5 E4 FE FF FF  lea         esi,[ebp+FFFFFEE4h]
  004053F2: E8 33 01 00 00     call        0040552A
  004053F7: 80 38 00           cmp         byte ptr [eax],0
  004053FA: 74 09              je          00405405
  004053FC: 80 7D E8 00        cmp         byte ptr [ebp-18h],0
  00405400: 74 03              je          00405405
  00405402: 8D 75 E8           lea         esi,[ebp-18h]
  00405405: 80 3E 2E           cmp         byte ptr [esi],2Eh
  00405408: 75 11              jne         0040541B
  0040540A: 8A 46 01           mov         al,byte ptr [esi+1]
  0040540D: 84 C0              test        al,al
  0040540F: 74 68              je          00405479
  00405411: 3C 2E              cmp         al,2Eh
  00405413: 75 06              jne         0040541B
  00405415: 80 7E 02 00        cmp         byte ptr [esi+2],0
  00405419: 74 5E              je          00405479
  0040541B: 56                 push        esi
  0040541C: 53                 push        ebx
  0040541D: E8 EA 05 00 00     call        00405A0C
  00405422: F6 85 B8 FE FF FF  test        byte ptr [ebp+FFFFFEB8h],10h
            10
  00405429: 74 15              je          00405440
  0040542B: 8B 45 0C           mov         eax,dword ptr [ebp+0Ch]
  0040542E: 83 E0 03           and         eax,3
  00405431: 3C 03              cmp         al,3
  00405433: 75 44              jne         00405479
  00405435: FF 75 0C           push        dword ptr [ebp+0Ch]
  00405438: 57                 push        edi
  00405439: E8 F3 FE FF FF     call        00405331
  0040543E: EB 39              jmp         00405479
  00405440: 57                 push        edi
  00405441: E8 7E 02 00 00     call        004056C4
  00405446: 57                 push        edi
  00405447: FF 15 44 71 40 00  call        dword ptr ds:[00407144h]
  0040544D: 85 C0              test        eax,eax
  0040544F: 75 20              jne         00405471
  00405451: F6 45 0C 04        test        byte ptr [ebp+0Ch],4
  00405455: 74 12              je          00405469
  00405457: 57                 push        edi
  00405458: 6A F1              push        0FFFFFFF1h
  0040545A: E8 4B F9 FF FF     call        00404DAA
  0040545F: 6A 00              push        0
  00405461: 57                 push        edi
  00405462: E8 F3 02 00 00     call        0040575A
  00405467: EB 10              jmp         00405479
  00405469: FF 05 E8 EB 42 00  inc         dword ptr ds:[0042EBE8h]
  0040546F: EB 08              jmp         00405479
  00405471: 57                 push        edi
  00405472: 6A F2              push        0FFFFFFF2h
  00405474: E8 31 F9 FF FF     call        00404DAA
  00405479: 8D 85 B8 FE FF FF  lea         eax,[ebp+FFFFFEB8h]
  0040547F: 50                 push        eax
  00405480: FF 75 08           push        dword ptr [ebp+8]
  00405483: FF 15 3C 71 40 00  call        dword ptr ds:[0040713Ch]
  00405489: 85 C0              test        eax,eax
  0040548B: 0F 85 52 FF FF FF  jne         004053E3
  00405491: FF 75 08           push        dword ptr [ebp+8]
  00405494: FF 15 38 71 40 00  call        dword ptr ds:[00407138h]
  0040549A: 83 7D FC 00        cmp         dword ptr [ebp-4],0
  0040549E: 74 04              je          004054A4
  004054A0: 80 63 FF 00        and         byte ptr [ebx-1],0
  004054A4: 33 F6              xor         esi,esi
  004054A6: 5B                 pop         ebx
  004054A7: 39 75 FC           cmp         dword ptr [ebp-4],esi
  004054AA: 74 4D              je          004054F9
  004054AC: 39 75 F8           cmp         dword ptr [ebp-8],esi
  004054AF: 75 08              jne         004054B9
  004054B1: FF 05 E8 EB 42 00  inc         dword ptr ds:[0042EBE8h]
  004054B7: EB 40              jmp         004054F9
  004054B9: 57                 push        edi
  004054BA: E8 48 08 00 00     call        00405D07
  004054BF: 85 C0              test        eax,eax
  004054C1: 74 36              je          004054F9
  004054C3: 57                 push        edi
  004054C4: E8 36 00 00 00     call        004054FF
  004054C9: 57                 push        edi
  004054CA: E8 F5 01 00 00     call        004056C4
  004054CF: 57                 push        edi
  004054D0: FF 15 D0 70 40 00  call        dword ptr ds:[004070D0h]
  004054D6: 85 C0              test        eax,eax
  004054D8: 75 17              jne         004054F1
  004054DA: F6 45 0C 04        test        byte ptr [ebp+0Ch],4
  004054DE: 74 D1              je          004054B1
  004054E0: 57                 push        edi
  004054E1: 6A F1              push        0FFFFFFF1h
  004054E3: E8 C2 F8 FF FF     call        00404DAA
  004054E8: 56                 push        esi
  004054E9: 57                 push        edi
  004054EA: E8 6B 02 00 00     call        0040575A
  004054EF: EB 08              jmp         004054F9
  004054F1: 57                 push        edi
  004054F2: 6A E5              push        0FFFFFFE5h
  004054F4: E8 B1 F8 FF FF     call        00404DAA
  004054F9: 5F                 pop         edi
  004054FA: 5E                 pop         esi
  004054FB: C9                 leave
  004054FC: C2 08 00           ret         8
  004054FF: 56                 push        esi
  00405500: 8B 74 24 08        mov         esi,dword ptr [esp+8]
  00405504: 56                 push        esi
  00405505: E8 18 05 00 00     call        00405A22
  0040550A: 03 C6              add         eax,esi
  0040550C: 50                 push        eax
  0040550D: 56                 push        esi
  0040550E: FF 15 DC 71 40 00  call        dword ptr ds:[004071DCh]
  00405514: 80 38 5C           cmp         byte ptr [eax],5Ch
  00405517: 74 0B              je          00405524
  00405519: 68 10 90 40 00     push        409010h
  0040551E: 56                 push        esi
  0040551F: E8 04 05 00 00     call        00405A28
  00405524: 8B C6              mov         eax,esi
  00405526: 5E                 pop         esi
  00405527: C2 04 00           ret         4
  0040552A: 8B 44 24 04        mov         eax,dword ptr [esp+4]
  0040552E: EB 0D              jmp         0040553D
  00405530: 3A 4C 24 08        cmp         cl,byte ptr [esp+8]
  00405534: 74 0D              je          00405543
  00405536: 50                 push        eax
  00405537: FF 15 1C 72 40 00  call        dword ptr ds:[0040721Ch]
  0040553D: 8A 08              mov         cl,byte ptr [eax]
  0040553F: 84 C9              test        cl,cl
  00405541: 75 ED              jne         00405530
  00405543: C2 08 00           ret         8
  00405546: 56                 push        esi
  00405547: 8B 74 24 08        mov         esi,dword ptr [esp+8]
  0040554B: 56                 push        esi
  0040554C: E8 D1 04 00 00     call        00405A22
  00405551: 03 C6              add         eax,esi
  00405553: 80 38 5C           cmp         byte ptr [eax],5Ch
  00405556: 74 0C              je          00405564
  00405558: 50                 push        eax
  00405559: 56                 push        esi
  0040555A: FF 15 DC 71 40 00  call        dword ptr ds:[004071DCh]
  00405560: 3B C6              cmp         eax,esi
  00405562: 77 EF              ja          00405553
  00405564: 80 20 00           and         byte ptr [eax],0
  00405567: 40                 inc         eax
  00405568: 5E                 pop         esi
  00405569: C2 04 00           ret         4
  0040556C: 8B 4C 24 04        mov         ecx,dword ptr [esp+4]
  00405570: 8A 01              mov         al,byte ptr [ecx]
  00405572: 0C 20              or          al,20h
  00405574: 66 81 39 5C 5C     cmp         word ptr [ecx],5C5Ch
  00405579: 74 12              je          0040558D
  0040557B: 3C 61              cmp         al,61h
  0040557D: 7C 0A              jl          00405589
  0040557F: 3C 7A              cmp         al,7Ah
  00405581: 7F 06              jg          00405589
  00405583: 80 79 01 3A        cmp         byte ptr [ecx+1],3Ah
  00405587: 74 04              je          0040558D
  00405589: 33 C0              xor         eax,eax
  0040558B: EB 03              jmp         00405590
  0040558D: 33 C0              xor         eax,eax
  0040558F: 40                 inc         eax
  00405590: C2 04 00           ret         4
  00405593: 53                 push        ebx
  00405594: 56                 push        esi
  00405595: 8B 35 1C 72 40 00  mov         esi,dword ptr ds:[0040721Ch]
  0040559B: 57                 push        edi
  0040559C: 8B 7C 24 10        mov         edi,dword ptr [esp+10h]
  004055A0: 57                 push        edi
  004055A1: FF D6              call        esi
  004055A3: 8B D8              mov         ebx,eax
  004055A5: 53                 push        ebx
  004055A6: FF D6              call        esi
  004055A8: 80 3F 00           cmp         byte ptr [edi],0
  004055AB: 74 0C              je          004055B9
  004055AD: 66 81 3B 3A 5C     cmp         word ptr [ebx],5C3Ah
  004055B2: 75 05              jne         004055B9
  004055B4: 50                 push        eax
  004055B5: FF D6              call        esi
  004055B7: EB 21              jmp         004055DA
  004055B9: 66 81 3F 5C 5C     cmp         word ptr [edi],5C5Ch
  004055BE: 75 18              jne         004055D8
  004055C0: 6A 02              push        2
  004055C2: 5E                 pop         esi
  004055C3: 6A 5C              push        5Ch
  004055C5: 50                 push        eax
  004055C6: 4E                 dec         esi
  004055C7: E8 5E FF FF FF     call        0040552A
  004055CC: 80 38 00           cmp         byte ptr [eax],0
  004055CF: 74 07              je          004055D8
  004055D1: 40                 inc         eax
  004055D2: 85 F6              test        esi,esi
  004055D4: 75 ED              jne         004055C3
  004055D6: EB 02              jmp         004055DA
  004055D8: 33 C0              xor         eax,eax
  004055DA: 5F                 pop         edi
  004055DB: 5E                 pop         esi
  004055DC: 5B                 pop         ebx
  004055DD: C2 04 00           ret         4
  004055E0: 56                 push        esi
  004055E1: 57                 push        edi
  004055E2: FF 74 24 0C        push        dword ptr [esp+0Ch]
  004055E6: BE E8 B3 42 00     mov         esi,42B3E8h
  004055EB: 56                 push        esi
  004055EC: E8 1B 04 00 00     call        00405A0C
  004055F1: 56                 push        esi
  004055F2: E8 9C FF FF FF     call        00405593
  004055F7: 8B F8              mov         edi,eax
  004055F9: 85 FF              test        edi,edi
  004055FB: 75 04              jne         00405601
  004055FD: 33 C0              xor         eax,eax
  004055FF: EB 52              jmp         00405653
  00405601: 57                 push        edi
  00405602: E8 67 06 00 00     call        00405C6E
  00405607: F6 05 78 EB 42 00  test        byte ptr ds:[0042EB78h],80h
            80
  0040560E: 74 0A              je          0040561A
  00405610: 8A 07              mov         al,byte ptr [edi]
  00405612: 84 C0              test        al,al
  00405614: 74 E7              je          004055FD
  00405616: 3C 5C              cmp         al,5Ch
  00405618: 74 E3              je          004055FD
  0040561A: 2B FE              sub         edi,esi
  0040561C: EB 14              jmp         00405632
  0040561E: E8 E4 06 00 00     call        00405D07
  00405623: 85 C0              test        eax,eax
  00405625: 74 05              je          0040562C
  00405627: F6 00 10           test        byte ptr [eax],10h
  0040562A: 74 D1              je          004055FD
  0040562C: 56                 push        esi
  0040562D: E8 14 FF FF FF     call        00405546
  00405632: 56                 push        esi
  00405633: E8 EA 03 00 00     call        00405A22
  00405638: 3B C7              cmp         eax,edi
  0040563A: 56                 push        esi
  0040563B: 7F E1              jg          0040561E
  0040563D: E8 BD FE FF FF     call        004054FF
  00405642: 56                 push        esi
  00405643: FF 15 78 70 40 00  call        dword ptr ds:[00407078h]
  00405649: 33 C9              xor         ecx,ecx
  0040564B: 83 F8 FF           cmp         eax,0FFFFFFFFh
  0040564E: 0F 95 C1           setne       cl
  00405651: 8B C1              mov         eax,ecx
  00405653: 5F                 pop         edi
  00405654: 5E                 pop         esi
  00405655: C2 04 00           ret         4
  00405658: 53                 push        ebx
  00405659: 56                 push        esi
  0040565A: 57                 push        edi
  0040565B: FF 74 24 14        push        dword ptr [esp+14h]
  0040565F: E8 BE 03 00 00     call        00405A22
  00405664: 8B F8              mov         edi,eax
  00405666: 8B 74 24 10        mov         esi,dword ptr [esp+10h]
  0040566A: EB 22              jmp         0040568E
  0040566C: FF 74 24 14        push        dword ptr [esp+14h]
  00405670: 8A 1C 37           mov         bl,byte ptr [edi+esi]
  00405673: 80 24 37 00        and         byte ptr [edi+esi],0
  00405677: 56                 push        esi
  00405678: FF 15 F0 70 40 00  call        dword ptr ds:[004070F0h]
  0040567E: 85 C0              test        eax,eax
  00405680: 88 1C 37           mov         byte ptr [edi+esi],bl
  00405683: 74 1B              je          004056A0
  00405685: 56                 push        esi
  00405686: FF 15 1C 72 40 00  call        dword ptr ds:[0040721Ch]
  0040568C: 8B F0              mov         esi,eax
  0040568E: 56                 push        esi
  0040568F: E8 8E 03 00 00     call        00405A22
  00405694: 3B C7              cmp         eax,edi
  00405696: 7D D4              jge         0040566C
  00405698: 33 C0              xor         eax,eax
  0040569A: 5F                 pop         edi
  0040569B: 5E                 pop         esi
  0040569C: 5B                 pop         ebx
  0040569D: C2 08 00           ret         8
  004056A0: 8B C6              mov         eax,esi
  004056A2: EB F6              jmp         0040569A
  004056A4: 8B 4C 24 04        mov         ecx,dword ptr [esp+4]
  004056A8: 56                 push        esi
  004056A9: 8B 74 24 10        mov         esi,dword ptr [esp+10h]
  004056AD: 85 F6              test        esi,esi
  004056AF: 7E 0F              jle         004056C0
  004056B1: 8B 44 24 0C        mov         eax,dword ptr [esp+0Ch]
  004056B5: 2B C1              sub         eax,ecx
  004056B7: 8A 14 08           mov         dl,byte ptr [eax+ecx]
  004056BA: 88 11              mov         byte ptr [ecx],dl
  004056BC: 41                 inc         ecx
  004056BD: 4E                 dec         esi
  004056BE: 75 F7              jne         004056B7
  004056C0: 5E                 pop         esi
  004056C1: C2 0C 00           ret         0Ch
  004056C4: FF 74 24 04        push        dword ptr [esp+4]
  004056C8: FF 15 78 70 40 00  call        dword ptr ds:[00407078h]
  004056CE: 83 F8 FF           cmp         eax,0FFFFFFFFh
  004056D1: 74 0D              je          004056E0
  004056D3: 24 FE              and         al,0FEh
  004056D5: 50                 push        eax
  004056D6: FF 74 24 08        push        dword ptr [esp+8]
  004056DA: FF 15 84 70 40 00  call        dword ptr ds:[00407084h]
  004056E0: C2 04 00           ret         4
  004056E3: FF 74 24 04        push        dword ptr [esp+4]
  004056E7: FF 15 78 70 40 00  call        dword ptr ds:[00407078h]
  004056ED: 8B C8              mov         ecx,eax
  004056EF: 6A 00              push        0
  004056F1: 41                 inc         ecx
  004056F2: F7 D9              neg         ecx
  004056F4: 1B C9              sbb         ecx,ecx
  004056F6: 23 C8              and         ecx,eax
  004056F8: 51                 push        ecx
  004056F9: FF 74 24 14        push        dword ptr [esp+14h]
  004056FD: 6A 00              push        0
  004056FF: 6A 01              push        1
  00405701: FF 74 24 1C        push        dword ptr [esp+1Ch]
  00405705: FF 74 24 1C        push        dword ptr [esp+1Ch]
  00405709: FF 15 D4 70 40 00  call        dword ptr ds:[004070D4h]
  0040570F: C2 0C 00           ret         0Ch
  00405712: 55                 push        ebp
  00405713: 8B EC              mov         ebp,esp
  00405715: 56                 push        esi
  00405716: 8B 75 08           mov         esi,dword ptr [ebp+8]
  00405719: 57                 push        edi
  0040571A: 6A 64              push        64h
  0040571C: 5F                 pop         edi
  0040571D: 4F                 dec         edi
  0040571E: C7 45 08 6E 73 61  mov         dword ptr [ebp+8],61736Eh
            00
  00405725: FF 15 8C 70 40 00  call        dword ptr ds:[0040708Ch]
  0040572B: 6A 1A              push        1Ah
  0040572D: 33 D2              xor         edx,edx
  0040572F: 59                 pop         ecx
  00405730: F7 F1              div         eax,ecx
  00405732: 56                 push        esi
  00405733: 8D 45 08           lea         eax,[ebp+8]
  00405736: 6A 00              push        0
  00405738: 50                 push        eax
  00405739: FF 75 0C           push        dword ptr [ebp+0Ch]
  0040573C: 00 55 0A           add         byte ptr [ebp+0Ah],dl
  0040573F: FF 15 D8 70 40 00  call        dword ptr ds:[004070D8h]
  00405745: 85 C0              test        eax,eax
  00405747: 75 0D              jne         00405756
  00405749: 85 FF              test        edi,edi
  0040574B: 75 D0              jne         0040571D
  0040574D: 80 26 00           and         byte ptr [esi],0
  00405750: 5F                 pop         edi
  00405751: 5E                 pop         esi
  00405752: 5D                 pop         ebp
  00405753: C2 08 00           ret         8
  00405756: 8B C6              mov         eax,esi
  00405758: EB F6              jmp         00405750
  0040575A: 53                 push        ebx
  0040575B: 55                 push        ebp
  0040575C: 56                 push        esi
  0040575D: 57                 push        edi
  0040575E: 6A 01              push        1
  00405760: E8 C9 05 00 00     call        00405D2E
  00405765: 85 C0              test        eax,eax
  00405767: 8B 74 24 18        mov         esi,dword ptr [esp+18h]
  0040576B: 74 11              je          0040577E
  0040576D: 6A 05              push        5
  0040576F: 56                 push        esi
  00405770: FF 74 24 1C        push        dword ptr [esp+1Ch]
  00405774: FF D0              call        eax
  00405776: 85 C0              test        eax,eax
  00405778: 0F 85 39 01 00 00  jne         004058B7
  0040577E: 8B 1D 68 70 40 00  mov         ebx,dword ptr ds:[00407068h]
  00405784: C7 05 70 C1 42 00  mov         dword ptr ds:[0042C170h],4C554Eh
            4E 55 4C 00
  0040578E: 85 F6              test        esi,esi
  00405790: BF 00 04 00 00     mov         edi,400h
  00405795: BD 70 C1 42 00     mov         ebp,42C170h
  0040579A: 74 26              je          004057C2
  0040579C: 6A 01              push        1
  0040579E: 6A 00              push        0
  004057A0: 56                 push        esi
  004057A1: E8 3D FF FF FF     call        004056E3
  004057A6: 50                 push        eax
  004057A7: FF 15 EC 70 40 00  call        dword ptr ds:[004070ECh]
  004057AD: 57                 push        edi
  004057AE: 55                 push        ebp
  004057AF: 56                 push        esi
  004057B0: FF D3              call        ebx
  004057B2: 85 C0              test        eax,eax
  004057B4: 0F 84 03 01 00 00  je          004058BD
  004057BA: 3B C7              cmp         eax,edi
  004057BC: 0F 8F FB 00 00 00  jg          004058BD
  004057C2: BE E8 BB 42 00     mov         esi,42BBE8h
  004057C7: 57                 push        edi
  004057C8: 56                 push        esi
  004057C9: FF 74 24 1C        push        dword ptr [esp+1Ch]
  004057CD: FF D3              call        ebx
  004057CF: 85 C0              test        eax,eax
  004057D1: 0F 84 E6 00 00 00  je          004058BD
  004057D7: 3B C7              cmp         eax,edi
  004057D9: 0F 8F DE 00 00 00  jg          004058BD
  004057DF: 56                 push        esi
  004057E0: 55                 push        ebp
  004057E1: 68 34 93 40 00     push        409334h
  004057E6: 68 E8 B7 42 00     push        42B7E8h
  004057EB: FF 15 00 72 40 00  call        dword ptr ds:[00407200h]
  004057F1: 8B D8              mov         ebx,eax
  004057F3: A1 70 EB 42 00     mov         eax,dword ptr ds:[0042EB70h]
  004057F8: 83 C4 10           add         esp,10h
  004057FB: FF B0 28 01 00 00  push        dword ptr [eax+00000128h]
  00405801: 56                 push        esi
  00405802: E8 27 02 00 00     call        00405A2E
  00405807: 6A 04              push        4
  00405809: 68 00 00 00 C0     push        0C0000000h
  0040580E: 56                 push        esi
  0040580F: E8 CF FE FF FF     call        004056E3
  00405814: 8B E8              mov         ebp,eax
  00405816: 83 FD FF           cmp         ebp,0FFFFFFFFh
  00405819: 89 6C 24 14        mov         dword ptr [esp+14h],ebp
  0040581D: 0F 84 94 00 00 00  je          004058B7
  00405823: 6A 00              push        0
  00405825: 55                 push        ebp
  00405826: FF 15 90 70 40 00  call        dword ptr ds:[00407090h]
  0040582C: 8B F8              mov         edi,eax
  0040582E: 8D 44 1F 0A        lea         eax,[edi+ebx+0Ah]
  00405832: 50                 push        eax
  00405833: 6A 40              push        40h
  00405835: FF 15 00 71 40 00  call        dword ptr ds:[00407100h]
  0040583B: 8B F0              mov         esi,eax
  0040583D: 85 F6              test        esi,esi
  0040583F: 74 6F              je          004058B0
  00405841: 8D 44 24 18        lea         eax,[esp+18h]
  00405845: 6A 00              push        0
  00405847: 50                 push        eax
  00405848: 57                 push        edi
  00405849: 56                 push        esi
  0040584A: 55                 push        ebp
  0040584B: FF 15 2C 71 40 00  call        dword ptr ds:[0040712Ch]
  00405851: 85 C0              test        eax,eax
  00405853: 74 5B              je          004058B0
  00405855: 3B 7C 24 18        cmp         edi,dword ptr [esp+18h]
  00405859: 75 55              jne         004058B0
  0040585B: 68 0C 73 40 00     push        40730Ch
  00405860: 56                 push        esi
  00405861: E8 F2 FD FF FF     call        00405658
  00405866: 85 C0              test        eax,eax
  00405868: 75 5A              jne         004058C4
  0040586A: 8D 04 3E           lea         eax,[esi+edi]
  0040586D: 68 0C 73 40 00     push        40730Ch
  00405872: 50                 push        eax
  00405873: E8 94 01 00 00     call        00405A0C
  00405878: 83 C7 0A           add         edi,0Ah
  0040587B: 8B C7              mov         eax,edi
  0040587D: 53                 push        ebx
  0040587E: 03 C6              add         eax,esi
  00405880: 68 E8 B7 42 00     push        42B7E8h
  00405885: 50                 push        eax
  00405886: E8 19 FE FF FF     call        004056A4
  0040588B: 33 C0              xor         eax,eax
  0040588D: 50                 push        eax
  0040588E: 50                 push        eax
  0040588F: 50                 push        eax
  00405890: 55                 push        ebp
  00405891: FF 15 34 71 40 00  call        dword ptr ds:[00407134h]
  00405897: 8D 44 24 18        lea         eax,[esp+18h]
  0040589B: 6A 00              push        0
  0040589D: 03 FB              add         edi,ebx
  0040589F: 50                 push        eax
  004058A0: 57                 push        edi
  004058A1: 56                 push        esi
  004058A2: 55                 push        ebp
  004058A3: FF 15 28 71 40 00  call        dword ptr ds:[00407128h]
  004058A9: 56                 push        esi
  004058AA: FF 15 FC 70 40 00  call        dword ptr ds:[004070FCh]
  004058B0: 55                 push        ebp
  004058B1: FF 15 EC 70 40 00  call        dword ptr ds:[004070ECh]
  004058B7: FF 05 F0 EB 42 00  inc         dword ptr ds:[0042EBF0h]
  004058BD: 5F                 pop         edi
  004058BE: 5E                 pop         esi
  004058BF: 5D                 pop         ebp
  004058C0: 5B                 pop         ebx
  004058C1: C2 08 00           ret         8
  004058C4: 83 C0 0A           add         eax,0Ah
  004058C7: 68 30 93 40 00     push        409330h
  004058CC: 50                 push        eax
  004058CD: E8 86 FD FF FF     call        00405658
  004058D2: 85 C0              test        eax,eax
  004058D4: 74 A5              je          0040587B
  004058D6: 40                 inc         eax
  004058D7: 8D 0C 3E           lea         ecx,[esi+edi]
  004058DA: 3B C1              cmp         eax,ecx
  004058DC: 8B E8              mov         ebp,eax
  004058DE: 73 0B              jae         004058EB
  004058E0: 8A 55 00           mov         dl,byte ptr [ebp]
  004058E3: 88 14 2B           mov         byte ptr [ebx+ebp],dl
  004058E6: 45                 inc         ebp
  004058E7: 3B E9              cmp         ebp,ecx
  004058E9: 72 F5              jb          004058E0
  004058EB: 8B 6C 24 14        mov         ebp,dword ptr [esp+14h]
  004058EF: 2B C6              sub         eax,esi
  004058F1: EB 8A              jmp         0040587D
  004058F3: 55                 push        ebp
  004058F4: 8B EC              mov         ebp,esp
  004058F6: 53                 push        ebx
  004058F7: 8D 45 18           lea         eax,[ebp+18h]
  004058FA: 56                 push        esi
  004058FB: 50                 push        eax
  004058FC: 8B 45 18           mov         eax,dword ptr [ebp+18h]
  004058FF: 33 DB              xor         ebx,ebx
  00405901: F7 D8              neg         eax
  00405903: 1B C0              sbb         eax,eax
  00405905: 8B 75 14           mov         esi,dword ptr [ebp+14h]
  00405908: 25 00 01 00 00     and         eax,100h
  0040590D: 0D 19 00 02 00     or          eax,20019h
  00405912: 88 1E              mov         byte ptr [esi],bl
  00405914: 50                 push        eax
  00405915: 53                 push        ebx
  00405916: FF 75 0C           push        dword ptr [ebp+0Ch]
  00405919: FF 75 08           push        dword ptr [ebp+8]
  0040591C: FF 15 10 70 40 00  call        dword ptr ds:[00407010h]
  00405922: 85 C0              test        eax,eax
  00405924: 75 3E              jne         00405964
  00405926: 8D 45 0C           lea         eax,[ebp+0Ch]
  00405929: C7 45 0C 00 04 00  mov         dword ptr [ebp+0Ch],400h
            00
  00405930: 50                 push        eax
  00405931: 8D 45 14           lea         eax,[ebp+14h]
  00405934: 56                 push        esi
  00405935: 50                 push        eax
  00405936: 53                 push        ebx
  00405937: FF 75 10           push        dword ptr [ebp+10h]
  0040593A: FF 75 18           push        dword ptr [ebp+18h]
  0040593D: FF 15 00 70 40 00  call        dword ptr ds:[00407000h]
  00405943: 85 C0              test        eax,eax
  00405945: 75 0C              jne         00405953
  00405947: 83 7D 14 01        cmp         dword ptr [ebp+14h],1
  0040594B: 74 08              je          00405955
  0040594D: 83 7D 14 02        cmp         dword ptr [ebp+14h],2
  00405951: 74 02              je          00405955
  00405953: 88 1E              mov         byte ptr [esi],bl
  00405955: FF 75 18           push        dword ptr [ebp+18h]
  00405958: 88 9E FF 03 00 00  mov         byte ptr [esi+000003FFh],bl
  0040595E: FF 15 1C 70 40 00  call        dword ptr ds:[0040701Ch]
  00405964: 5E                 pop         esi
  00405965: 5B                 pop         ebx
  00405966: 5D                 pop         ebp
  00405967: C2 14 00           ret         14h
  0040596A: FF 74 24 08        push        dword ptr [esp+8]
  0040596E: 68 18 73 40 00     push        407318h
  00405973: FF 74 24 0C        push        dword ptr [esp+0Ch]
  00405977: FF 15 00 72 40 00  call        dword ptr ds:[00407200h]
  0040597D: 83 C4 0C           add         esp,0Ch
  00405980: C2 08 00           ret         8
  00405983: 55                 push        ebp
  00405984: 8B EC              mov         ebp,esp
  00405986: 51                 push        ecx
  00405987: 8B 4D 08           mov         ecx,dword ptr [ebp+8]
  0040598A: 53                 push        ebx
  0040598B: 56                 push        esi
  0040598C: 57                 push        edi
  0040598D: 33 FF              xor         edi,edi
  0040598F: 80 39 2D           cmp         byte ptr [ecx],2Dh
  00405992: C7 45 FC 01 00 00  mov         dword ptr [ebp-4],1
            00
  00405999: B0 0A              mov         al,0Ah
  0040599B: B3 39              mov         bl,39h
  0040599D: 75 05              jne         004059A4
  0040599F: 41                 inc         ecx
  004059A0: 83 4D FC FF        or          dword ptr [ebp-4],0FFFFFFFFh
  004059A4: 80 39 30           cmp         byte ptr [ecx],30h
  004059A7: 75 1C              jne         004059C5
  004059A9: 41                 inc         ecx
  004059AA: 8A 11              mov         dl,byte ptr [ecx]
  004059AC: 80 FA 30           cmp         dl,30h
  004059AF: 7C 09              jl          004059BA
  004059B1: 80 FA 37           cmp         dl,37h
  004059B4: 7F 04              jg          004059BA
  004059B6: B0 08              mov         al,8
  004059B8: B3 37              mov         bl,37h
  004059BA: 80 E2 DF           and         dl,0DFh
  004059BD: 80 FA 58           cmp         dl,58h
  004059C0: 75 03              jne         004059C5
  004059C2: B0 10              mov         al,10h
  004059C4: 41                 inc         ecx
  004059C5: 0F BE 11           movsx       edx,byte ptr [ecx]
  004059C8: 41                 inc         ecx
  004059C9: 83 FA 30           cmp         edx,30h
  004059CC: 7C 0C              jl          004059DA
  004059CE: 0F BE F3           movsx       esi,bl
  004059D1: 3B D6              cmp         edx,esi
  004059D3: 7F 05              jg          004059DA
  004059D5: 83 EA 30           sub         edx,30h
  004059D8: EB 19              jmp         004059F3
  004059DA: 3C 10              cmp         al,10h
  004059DC: 75 21              jne         004059FF
  004059DE: 8B F2              mov         esi,edx
  004059E0: 83 E6 DF           and         esi,0FFFFFFDFh
  004059E3: 83 FE 41           cmp         esi,41h
  004059E6: 7C 17              jl          004059FF
  004059E8: 83 FE 46           cmp         esi,46h
  004059EB: 7F 12              jg          004059FF
  004059ED: 83 E2 07           and         edx,7
  004059F0: 83 C2 09           add         edx,9
  004059F3: 0F BE F0           movsx       esi,al
  004059F6: 0F AF F7           imul        esi,edi
  004059F9: 03 F2              add         esi,edx
  004059FB: 8B FE              mov         edi,esi
  004059FD: EB C6              jmp         004059C5
  004059FF: 8B 45 FC           mov         eax,dword ptr [ebp-4]
  00405A02: 0F AF C7           imul        eax,edi
  00405A05: 5F                 pop         edi
  00405A06: 5E                 pop         esi
  00405A07: 5B                 pop         ebx
  00405A08: C9                 leave
  00405A09: C2 04 00           ret         4
  00405A0C: 68 00 04 00 00     push        400h
  00405A11: FF 74 24 0C        push        dword ptr [esp+0Ch]
  00405A15: FF 74 24 0C        push        dword ptr [esp+0Ch]
  00405A19: FF 15 B8 70 40 00  call        dword ptr ds:[004070B8h]
  00405A1F: C2 08 00           ret         8
  00405A22: FF 25 DC 70 40 00  jmp         dword ptr ds:[004070DCh]
  00405A28: FF 25 E0 70 40 00  jmp         dword ptr ds:[004070E0h]
  00405A2E: 55                 push        ebp
  00405A2F: 8B EC              mov         ebp,esp
  00405A31: 83 EC 18           sub         esp,18h
  00405A34: 8B 45 0C           mov         eax,dword ptr [ebp+0Ch]
  00405A37: 85 C0              test        eax,eax
  00405A39: 7D 11              jge         00405A4C
  00405A3B: 8B 0D 3C E3 42 00  mov         ecx,dword ptr ds:[0042E33Ch]
  00405A41: 8D 04 85 04 00 00  lea         eax,[eax*4+00000004h]
            00
  00405A48: 2B C8              sub         ecx,eax
  00405A4A: 8B 01              mov         eax,dword ptr [ecx]
  00405A4C: 8B 0D 98 EB 42 00  mov         ecx,dword ptr ds:[0042EB98h]
  00405A52: 8B 55 08           mov         edx,dword ptr [ebp+8]
  00405A55: 03 C8              add         ecx,eax
  00405A57: B8 00 DB 42 00     mov         eax,42DB00h
  00405A5C: 53                 push        ebx
  00405A5D: 2B D0              sub         edx,eax
  00405A5F: 56                 push        esi
  00405A60: 57                 push        edi
  00405A61: 81 FA 00 08 00 00  cmp         edx,800h
  00405A67: 8B F8              mov         edi,eax
  00405A69: 0F 83 DC 01 00 00  jae         00405C4B
  00405A6F: 8B 7D 08           mov         edi,dword ptr [ebp+8]
  00405A72: 83 65 08 00        and         dword ptr [ebp+8],0
  00405A76: E9 D0 01 00 00     jmp         00405C4B
  00405A7B: 8B F7              mov         esi,edi
  00405A7D: 2B F0              sub         esi,eax
  00405A7F: 81 FE 00 04 00 00  cmp         esi,400h
  00405A85: 0F 8D CA 01 00 00  jge         00405C55
  00405A8B: 41                 inc         ecx
  00405A8C: 80 FA FC           cmp         dl,0FCh
  00405A8F: 89 4D 0C           mov         dword ptr [ebp+0Ch],ecx
  00405A92: 0F 86 A6 01 00 00  jbe         00405C3E
  00405A98: 0F BE 41 01        movsx       eax,byte ptr [ecx+1]
  00405A9C: 0F BE 09           movsx       ecx,byte ptr [ecx]
  00405A9F: 8B F0              mov         esi,eax
  00405AA1: 8B D9              mov         ebx,ecx
  00405AA3: 83 E6 7F           and         esi,7Fh
  00405AA6: 83 E3 7F           and         ebx,7Fh
  00405AA9: C1 E6 07           shl         esi,7
  00405AAC: 0B F3              or          esi,ebx
  00405AAE: 8B D9              mov         ebx,ecx
  00405AB0: 83 45 0C 02        add         dword ptr [ebp+0Ch],2
  00405AB4: 80 CF 80           or          bh,80h
  00405AB7: 89 5D E8           mov         dword ptr [ebp-18h],ebx
  00405ABA: 8B D9              mov         ebx,ecx
  00405ABC: 8B C8              mov         ecx,eax
  00405ABE: 89 5D EC           mov         dword ptr [ebp-14h],ebx
  00405AC1: 80 CD 80           or          ch,80h
  00405AC4: 80 FA FE           cmp         dl,0FEh
  00405AC7: 89 4D F0           mov         dword ptr [ebp-10h],ecx
  00405ACA: 89 45 F4           mov         dword ptr [ebp-0Ch],eax
  00405ACD: 0F 85 15 01 00 00  jne         00405BE8
  00405AD3: 6A 02              push        2
  00405AD5: 5E                 pop         esi
  00405AD6: FF 15 E8 70 40 00  call        dword ptr ds:[004070E8h]
  00405ADC: 85 C0              test        eax,eax
  00405ADE: 79 18              jns         00405AF8
  00405AE0: 66 3D 04 5A        cmp         ax,5A04h
  00405AE4: 74 12              je          00405AF8
  00405AE6: 83 7D F4 23        cmp         dword ptr [ebp-0Ch],23h
  00405AEA: 74 0C              je          00405AF8
  00405AEC: 83 7D F4 2E        cmp         dword ptr [ebp-0Ch],2Eh
  00405AF0: 74 06              je          00405AF8
  00405AF2: 83 65 FC 00        and         dword ptr [ebp-4],0
  00405AF6: EB 07              jmp         00405AFF
  00405AF8: C7 45 FC 01 00 00  mov         dword ptr [ebp-4],1
            00
  00405AFF: 83 3D E4 EB 42 00  cmp         dword ptr ds:[0042EBE4h],0
            00
  00405B06: 74 03              je          00405B0B
  00405B08: 6A 04              push        4
  00405B0A: 5E                 pop         esi
  00405B0B: 84 DB              test        bl,bl
  00405B0D: 79 37              jns         00405B46
  00405B0F: 8B C3              mov         eax,ebx
  00405B11: 83 E3 3F           and         ebx,3Fh
  00405B14: 03 1D 98 EB 42 00  add         ebx,dword ptr ds:[0042EB98h]
  00405B1A: 83 E0 40           and         eax,40h
  00405B1D: 50                 push        eax
  00405B1E: 57                 push        edi
  00405B1F: 53                 push        ebx
  00405B20: 68 1C 73 40 00     push        40731Ch
  00405B25: 68 02 00 00 80     push        80000002h
  00405B2A: E8 C4 FD FF FF     call        004058F3
  00405B2F: 80 3F 00           cmp         byte ptr [edi],0
  00405B32: 0F 85 97 00 00 00  jne         00405BCF
  00405B38: FF 75 F4           push        dword ptr [ebp-0Ch]
  00405B3B: 57                 push        edi
  00405B3C: E8 ED FE FF FF     call        00405A2E
  00405B41: E9 84 00 00 00     jmp         00405BCA
  00405B46: 83 FB 25           cmp         ebx,25h
  00405B49: 75 0E              jne         00405B59
  00405B4B: 68 00 04 00 00     push        400h
  00405B50: 57                 push        edi
  00405B51: FF 15 E4 70 40 00  call        dword ptr ds:[004070E4h]
  00405B57: EB 71              jmp         00405BCA
  00405B59: 83 FB 24           cmp         ebx,24h
  00405B5C: 75 68              jne         00405BC6
  00405B5E: 68 00 04 00 00     push        400h
  00405B63: 57                 push        edi
  00405B64: FF 15 A4 70 40 00  call        dword ptr ds:[004070A4h]
  00405B6A: 33 F6              xor         esi,esi
  00405B6C: EB 58              jmp         00405BC6
  00405B6E: A1 64 EB 42 00     mov         eax,dword ptr ds:[0042EB64h]
  00405B73: 33 C9              xor         ecx,ecx
  00405B75: 4E                 dec         esi
  00405B76: 3B C1              cmp         eax,ecx
  00405B78: 74 18              je          00405B92
  00405B7A: 39 4D FC           cmp         dword ptr [ebp-4],ecx
  00405B7D: 74 13              je          00405B92
  00405B7F: 57                 push        edi
  00405B80: 51                 push        ecx
  00405B81: 51                 push        ecx
  00405B82: FF 74 B5 E8        push        dword ptr [ebp+esi*4-18h]
  00405B86: FF 35 68 EB 42 00  push        dword ptr ds:[0042EB68h]
  00405B8C: FF D0              call        eax
  00405B8E: 85 C0              test        eax,eax
  00405B90: 74 38              je          00405BCA
  00405B92: 8D 45 F8           lea         eax,[ebp-8]
  00405B95: 50                 push        eax
  00405B96: FF 74 B5 E8        push        dword ptr [ebp+esi*4-18h]
  00405B9A: FF 35 68 EB 42 00  push        dword ptr ds:[0042EB68h]
  00405BA0: FF 15 64 71 40 00  call        dword ptr ds:[00407164h]
  00405BA6: 85 C0              test        eax,eax
  00405BA8: 75 19              jne         00405BC3
  00405BAA: 57                 push        edi
  00405BAB: FF 75 F8           push        dword ptr [ebp-8]
  00405BAE: FF 15 50 71 40 00  call        dword ptr ds:[00407150h]
  00405BB4: FF 75 F8           push        dword ptr [ebp-8]
  00405BB7: 8B D8              mov         ebx,eax
  00405BB9: FF 15 78 72 40 00  call        dword ptr ds:[00407278h]
  00405BBF: 85 DB              test        ebx,ebx
  00405BC1: 75 07              jne         00405BCA
  00405BC3: 80 27 00           and         byte ptr [edi],0
  00405BC6: 85 F6              test        esi,esi
  00405BC8: 75 A4              jne         00405B6E
  00405BCA: 80 3F 00           cmp         byte ptr [edi],0
  00405BCD: 74 11              je          00405BE0
  00405BCF: 83 7D F4 1A        cmp         dword ptr [ebp-0Ch],1Ah
  00405BD3: 75 0B              jne         00405BE0
  00405BD5: 68 48 73 40 00     push        407348h
  00405BDA: 57                 push        edi
  00405BDB: E8 48 FE FF FF     call        00405A28
  00405BE0: 57                 push        edi
  00405BE1: E8 88 00 00 00     call        00405C6E
  00405BE6: EB 44              jmp         00405C2C
  00405BE8: 80 FA FD           cmp         dl,0FDh
  00405BEB: 75 2E              jne         00405C1B
  00405BED: 83 FE 1D           cmp         esi,1Dh
  00405BF0: 75 0E              jne         00405C00
  00405BF2: FF 35 68 EB 42 00  push        dword ptr ds:[0042EB68h]
  00405BF8: 57                 push        edi
  00405BF9: E8 6C FD FF FF     call        0040596A
  00405BFE: EB 11              jmp         00405C11
  00405C00: 8B C6              mov         eax,esi
  00405C02: C1 E0 0A           shl         eax,0Ah
  00405C05: 05 00 F0 42 00     add         eax,42F000h
  00405C0A: 50                 push        eax
  00405C0B: 57                 push        edi
  00405C0C: E8 FB FD FF FF     call        00405A0C
  00405C11: 83 C6 EB           add         esi,0FFFFFFEBh
  00405C14: 83 FE 07           cmp         esi,7
  00405C17: 73 13              jae         00405C2C
  00405C19: EB C5              jmp         00405BE0
  00405C1B: 80 FA FF           cmp         dl,0FFh
  00405C1E: 75 0C              jne         00405C2C
  00405C20: 83 C8 FF           or          eax,0FFFFFFFFh
  00405C23: 2B C6              sub         eax,esi
  00405C25: 50                 push        eax
  00405C26: 57                 push        edi
  00405C27: E8 02 FE FF FF     call        00405A2E
  00405C2C: 57                 push        edi
  00405C2D: E8 F0 FD FF FF     call        00405A22
  00405C32: 8B 4D 0C           mov         ecx,dword ptr [ebp+0Ch]
  00405C35: 03 F8              add         edi,eax
  00405C37: B8 00 DB 42 00     mov         eax,42DB00h
  00405C3C: EB 0D              jmp         00405C4B
  00405C3E: 75 08              jne         00405C48
  00405C40: 8A 11              mov         dl,byte ptr [ecx]
  00405C42: 88 17              mov         byte ptr [edi],dl
  00405C44: 47                 inc         edi
  00405C45: 41                 inc         ecx
  00405C46: EB 03              jmp         00405C4B
  00405C48: 88 17              mov         byte ptr [edi],dl
  00405C4A: 47                 inc         edi
  00405C4B: 8A 11              mov         dl,byte ptr [ecx]
  00405C4D: 84 D2              test        dl,dl
  00405C4F: 0F 85 26 FE FF FF  jne         00405A7B
  00405C55: 80 27 00           and         byte ptr [edi],0
  00405C58: 83 7D 08 00        cmp         dword ptr [ebp+8],0
  00405C5C: 5F                 pop         edi
  00405C5D: 5E                 pop         esi
  00405C5E: 5B                 pop         ebx
  00405C5F: 74 09              je          00405C6A
  00405C61: 50                 push        eax
  00405C62: FF 75 08           push        dword ptr [ebp+8]
  00405C65: E8 A2 FD FF FF     call        00405A0C
  00405C6A: C9                 leave
  00405C6B: C2 08 00           ret         8
  00405C6E: 53                 push        ebx
  00405C6F: 56                 push        esi
  00405C70: 8B 74 24 0C        mov         esi,dword ptr [esp+0Ch]
  00405C74: 57                 push        edi
  00405C75: 80 3E 5C           cmp         byte ptr [esi],5Ch
  00405C78: 75 15              jne         00405C8F
  00405C7A: 80 7E 01 5C        cmp         byte ptr [esi+1],5Ch
  00405C7E: 75 0F              jne         00405C8F
  00405C80: 80 7E 02 3F        cmp         byte ptr [esi+2],3Fh
  00405C84: 75 09              jne         00405C8F
  00405C86: 80 7E 03 5C        cmp         byte ptr [esi+3],5Ch
  00405C8A: 75 03              jne         00405C8F
  00405C8C: 83 C6 04           add         esi,4
  00405C8F: 80 3E 00           cmp         byte ptr [esi],0
  00405C92: 74 0C              je          00405CA0
  00405C94: 56                 push        esi
  00405C95: E8 D2 F8 FF FF     call        0040556C
  00405C9A: 85 C0              test        eax,eax
  00405C9C: 74 02              je          00405CA0
  00405C9E: 46                 inc         esi
  00405C9F: 46                 inc         esi
  00405CA0: 8A 06              mov         al,byte ptr [esi]
  00405CA2: 8B DE              mov         ebx,esi
  00405CA4: 84 C0              test        al,al
  00405CA6: 8B FE              mov         edi,esi
  00405CA8: 74 39              je          00405CE3
  00405CAA: 55                 push        ebp
  00405CAB: 8B 2D 1C 72 40 00  mov         ebp,dword ptr ds:[0040721Ch]
  00405CB1: 3C 1F              cmp         al,1Fh
  00405CB3: 76 22              jbe         00405CD7
  00405CB5: 50                 push        eax
  00405CB6: 68 3C 93 40 00     push        40933Ch
  00405CBB: E8 6A F8 FF FF     call        0040552A
  00405CC0: 80 38 00           cmp         byte ptr [eax],0
  00405CC3: 75 12              jne         00405CD7
  00405CC5: 56                 push        esi
  00405CC6: FF D5              call        ebp
  00405CC8: 2B C6              sub         eax,esi
  00405CCA: 50                 push        eax
  00405CCB: 56                 push        esi
  00405CCC: 57                 push        edi
  00405CCD: E8 D2 F9 FF FF     call        004056A4
  00405CD2: 57                 push        edi
  00405CD3: FF D5              call        ebp
  00405CD5: 8B F8              mov         edi,eax
  00405CD7: 56                 push        esi
  00405CD8: FF D5              call        ebp
  00405CDA: 8B F0              mov         esi,eax
  00405CDC: 8A 06              mov         al,byte ptr [esi]
  00405CDE: 84 C0              test        al,al
  00405CE0: 75 CF              jne         00405CB1
  00405CE2: 5D                 pop         ebp
  00405CE3: 80 27 00           and         byte ptr [edi],0
  00405CE6: 57                 push        edi
  00405CE7: 53                 push        ebx
  00405CE8: FF 15 DC 71 40 00  call        dword ptr ds:[004071DCh]
  00405CEE: 8B F8              mov         edi,eax
  00405CF0: 8A 07              mov         al,byte ptr [edi]
  00405CF2: 3C 20              cmp         al,20h
  00405CF4: 74 04              je          00405CFA
  00405CF6: 3C 5C              cmp         al,5Ch
  00405CF8: 75 07              jne         00405D01
  00405CFA: 80 27 00           and         byte ptr [edi],0
  00405CFD: 3B DF              cmp         ebx,edi
  00405CFF: 72 E5              jb          00405CE6
  00405D01: 5F                 pop         edi
  00405D02: 5E                 pop         esi
  00405D03: 5B                 pop         ebx
  00405D04: C2 04 00           ret         4
  00405D07: 56                 push        esi
  00405D08: BE 30 C0 42 00     mov         esi,42C030h
  00405D0D: 56                 push        esi
  00405D0E: FF 74 24 0C        push        dword ptr [esp+0Ch]
  00405D12: FF 15 40 71 40 00  call        dword ptr ds:[00407140h]
  00405D18: 83 F8 FF           cmp         eax,0FFFFFFFFh
  00405D1B: 74 0B              je          00405D28
  00405D1D: 50                 push        eax
  00405D1E: FF 15 38 71 40 00  call        dword ptr ds:[00407138h]
  00405D24: 8B C6              mov         eax,esi
  00405D26: EB 02              jmp         00405D2A
  00405D28: 33 C0              xor         eax,eax
  00405D2A: 5E                 pop         esi
  00405D2B: C2 04 00           ret         4
  00405D2E: 8B 44 24 04        mov         eax,dword ptr [esp+4]
  00405D32: 56                 push        esi
  00405D33: 8B F0              mov         esi,eax
  00405D35: 57                 push        edi
  00405D36: C1 E6 03           shl         esi,3
  00405D39: 8B BE 00 92 40 00  mov         edi,dword ptr [esi+00409200h]
  00405D3F: 57                 push        edi
  00405D40: FF 15 0C 71 40 00  call        dword ptr ds:[0040710Ch]
  00405D46: 85 C0              test        eax,eax
  00405D48: 75 0B              jne         00405D55
  00405D4A: 57                 push        edi
  00405D4B: FF 15 B4 70 40 00  call        dword ptr ds:[004070B4h]
  00405D51: 85 C0              test        eax,eax
  00405D53: 74 0D              je          00405D62
  00405D55: FF B6 04 92 40 00  push        dword ptr [esi+00409204h]
  00405D5B: 50                 push        eax
  00405D5C: FF 15 14 71 40 00  call        dword ptr ds:[00407114h]
  00405D62: 5F                 pop         edi
  00405D63: 5E                 pop         esi
  00405D64: C2 04 00           ret         4
  00405D67: 55                 push        ebp
  00405D68: 8B EC              mov         ebp,esp
  00405D6A: 83 EC 1C           sub         esp,1Ch
  00405D6D: 56                 push        esi
  00405D6E: 8B 75 08           mov         esi,dword ptr [ebp+8]
  00405D71: 57                 push        edi
  00405D72: 8B 3D E4 71 40 00  mov         edi,dword ptr ds:[004071E4h]
  00405D78: EB 0A              jmp         00405D84
  00405D7A: 8D 45 E4           lea         eax,[ebp-1Ch]
  00405D7D: 50                 push        eax
  00405D7E: FF 15 E0 71 40 00  call        dword ptr ds:[004071E0h]
  00405D84: 6A 01              push        1
  00405D86: 56                 push        esi
  00405D87: 56                 push        esi
  00405D88: 8D 45 E4           lea         eax,[ebp-1Ch]
  00405D8B: 6A 00              push        0
  00405D8D: 50                 push        eax
  00405D8E: FF D7              call        edi
  00405D90: 85 C0              test        eax,eax
  00405D92: 75 E6              jne         00405D7A
  00405D94: 5F                 pop         edi
  00405D95: 5E                 pop         esi
  00405D96: C9                 leave
  00405D97: C2 04 00           ret         4
  00405D9A: 83 3D 74 C5 42 00  cmp         dword ptr ds:[0042C574h],0
            00
  00405DA1: 56                 push        esi
  00405DA2: 75 2D              jne         00405DD1
  00405DA4: 33 C9              xor         ecx,ecx
  00405DA6: 6A 08              push        8
  00405DA8: 8B C1              mov         eax,ecx
  00405DAA: 5E                 pop         esi
  00405DAB: 8B D0              mov         edx,eax
  00405DAD: 80 E2 01           and         dl,1
  00405DB0: F6 DA              neg         dl
  00405DB2: 1B D2              sbb         edx,edx
  00405DB4: 81 E2 20 83 B8 ED  and         edx,0EDB88320h
  00405DBA: D1 E8              shr         eax,1
  00405DBC: 33 C2              xor         eax,edx
  00405DBE: 4E                 dec         esi
  00405DBF: 75 EA              jne         00405DAB
  00405DC1: 89 04 8D 70 C5 42  mov         dword ptr [ecx*4+0042C570h],eax
            00
  00405DC8: 41                 inc         ecx
  00405DC9: 81 F9 00 01 00 00  cmp         ecx,100h
  00405DCF: 7C D5              jl          00405DA6
  00405DD1: 8B 54 24 10        mov         edx,dword ptr [esp+10h]
  00405DD5: 8B 44 24 08        mov         eax,dword ptr [esp+8]
  00405DD9: 85 D2              test        edx,edx
  00405DDB: F7 D0              not         eax
  00405DDD: 76 23              jbe         00405E02
  00405DDF: 8B 4C 24 0C        mov         ecx,dword ptr [esp+0Ch]
  00405DE3: 57                 push        edi
  00405DE4: 0F B6 39           movzx       edi,byte ptr [ecx]
  00405DE7: 8B F0              mov         esi,eax
  00405DE9: 81 E6 FF 00 00 00  and         esi,0FFh
  00405DEF: 33 F7              xor         esi,edi
  00405DF1: C1 E8 08           shr         eax,8
  00405DF4: 8B 34 B5 70 C5 42  mov         esi,dword ptr [esi*4+0042C570h]
            00
  00405DFB: 33 C6              xor         eax,esi
  00405DFD: 41                 inc         ecx
  00405DFE: 4A                 dec         edx
  00405DFF: 75 E3              jne         00405DE4
  00405E01: 5F                 pop         edi
  00405E02: F7 D0              not         eax
  00405E04: 5E                 pop         esi
  00405E05: C2 0C 00           ret         0Ch
  00405E08: 55                 push        ebp
  00405E09: 8B EC              mov         ebp,esp
  00405E0B: 83 EC 44           sub         esp,44h
  00405E0E: 8B 45 08           mov         eax,dword ptr [ebp+8]
  00405E11: 53                 push        ebx
  00405E12: 56                 push        esi
  00405E13: 57                 push        edi
  00405E14: 8B 08              mov         ecx,dword ptr [eax]
  00405E16: 8D 70 10           lea         esi,[eax+10h]
  00405E19: 8B 40 04           mov         eax,dword ptr [eax+4]
  00405E1C: 89 4D C8           mov         dword ptr [ebp-38h],ecx
  00405E1F: 8B 8E A8 9B 00 00  mov         ecx,dword ptr [esi+00009BA8h]
  00405E25: 8B 9E 18 05 00 00  mov         ebx,dword ptr [esi+00000518h]
  00405E2B: 89 45 CC           mov         dword ptr [ebp-34h],eax
  00405E2E: 8B 86 1C 05 00 00  mov         eax,dword ptr [esi+0000051Ch]
  00405E34: 89 45 C0           mov         dword ptr [ebp-40h],eax
  00405E37: 8B 86 A4 9B 00 00  mov         eax,dword ptr [esi+00009BA4h]
  00405E3D: 3B C8              cmp         ecx,eax
  00405E3F: 89 4D D0           mov         dword ptr [ebp-30h],ecx
  00405E42: 73 05              jae         00405E49
  00405E44: 2B C1              sub         eax,ecx
  00405E46: 48                 dec         eax
  00405E47: EB 08              jmp         00405E51
  00405E49: 8B 86 A0 9B 00 00  mov         eax,dword ptr [esi+00009BA0h]
  00405E4F: 2B C1              sub         eax,ecx
  00405E51: 89 45 D4           mov         dword ptr [ebp-2Ch],eax
  00405E54: E9 C3 09 00 00     jmp         0040681C
  00405E59: FF 24 85 57 68 40  jmp         dword ptr [eax*4+00406857h]
            00
  00405E60: 83 7D CC 00        cmp         dword ptr [ebp-34h],0
  00405E64: 0F 84 C2 09 00 00  je          0040682C
  00405E6A: 8B 45 C8           mov         eax,dword ptr [ebp-38h]
  00405E6D: FF 4D CC           dec         dword ptr [ebp-34h]
  00405E70: 8B CB              mov         ecx,ebx
  00405E72: 0F B6 00           movzx       eax,byte ptr [eax]
  00405E75: D3 E0              shl         eax,cl
  00405E77: 09 45 C0           or          dword ptr [ebp-40h],eax
  00405E7A: FF 45 C8           inc         dword ptr [ebp-38h]
  00405E7D: 83 C3 08           add         ebx,8
  00405E80: 83 FB 03           cmp         ebx,3
  00405E83: 72 DB              jb          00405E60
  00405E85: 8B 45 C0           mov         eax,dword ptr [ebp-40h]
  00405E88: 83 EB 03           sub         ebx,3
  00405E8B: C1 6D C0 03        shr         dword ptr [ebp-40h],3
  00405E8F: 83 E0 07           and         eax,7
  00405E92: 8B C8              mov         ecx,eax
  00405E94: 80 E1 01           and         cl,1
  00405E97: F6 D9              neg         cl
  00405E99: 1B C9              sbb         ecx,ecx
  00405E9B: 83 E1 07           and         ecx,7
  00405E9E: D1 E8              shr         eax,1
  00405EA0: 83 C1 08           add         ecx,8
  00405EA3: 83 E8 00           sub         eax,0
  00405EA6: 89 8E 14 05 00 00  mov         dword ptr [esi+00000514h],ecx
  00405EAC: 0F 84 2E 01 00 00  je          00405FE0
  00405EB2: 48                 dec         eax
  00405EB3: 74 56              je          00405F0B
  00405EB5: 48                 dec         eax
  00405EB6: 74 48              je          00405F00
  00405EB8: 48                 dec         eax
  00405EB9: 0F 85 5D 09 00 00  jne         0040681C
  00405EBF: 83 CF FF           or          edi,0FFFFFFFFh
  00405EC2: C7 06 11 00 00 00  mov         dword ptr [esi],11h
  00405EC8: 8B 45 C0           mov         eax,dword ptr [ebp-40h]
  00405ECB: 8B 4D 08           mov         ecx,dword ptr [ebp+8]
  00405ECE: 89 86 1C 05 00 00  mov         dword ptr [esi+0000051Ch],eax
  00405ED4: 8B 45 CC           mov         eax,dword ptr [ebp-34h]
  00405ED7: 89 9E 18 05 00 00  mov         dword ptr [esi+00000518h],ebx
  00405EDD: 89 41 04           mov         dword ptr [ecx+4],eax
  00405EE0: 8B 45 08           mov         eax,dword ptr [ebp+8]
  00405EE3: 8B 4D C8           mov         ecx,dword ptr [ebp-38h]
  00405EE6: 50                 push        eax
  00405EE7: 89 08              mov         dword ptr [eax],ecx
  00405EE9: 8B 4D D0           mov         ecx,dword ptr [ebp-30h]
  00405EEC: 89 8E A8 9B 00 00  mov         dword ptr [esi+00009BA8h],ecx
  00405EF2: E8 A0 09 00 00     call        00406897
  00405EF7: 8B C7              mov         eax,edi
  00405EF9: 5F                 pop         edi
  00405EFA: 5E                 pop         esi
  00405EFB: 5B                 pop         ebx
  00405EFC: C9                 leave
  00405EFD: C2 04 00           ret         4
  00405F00: C7 06 0B 00 00 00  mov         dword ptr [esi],0Bh
  00405F06: E9 11 09 00 00     jmp         0040681C
  00405F0B: 80 3D F8 DA 42 00  cmp         byte ptr ds:[0042DAF8h],0
            00
  00405F12: 0F 85 A0 00 00 00  jne         00405FB8
  00405F18: 83 65 F8 00        and         dword ptr [ebp-8],0
  00405F1C: B8 78 C9 42 00     mov         eax,42C978h
  00405F21: 3D B4 CB 42 00     cmp         eax,42CBB4h
  00405F26: B1 08              mov         cl,8
  00405F28: 7E 14              jle         00405F3E
  00405F2A: 3D 78 CD 42 00     cmp         eax,42CD78h
  00405F2F: 7D 04              jge         00405F35
  00405F31: FE C1              inc         cl
  00405F33: EB 09              jmp         00405F3E
  00405F35: 3D D8 CD 42 00     cmp         eax,42CDD8h
  00405F3A: 7D 02              jge         00405F3E
  00405F3C: B1 07              mov         cl,7
  00405F3E: 0F BE C9           movsx       ecx,cl
  00405F41: 89 08              mov         dword ptr [eax],ecx
  00405F43: 83 C0 04           add         eax,4
  00405F46: 3D F8 CD 42 00     cmp         eax,42CDF8h
  00405F4B: 7C D4              jl          00405F21
  00405F4D: 8D 45 F8           lea         eax,[ebp-8]
  00405F50: BF 78 C9 42 00     mov         edi,42C978h
  00405F55: 50                 push        eax
  00405F56: 68 78 D2 42 00     push        42D278h
  00405F5B: 68 6C 93 40 00     push        40936Ch
  00405F60: 68 74 C9 42 00     push        42C974h
  00405F65: 68 C8 73 40 00     push        4073C8h
  00405F6A: 68 88 73 40 00     push        407388h
  00405F6F: 68 01 01 00 00     push        101h
  00405F74: 68 20 01 00 00     push        120h
  00405F79: 57                 push        edi
  00405F7A: E8 80 09 00 00     call        004068FF
  00405F7F: 6A 1E              push        1Eh
  00405F81: 59                 pop         ecx
  00405F82: 6A 05              push        5
  00405F84: 58                 pop         eax
  00405F85: F3 AB              rep stos    dword ptr es:[edi]
  00405F87: 8D 45 F8           lea         eax,[ebp-8]
  00405F8A: 50                 push        eax
  00405F8B: 68 78 D2 42 00     push        42D278h
  00405F90: 68 70 93 40 00     push        409370h
  00405F95: 68 70 C9 42 00     push        42C970h
  00405F9A: 68 44 74 40 00     push        407444h
  00405F9F: 68 08 74 40 00     push        407408h
  00405FA4: 6A 00              push        0
  00405FA6: 6A 1E              push        1Eh
  00405FA8: 68 78 C9 42 00     push        42C978h
  00405FAD: E8 4D 09 00 00     call        004068FF
  00405FB2: FE 05 F8 DA 42 00  inc         byte ptr ds:[0042DAF8h]
  00405FB8: A0 6C 93 40 00     mov         al,byte ptr ds:[0040936Ch]
  00405FBD: 88 46 10           mov         byte ptr [esi+10h],al
  00405FC0: A0 70 93 40 00     mov         al,byte ptr ds:[00409370h]
  00405FC5: 88 46 11           mov         byte ptr [esi+11h],al
  00405FC8: A1 74 C9 42 00     mov         eax,dword ptr ds:[0042C974h]
  00405FCD: 89 46 14           mov         dword ptr [esi+14h],eax
  00405FD0: A1 70 C9 42 00     mov         eax,dword ptr ds:[0042C970h]
  00405FD5: 89 46 18           mov         dword ptr [esi+18h],eax
  00405FD8: 83 26 00           and         dword ptr [esi],0
  00405FDB: E9 3C 08 00 00     jmp         0040681C
  00405FE0: 8B CB              mov         ecx,ebx
  00405FE2: C7 06 09 00 00 00  mov         dword ptr [esi],9
  00405FE8: 83 E1 07           and         ecx,7
  00405FEB: D3 6D C0           shr         dword ptr [ebp-40h],cl
  00405FEE: 2B D9              sub         ebx,ecx
  00405FF0: E9 27 08 00 00     jmp         0040681C
  00405FF5: 83 7D CC 00        cmp         dword ptr [ebp-34h],0
  00405FF9: 0F 84 2D 08 00 00  je          0040682C
  00405FFF: 8B 45 C8           mov         eax,dword ptr [ebp-38h]
  00406002: FF 4D CC           dec         dword ptr [ebp-34h]
  00406005: 8B CB              mov         ecx,ebx
  00406007: 0F B6 00           movzx       eax,byte ptr [eax]
  0040600A: D3 E0              shl         eax,cl
  0040600C: 09 45 C0           or          dword ptr [ebp-40h],eax
  0040600F: FF 45 C8           inc         dword ptr [ebp-38h]
  00406012: 83 C3 08           add         ebx,8
  00406015: 83 FB 10           cmp         ebx,10h
  00406018: 72 DB              jb          00405FF5
  0040601A: 8B 45 C0           mov         eax,dword ptr [ebp-40h]
  0040601D: 33 DB              xor         ebx,ebx
  0040601F: 25 FF FF 00 00     and         eax,0FFFFh
  00406024: 89 5D C0           mov         dword ptr [ebp-40h],ebx
  00406027: 3B C3              cmp         eax,ebx
  00406029: 89 46 04           mov         dword ptr [esi+4],eax
  0040602C: 0F 84 E9 00 00 00  je          0040611B
  00406032: 6A 0A              push        0Ah
  00406034: 58                 pop         eax
  00406035: E9 E7 00 00 00     jmp         00406121
  0040603A: 83 7D CC 00        cmp         dword ptr [ebp-34h],0
  0040603E: 0F 84 E8 07 00 00  je          0040682C
  00406044: 8B 45 D4           mov         eax,dword ptr [ebp-2Ch]
  00406047: 85 C0              test        eax,eax
  00406049: 0F 85 98 00 00 00  jne         004060E7
  0040604F: 8B 8E A0 9B 00 00  mov         ecx,dword ptr [esi+00009BA0h]
  00406055: 8B 55 D0           mov         edx,dword ptr [ebp-30h]
  00406058: 3B D1              cmp         edx,ecx
  0040605A: 75 29              jne         00406085
  0040605C: 8B 86 A4 9B 00 00  mov         eax,dword ptr [esi+00009BA4h]
  00406062: 8D BE A0 1B 00 00  lea         edi,[esi+00001BA0h]
  00406068: 3B C7              cmp         eax,edi
  0040606A: 74 19              je          00406085
  0040606C: 8B D7              mov         edx,edi
  0040606E: 3B D0              cmp         edx,eax
  00406070: 89 55 D0           mov         dword ptr [ebp-30h],edx
  00406073: 73 05              jae         0040607A
  00406075: 2B C2              sub         eax,edx
  00406077: 48                 dec         eax
  00406078: EB 04              jmp         0040607E
  0040607A: 2B CA              sub         ecx,edx
  0040607C: 8B C1              mov         eax,ecx
  0040607E: 85 C0              test        eax,eax
  00406080: 89 45 D4           mov         dword ptr [ebp-2Ch],eax
  00406083: 75 62              jne         004060E7
  00406085: FF 75 08           push        dword ptr [ebp+8]
  00406088: 89 96 A8 9B 00 00  mov         dword ptr [esi+00009BA8h],edx
  0040608E: E8 04 08 00 00     call        00406897
  00406093: 8B 96 A8 9B 00 00  mov         edx,dword ptr [esi+00009BA8h]
  00406099: 8B 8E A4 9B 00 00  mov         ecx,dword ptr [esi+00009BA4h]
  0040609F: 3B D1              cmp         edx,ecx
  004060A1: 89 55 D0           mov         dword ptr [ebp-30h],edx
  004060A4: 73 07              jae         004060AD
  004060A6: 8B C1              mov         eax,ecx
  004060A8: 2B C2              sub         eax,edx
  004060AA: 48                 dec         eax
  004060AB: EB 08              jmp         004060B5
  004060AD: 8B 86 A0 9B 00 00  mov         eax,dword ptr [esi+00009BA0h]
  004060B3: 2B C2              sub         eax,edx
  004060B5: 8B BE A0 9B 00 00  mov         edi,dword ptr [esi+00009BA0h]
  004060BB: 89 45 D4           mov         dword ptr [ebp-2Ch],eax
  004060BE: 3B D7              cmp         edx,edi
  004060C0: 75 1D              jne         004060DF
  004060C2: 8D 96 A0 1B 00 00  lea         edx,[esi+00001BA0h]
  004060C8: 3B D1              cmp         edx,ecx
  004060CA: 74 13              je          004060DF
  004060CC: 89 55 D0           mov         dword ptr [ebp-30h],edx
  004060CF: 73 07              jae         004060D8
  004060D1: 2B CA              sub         ecx,edx
  004060D3: 49                 dec         ecx
  004060D4: 8B C1              mov         eax,ecx
  004060D6: EB 04              jmp         004060DC
  004060D8: 2B FA              sub         edi,edx
  004060DA: 8B C7              mov         eax,edi
  004060DC: 89 45 D4           mov         dword ptr [ebp-2Ch],eax
  004060DF: 85 C0              test        eax,eax
  004060E1: 0F 84 61 07 00 00  je          00406848
  004060E7: 3B 45 CC           cmp         eax,dword ptr [ebp-34h]
  004060EA: 72 03              jb          004060EF
  004060EC: 8B 45 CC           mov         eax,dword ptr [ebp-34h]
  004060EF: 8B 4E 04           mov         ecx,dword ptr [esi+4]
  004060F2: 3B C8              cmp         ecx,eax
  004060F4: 8B F9              mov         edi,ecx
  004060F6: 72 02              jb          004060FA
  004060F8: 8B F8              mov         edi,eax
  004060FA: 57                 push        edi
  004060FB: FF 75 C8           push        dword ptr [ebp-38h]
  004060FE: FF 75 D0           push        dword ptr [ebp-30h]
  00406101: E8 9E F5 FF FF     call        004056A4
  00406106: 01 7D C8           add         dword ptr [ebp-38h],edi
  00406109: 29 7D CC           sub         dword ptr [ebp-34h],edi
  0040610C: 01 7D D0           add         dword ptr [ebp-30h],edi
  0040610F: 29 7D D4           sub         dword ptr [ebp-2Ch],edi
  00406112: 29 7E 04           sub         dword ptr [esi+4],edi
  00406115: 0F 85 01 07 00 00  jne         0040681C
  0040611B: 8B 86 14 05 00 00  mov         eax,dword ptr [esi+00000514h]
  00406121: 89 06              mov         dword ptr [esi],eax
  00406123: E9 F4 06 00 00     jmp         0040681C
  00406128: 83 7D CC 00        cmp         dword ptr [ebp-34h],0
  0040612C: 0F 84 FA 06 00 00  je          0040682C
  00406132: 8B 45 C8           mov         eax,dword ptr [ebp-38h]
  00406135: FF 4D CC           dec         dword ptr [ebp-34h]
  00406138: 8B CB              mov         ecx,ebx
  0040613A: 0F B6 00           movzx       eax,byte ptr [eax]
  0040613D: D3 E0              shl         eax,cl
  0040613F: 09 45 C0           or          dword ptr [ebp-40h],eax
  00406142: FF 45 C8           inc         dword ptr [ebp-38h]
  00406145: 83 C3 08           add         ebx,8
  00406148: 83 FB 0E           cmp         ebx,0Eh
  0040614B: 72 DB              jb          00406128
  0040614D: 8B 45 C0           mov         eax,dword ptr [ebp-40h]
  00406150: 25 FF 3F 00 00     and         eax,3FFFh
  00406155: 8B C8              mov         ecx,eax
  00406157: 89 46 04           mov         dword ptr [esi+4],eax
  0040615A: 83 E1 1F           and         ecx,1Fh
  0040615D: 80 F9 1D           cmp         cl,1Dh
  00406160: 0F 87 59 FD FF FF  ja          00405EBF
  00406166: 25 E0 03 00 00     and         eax,3E0h
  0040616B: 3D A0 03 00 00     cmp         eax,3A0h
  00406170: 0F 87 49 FD FF FF  ja          00405EBF
  00406176: C1 6D C0 0E        shr         dword ptr [ebp-40h],0Eh
  0040617A: 83 EB 0E           sub         ebx,0Eh
  0040617D: 83 66 08 00        and         dword ptr [esi+8],0
  00406181: C7 06 0C 00 00 00  mov         dword ptr [esi],0Ch
  00406187: 8B 46 04           mov         eax,dword ptr [esi+4]
  0040618A: C1 E8 0A           shr         eax,0Ah
  0040618D: 83 C0 04           add         eax,4
  00406190: 39 46 08           cmp         dword ptr [esi+8],eax
  00406193: 73 69              jae         004061FE
  00406195: EB 20              jmp         004061B7
  00406197: 83 7D CC 00        cmp         dword ptr [ebp-34h],0
  0040619B: 0F 84 8B 06 00 00  je          0040682C
  004061A1: 8B 45 C8           mov         eax,dword ptr [ebp-38h]
  004061A4: FF 4D CC           dec         dword ptr [ebp-34h]
  004061A7: 8B CB              mov         ecx,ebx
  004061A9: 0F B6 00           movzx       eax,byte ptr [eax]
  004061AC: D3 E0              shl         eax,cl
  004061AE: 09 45 C0           or          dword ptr [ebp-40h],eax
  004061B1: FF 45 C8           inc         dword ptr [ebp-38h]
  004061B4: 83 C3 08           add         ebx,8
  004061B7: 83 FB 03           cmp         ebx,3
  004061BA: 72 DB              jb          00406197
  004061BC: 8B 4E 08           mov         ecx,dword ptr [esi+8]
  004061BF: 8B 45 C0           mov         eax,dword ptr [ebp-40h]
  004061C2: 83 E0 07           and         eax,7
  004061C5: 83 EB 03           sub         ebx,3
  004061C8: 0F BE 89 74 73 40  movsx       ecx,byte ptr [ecx+00407374h]
            00
  004061CF: C1 6D C0 03        shr         dword ptr [ebp-40h],3
  004061D3: 89 44 8E 0C        mov         dword ptr [esi+ecx*4+0Ch],eax
  004061D7: 8B 4E 04           mov         ecx,dword ptr [esi+4]
  004061DA: FF 46 08           inc         dword ptr [esi+8]
  004061DD: 8B 46 08           mov         eax,dword ptr [esi+8]
  004061E0: C1 E9 0A           shr         ecx,0Ah
  004061E3: 83 C1 04           add         ecx,4
  004061E6: 3B C1              cmp         eax,ecx
  004061E8: 72 CD              jb          004061B7
  004061EA: EB 12              jmp         004061FE
  004061EC: 8B 46 08           mov         eax,dword ptr [esi+8]
  004061EF: 0F BE 80 74 73 40  movsx       eax,byte ptr [eax+00407374h]
            00
  004061F6: 83 64 86 0C 00     and         dword ptr [esi+eax*4+0Ch],0
  004061FB: FF 46 08           inc         dword ptr [esi+8]
  004061FE: 83 7E 08 13        cmp         dword ptr [esi+8],13h
  00406202: 72 E8              jb          004061EC
  00406204: 8D 4D F8           lea         ecx,[ebp-8]
  00406207: 8D BE 0C 05 00 00  lea         edi,[esi+0000050Ch]
  0040620D: 51                 push        ecx
  0040620E: 8D 8E 20 05 00 00  lea         ecx,[esi+00000520h]
  00406214: 51                 push        ecx
  00406215: 8D 8E 10 05 00 00  lea         ecx,[esi+00000510h]
  0040621B: 33 C0              xor         eax,eax
  0040621D: 57                 push        edi
  0040621E: 51                 push        ecx
  0040621F: 50                 push        eax
  00406220: 89 45 F8           mov         dword ptr [ebp-8],eax
  00406223: 50                 push        eax
  00406224: 6A 13              push        13h
  00406226: 8D 46 0C           lea         eax,[esi+0Ch]
  00406229: 6A 13              push        13h
  0040622B: 50                 push        eax
  0040622C: C7 07 07 00 00 00  mov         dword ptr [edi],7
  00406232: E8 C8 06 00 00     call        004068FF
  00406237: 85 C0              test        eax,eax
  00406239: 75 12              jne         0040624D
  0040623B: 39 07              cmp         dword ptr [edi],eax
  0040623D: 74 0E              je          0040624D
  0040623F: 21 46 08           and         dword ptr [esi+8],eax
  00406242: C7 06 0D 00 00 00  mov         dword ptr [esi],0Dh
  00406248: E9 1D 01 00 00     jmp         0040636A
  0040624D: C7 06 11 00 00 00  mov         dword ptr [esi],11h
  00406253: E9 C4 05 00 00     jmp         0040681C
  00406258: 8B 86 0C 05 00 00  mov         eax,dword ptr [esi+0000050Ch]
  0040625E: EB 20              jmp         00406280
  00406260: 83 7D CC 00        cmp         dword ptr [ebp-34h],0
  00406264: 0F 84 C2 05 00 00  je          0040682C
  0040626A: 8B 4D C8           mov         ecx,dword ptr [ebp-38h]
  0040626D: FF 4D CC           dec         dword ptr [ebp-34h]
  00406270: 0F B6 11           movzx       edx,byte ptr [ecx]
  00406273: 8B CB              mov         ecx,ebx
  00406275: D3 E2              shl         edx,cl
  00406277: 09 55 C0           or          dword ptr [ebp-40h],edx
  0040627A: FF 45 C8           inc         dword ptr [ebp-38h]
  0040627D: 83 C3 08           add         ebx,8
  00406280: 3B D8              cmp         ebx,eax
  00406282: 72 DC              jb          00406260
  00406284: 0F B7 04 45 48 93  movzx       eax,word ptr [eax*2+00409348h]
            40 00
  0040628C: 23 45 C0           and         eax,dword ptr [ebp-40h]
  0040628F: 8B 8E 10 05 00 00  mov         ecx,dword ptr [esi+00000510h]
  00406295: 8D 04 81           lea         eax,[ecx+eax*4]
  00406298: 0F B6 50 01        movzx       edx,byte ptr [eax+1]
  0040629C: 0F B7 40 02        movzx       eax,word ptr [eax+2]
  004062A0: 83 F8 10           cmp         eax,10h
  004062A3: 89 45 EC           mov         dword ptr [ebp-14h],eax
  004062A6: 73 16              jae         004062BE
  004062A8: 8B CA              mov         ecx,edx
  004062AA: 2B DA              sub         ebx,edx
  004062AC: D3 6D C0           shr         dword ptr [ebp-40h],cl
  004062AF: 8B 4E 08           mov         ecx,dword ptr [esi+8]
  004062B2: 89 44 8E 0C        mov         dword ptr [esi+ecx*4+0Ch],eax
  004062B6: FF 46 08           inc         dword ptr [esi+8]
  004062B9: E9 AC 00 00 00     jmp         0040636A
  004062BE: 83 F8 12           cmp         eax,12h
  004062C1: 75 0C              jne         004062CF
  004062C3: 6A 07              push        7
  004062C5: C7 45 F8 0B 00 00  mov         dword ptr [ebp-8],0Bh
            00
  004062CC: 58                 pop         eax
  004062CD: EB 2C              jmp         004062FB
  004062CF: 83 C0 F2           add         eax,0FFFFFFF2h
  004062D2: C7 45 F8 03 00 00  mov         dword ptr [ebp-8],3
            00
  004062D9: EB 20              jmp         004062FB
  004062DB: 83 7D CC 00        cmp         dword ptr [ebp-34h],0
  004062DF: 0F 84 47 05 00 00  je          0040682C
  004062E5: 8B 4D C8           mov         ecx,dword ptr [ebp-38h]
  004062E8: FF 4D CC           dec         dword ptr [ebp-34h]
  004062EB: 0F B6 39           movzx       edi,byte ptr [ecx]
  004062EE: 8B CB              mov         ecx,ebx
  004062F0: D3 E7              shl         edi,cl
  004062F2: 09 7D C0           or          dword ptr [ebp-40h],edi
  004062F5: FF 45 C8           inc         dword ptr [ebp-38h]
  004062F8: 83 C3 08           add         ebx,8
  004062FB: 8D 0C 10           lea         ecx,[eax+edx]
  004062FE: 3B D9              cmp         ebx,ecx
  00406300: 72 D9              jb          004062DB
  00406302: 8B CA              mov         ecx,edx
  00406304: 2B DA              sub         ebx,edx
  00406306: D3 6D C0           shr         dword ptr [ebp-40h],cl
  00406309: 0F B7 0C 45 48 93  movzx       ecx,word ptr [eax*2+00409348h]
            40 00
  00406311: 23 4D C0           and         ecx,dword ptr [ebp-40h]
  00406314: 8B 55 F8           mov         edx,dword ptr [ebp-8]
  00406317: 2B D8              sub         ebx,eax
  00406319: 03 D1              add         edx,ecx
  0040631B: 8B C8              mov         ecx,eax
  0040631D: 8B 46 04           mov         eax,dword ptr [esi+4]
  00406320: D3 6D C0           shr         dword ptr [ebp-40h],cl
  00406323: 8B 4E 08           mov         ecx,dword ptr [esi+8]
  00406326: 8B F8              mov         edi,eax
  00406328: C1 EF 05           shr         edi,5
  0040632B: 83 E7 1F           and         edi,1Fh
  0040632E: 83 E0 1F           and         eax,1Fh
  00406331: 8D 84 07 02 01 00  lea         eax,[edi+eax+00000102h]
            00
  00406338: 8D 3C 0A           lea         edi,[edx+ecx]
  0040633B: 3B F8              cmp         edi,eax
  0040633D: 0F 87 7C FB FF FF  ja          00405EBF
  00406343: 83 7D EC 10        cmp         dword ptr [ebp-14h],10h
  00406347: 75 0F              jne         00406358
  00406349: 83 F9 01           cmp         ecx,1
  0040634C: 0F 82 6D FB FF FF  jb          00405EBF
  00406352: 8B 7C 8E 08        mov         edi,dword ptr [esi+ecx*4+8]
  00406356: EB 02              jmp         0040635A
  00406358: 33 FF              xor         edi,edi
  0040635A: 8D 44 8E 0C        lea         eax,[esi+ecx*4+0Ch]
  0040635E: 89 38              mov         dword ptr [eax],edi
  00406360: 41                 inc         ecx
  00406361: 83 C0 04           add         eax,4
  00406364: 4A                 dec         edx
  00406365: 75 F7              jne         0040635E
  00406367: 89 4E 08           mov         dword ptr [esi+8],ecx
  0040636A: 8B 46 04           mov         eax,dword ptr [esi+4]
  0040636D: 8B 4E 08           mov         ecx,dword ptr [esi+8]
  00406370: 8B D0              mov         edx,eax
  00406372: 83 E0 1F           and         eax,1Fh
  00406375: C1 EA 05           shr         edx,5
  00406378: 83 E2 1F           and         edx,1Fh
  0040637B: 8D 84 02 02 01 00  lea         eax,[edx+eax+00000102h]
            00
  00406382: 3B C8              cmp         ecx,eax
  00406384: 0F 82 CE FE FF FF  jb          00406258
  0040638A: 8B 46 04           mov         eax,dword ptr [esi+4]
  0040638D: 83 A6 10 05 00 00  and         dword ptr [esi+00000510h],0
            00
  00406394: 83 65 F4 00        and         dword ptr [ebp-0Ch],0
  00406398: 8B F8              mov         edi,eax
  0040639A: C1 E8 05           shr         eax,5
  0040639D: 83 E7 1F           and         edi,1Fh
  004063A0: B9 01 01 00 00     mov         ecx,101h
  004063A5: 83 E0 1F           and         eax,1Fh
  004063A8: 03 F9              add         edi,ecx
  004063AA: 40                 inc         eax
  004063AB: 8D 55 F4           lea         edx,[ebp-0Ch]
  004063AE: 89 45 EC           mov         dword ptr [ebp-14h],eax
  004063B1: 8D 86 20 05 00 00  lea         eax,[esi+00000520h]
  004063B7: 52                 push        edx
  004063B8: 50                 push        eax
  004063B9: 8D 45 FC           lea         eax,[ebp-4]
  004063BC: C7 45 FC 09 00 00  mov         dword ptr [ebp-4],9
            00
  004063C3: 50                 push        eax
  004063C4: 8D 45 E8           lea         eax,[ebp-18h]
  004063C7: 50                 push        eax
  004063C8: 68 C8 73 40 00     push        4073C8h
  004063CD: 68 88 73 40 00     push        407388h
  004063D2: 51                 push        ecx
  004063D3: 8D 46 0C           lea         eax,[esi+0Ch]
  004063D6: 57                 push        edi
  004063D7: 50                 push        eax
  004063D8: C7 45 F0 06 00 00  mov         dword ptr [ebp-10h],6
            00
  004063DF: E8 1B 05 00 00     call        004068FF
  004063E4: 83 7D FC 00        cmp         dword ptr [ebp-4],0
  004063E8: 75 03              jne         004063ED
  004063EA: 83 C8 FF           or          eax,0FFFFFFFFh
  004063ED: 85 C0              test        eax,eax
  004063EF: 0F 85 CA FA FF FF  jne         00405EBF
  004063F5: 8D 45 F4           lea         eax,[ebp-0Ch]
  004063F8: 50                 push        eax
  004063F9: 8D 86 20 05 00 00  lea         eax,[esi+00000520h]
  004063FF: 50                 push        eax
  00406400: 8D 45 F0           lea         eax,[ebp-10h]
  00406403: 50                 push        eax
  00406404: 8D 45 E4           lea         eax,[ebp-1Ch]
  00406407: 50                 push        eax
  00406408: 68 44 74 40 00     push        407444h
  0040640D: 68 08 74 40 00     push        407408h
  00406412: 6A 00              push        0
  00406414: FF 75 EC           push        dword ptr [ebp-14h]
  00406417: 8D 44 BE 0C        lea         eax,[esi+edi*4+0Ch]
  0040641B: 50                 push        eax
  0040641C: E8 DE 04 00 00     call        004068FF
  00406421: 85 C0              test        eax,eax
  00406423: 0F 85 96 FA FF FF  jne         00405EBF
  00406429: 8B 45 F0           mov         eax,dword ptr [ebp-10h]
  0040642C: 85 C0              test        eax,eax
  0040642E: 75 0C              jne         0040643C
  00406430: 81 FF 01 01 00 00  cmp         edi,101h
  00406436: 0F 8F 83 FA FF FF  jg          00405EBF
  0040643C: 8A 4D FC           mov         cl,byte ptr [ebp-4]
  0040643F: 83 26 00           and         dword ptr [esi],0
  00406442: 88 46 11           mov         byte ptr [esi+11h],al
  00406445: 8B 45 E8           mov         eax,dword ptr [ebp-18h]
  00406448: 89 46 14           mov         dword ptr [esi+14h],eax
  0040644B: 8B 45 E4           mov         eax,dword ptr [ebp-1Ch]
  0040644E: 88 4E 10           mov         byte ptr [esi+10h],cl
  00406451: 89 46 18           mov         dword ptr [esi+18h],eax
  00406454: 0F B6 46 10        movzx       eax,byte ptr [esi+10h]
  00406458: 89 46 0C           mov         dword ptr [esi+0Ch],eax
  0040645B: 8B 46 14           mov         eax,dword ptr [esi+14h]
  0040645E: 89 46 08           mov         dword ptr [esi+8],eax
  00406461: C7 06 01 00 00 00  mov         dword ptr [esi],1
  00406467: 8B 46 0C           mov         eax,dword ptr [esi+0Ch]
  0040646A: EB 20              jmp         0040648C
  0040646C: 83 7D CC 00        cmp         dword ptr [ebp-34h],0
  00406470: 0F 84 B6 03 00 00  je          0040682C
  00406476: 8B 4D C8           mov         ecx,dword ptr [ebp-38h]
  00406479: FF 4D CC           dec         dword ptr [ebp-34h]
  0040647C: 0F B6 11           movzx       edx,byte ptr [ecx]
  0040647F: 8B CB              mov         ecx,ebx
  00406481: D3 E2              shl         edx,cl
  00406483: 09 55 C0           or          dword ptr [ebp-40h],edx
  00406486: FF 45 C8           inc         dword ptr [ebp-38h]
  00406489: 83 C3 08           add         ebx,8
  0040648C: 3B D8              cmp         ebx,eax
  0040648E: 72 DC              jb          0040646C
  00406490: 0F B7 04 45 48 93  movzx       eax,word ptr [eax*2+00409348h]
            40 00
  00406498: 23 45 C0           and         eax,dword ptr [ebp-40h]
  0040649B: 8B 4E 08           mov         ecx,dword ptr [esi+8]
  0040649E: 8D 04 81           lea         eax,[ecx+eax*4]
  004064A1: 0F B6 48 01        movzx       ecx,byte ptr [eax+1]
  004064A5: D3 6D C0           shr         dword ptr [ebp-40h],cl
  004064A8: 2B D9              sub         ebx,ecx
  004064AA: 0F B6 08           movzx       ecx,byte ptr [eax]
  004064AD: 85 C9              test        ecx,ecx
  004064AF: 75 12              jne         004064C3
  004064B1: 0F B7 40 02        movzx       eax,word ptr [eax+2]
  004064B5: 89 46 08           mov         dword ptr [esi+8],eax
  004064B8: C7 06 06 00 00 00  mov         dword ptr [esi],6
  004064BE: E9 59 03 00 00     jmp         0040681C
  004064C3: F6 C1 10           test        cl,10h
  004064C6: 74 18              je          004064E0
  004064C8: 83 E1 0F           and         ecx,0Fh
  004064CB: 89 4E 08           mov         dword ptr [esi+8],ecx
  004064CE: 0F B7 40 02        movzx       eax,word ptr [eax+2]
  004064D2: 89 46 04           mov         dword ptr [esi+4],eax
  004064D5: C7 06 02 00 00 00  mov         dword ptr [esi],2
  004064DB: E9 3C 03 00 00     jmp         0040681C
  004064E0: F6 C1 40           test        cl,40h
  004064E3: 0F 84 D1 00 00 00  je          004065BA
  004064E9: F6 C1 20           test        cl,20h
  004064EC: 0F 84 CD F9 FF FF  je          00405EBF
  004064F2: C7 06 07 00 00 00  mov         dword ptr [esi],7
  004064F8: E9 1F 03 00 00     jmp         0040681C
  004064FD: 8B 46 08           mov         eax,dword ptr [esi+8]
  00406500: EB 20              jmp         00406522
  00406502: 83 7D CC 00        cmp         dword ptr [ebp-34h],0
  00406506: 0F 84 20 03 00 00  je          0040682C
  0040650C: 8B 4D C8           mov         ecx,dword ptr [ebp-38h]
  0040650F: FF 4D CC           dec         dword ptr [ebp-34h]
  00406512: 0F B6 11           movzx       edx,byte ptr [ecx]
  00406515: 8B CB              mov         ecx,ebx
  00406517: D3 E2              shl         edx,cl
  00406519: 09 55 C0           or          dword ptr [ebp-40h],edx
  0040651C: FF 45 C8           inc         dword ptr [ebp-38h]
  0040651F: 83 C3 08           add         ebx,8
  00406522: 3B D8              cmp         ebx,eax
  00406524: 72 DC              jb          00406502
  00406526: 0F B7 0C 45 48 93  movzx       ecx,word ptr [eax*2+00409348h]
            40 00
  0040652E: 23 4D C0           and         ecx,dword ptr [ebp-40h]
  00406531: 01 4E 04           add         dword ptr [esi+4],ecx
  00406534: 8B C8              mov         ecx,eax
  00406536: D3 6D C0           shr         dword ptr [ebp-40h],cl
  00406539: 2B D8              sub         ebx,eax
  0040653B: 0F B6 46 11        movzx       eax,byte ptr [esi+11h]
  0040653F: 89 46 0C           mov         dword ptr [esi+0Ch],eax
  00406542: 8B 46 18           mov         eax,dword ptr [esi+18h]
  00406545: 89 46 08           mov         dword ptr [esi+8],eax
  00406548: C7 06 03 00 00 00  mov         dword ptr [esi],3
  0040654E: 8B 46 0C           mov         eax,dword ptr [esi+0Ch]
  00406551: EB 20              jmp         00406573
  00406553: 83 7D CC 00        cmp         dword ptr [ebp-34h],0
  00406557: 0F 84 CF 02 00 00  je          0040682C
  0040655D: 8B 4D C8           mov         ecx,dword ptr [ebp-38h]
  00406560: FF 4D CC           dec         dword ptr [ebp-34h]
  00406563: 0F B6 11           movzx       edx,byte ptr [ecx]
  00406566: 8B CB              mov         ecx,ebx
  00406568: D3 E2              shl         edx,cl
  0040656A: 09 55 C0           or          dword ptr [ebp-40h],edx
  0040656D: FF 45 C8           inc         dword ptr [ebp-38h]
  00406570: 83 C3 08           add         ebx,8
  00406573: 3B D8              cmp         ebx,eax
  00406575: 72 DC              jb          00406553
  00406577: 0F B7 04 45 48 93  movzx       eax,word ptr [eax*2+00409348h]
            40 00
  0040657F: 23 45 C0           and         eax,dword ptr [ebp-40h]
  00406582: 8B 4E 08           mov         ecx,dword ptr [esi+8]
  00406585: 8D 04 81           lea         eax,[ecx+eax*4]
  00406588: 0F B6 48 01        movzx       ecx,byte ptr [eax+1]
  0040658C: D3 6D C0           shr         dword ptr [ebp-40h],cl
  0040658F: 2B D9              sub         ebx,ecx
  00406591: 0F B6 08           movzx       ecx,byte ptr [eax]
  00406594: F6 C1 10           test        cl,10h
  00406597: 74 18              je          004065B1
  00406599: 83 E1 0F           and         ecx,0Fh
  0040659C: 89 4E 08           mov         dword ptr [esi+8],ecx
  0040659F: 0F B7 40 02        movzx       eax,word ptr [eax+2]
  004065A3: 89 46 0C           mov         dword ptr [esi+0Ch],eax
  004065A6: C7 06 04 00 00 00  mov         dword ptr [esi],4
  004065AC: E9 6B 02 00 00     jmp         0040681C
  004065B1: F6 C1 40           test        cl,40h
  004065B4: 0F 85 05 F9 FF FF  jne         00405EBF
  004065BA: 89 4E 0C           mov         dword ptr [esi+0Ch],ecx
  004065BD: 0F B7 48 02        movzx       ecx,word ptr [eax+2]
  004065C1: 8D 04 88           lea         eax,[eax+ecx*4]
  004065C4: 89 46 08           mov         dword ptr [esi+8],eax
  004065C7: E9 50 02 00 00     jmp         0040681C
  004065CC: 8B 46 08           mov         eax,dword ptr [esi+8]
  004065CF: EB 20              jmp         004065F1
  004065D1: 83 7D CC 00        cmp         dword ptr [ebp-34h],0
  004065D5: 0F 84 51 02 00 00  je          0040682C
  004065DB: 8B 4D C8           mov         ecx,dword ptr [ebp-38h]
  004065DE: FF 4D CC           dec         dword ptr [ebp-34h]
  004065E1: 0F B6 11           movzx       edx,byte ptr [ecx]
  004065E4: 8B CB              mov         ecx,ebx
  004065E6: D3 E2              shl         edx,cl
  004065E8: 09 55 C0           or          dword ptr [ebp-40h],edx
  004065EB: FF 45 C8           inc         dword ptr [ebp-38h]
  004065EE: 83 C3 08           add         ebx,8
  004065F1: 3B D8              cmp         ebx,eax
  004065F3: 72 DC              jb          004065D1
  004065F5: 0F B7 0C 45 48 93  movzx       ecx,word ptr [eax*2+00409348h]
            40 00
  004065FD: 23 4D C0           and         ecx,dword ptr [ebp-40h]
  00406600: 01 4E 0C           add         dword ptr [esi+0Ch],ecx
  00406603: 8B C8              mov         ecx,eax
  00406605: D3 6D C0           shr         dword ptr [ebp-40h],cl
  00406608: 2B D8              sub         ebx,eax
  0040660A: C7 06 05 00 00 00  mov         dword ptr [esi],5
  00406610: 8B 45 D0           mov         eax,dword ptr [ebp-30h]
  00406613: 8B 56 0C           mov         edx,dword ptr [esi+0Ch]
  00406616: 8B C8              mov         ecx,eax
  00406618: 2B CE              sub         ecx,esi
  0040661A: 81 E9 A0 1B 00 00  sub         ecx,1BA0h
  00406620: 3B CA              cmp         ecx,edx
  00406622: 73 13              jae         00406637
  00406624: 8B 8E A0 9B 00 00  mov         ecx,dword ptr [esi+00009BA0h]
  0040662A: 2B CA              sub         ecx,edx
  0040662C: 2B CE              sub         ecx,esi
  0040662E: 8D 8C 01 60 E4 FF  lea         ecx,[ecx+eax+FFFFE460h]
            FF
  00406635: EB 04              jmp         0040663B
  00406637: 8B C8              mov         ecx,eax
  00406639: 2B CA              sub         ecx,edx
  0040663B: 83 7E 04 00        cmp         dword ptr [esi+4],0
  0040663F: 89 4D E0           mov         dword ptr [ebp-20h],ecx
  00406642: 0F 84 90 F9 FF FF  je          00405FD8
  00406648: 8B 7D D4           mov         edi,dword ptr [ebp-2Ch]
  0040664B: 85 FF              test        edi,edi
  0040664D: 0F 85 91 00 00 00  jne         004066E4
  00406653: 8B BE A0 9B 00 00  mov         edi,dword ptr [esi+00009BA0h]
  00406659: 3B C7              cmp         eax,edi
  0040665B: 75 23              jne         00406680
  0040665D: 8B 8E A4 9B 00 00  mov         ecx,dword ptr [esi+00009BA4h]
  00406663: 8D 96 A0 1B 00 00  lea         edx,[esi+00001BA0h]
  00406669: 3B CA              cmp         ecx,edx
  0040666B: 74 13              je          00406680
  0040666D: 8B C2              mov         eax,edx
  0040666F: 3B C1              cmp         eax,ecx
  00406671: 73 07              jae         0040667A
  00406673: 2B C8              sub         ecx,eax
  00406675: 49                 dec         ecx
  00406676: 8B F9              mov         edi,ecx
  00406678: EB 02              jmp         0040667C
  0040667A: 2B F8              sub         edi,eax
  0040667C: 85 FF              test        edi,edi
  0040667E: 75 64              jne         004066E4
  00406680: FF 75 08           push        dword ptr [ebp+8]
  00406683: 89 86 A8 9B 00 00  mov         dword ptr [esi+00009BA8h],eax
  00406689: E8 09 02 00 00     call        00406897
  0040668E: 8B 86 A8 9B 00 00  mov         eax,dword ptr [esi+00009BA8h]
  00406694: 8B 8E A4 9B 00 00  mov         ecx,dword ptr [esi+00009BA4h]
  0040669A: 3B C1              cmp         eax,ecx
  0040669C: 89 45 D0           mov         dword ptr [ebp-30h],eax
  0040669F: 73 07              jae         004066A8
  004066A1: 8B F9              mov         edi,ecx
  004066A3: 2B F8              sub         edi,eax
  004066A5: 4F                 dec         edi
  004066A6: EB 08              jmp         004066B0
  004066A8: 8B BE A0 9B 00 00  mov         edi,dword ptr [esi+00009BA0h]
  004066AE: 2B F8              sub         edi,eax
  004066B0: 8B 96 A0 9B 00 00  mov         edx,dword ptr [esi+00009BA0h]
  004066B6: 3B C2              cmp         eax,edx
  004066B8: 89 55 F8           mov         dword ptr [ebp-8],edx
  004066BB: 75 1F              jne         004066DC
  004066BD: 8D 96 A0 1B 00 00  lea         edx,[esi+00001BA0h]
  004066C3: 3B CA              cmp         ecx,edx
  004066C5: 74 15              je          004066DC
  004066C7: 8B C2              mov         eax,edx
  004066C9: 3B C1              cmp         eax,ecx
  004066CB: 89 45 D0           mov         dword ptr [ebp-30h],eax
  004066CE: 73 07              jae         004066D7
  004066D0: 2B C8              sub         ecx,eax
  004066D2: 49                 dec         ecx
  004066D3: 8B F9              mov         edi,ecx
  004066D5: EB 05              jmp         004066DC
  004066D7: 8B 7D F8           mov         edi,dword ptr [ebp-8]
  004066DA: 2B F8              sub         edi,eax
  004066DC: 85 FF              test        edi,edi
  004066DE: 0F 84 64 01 00 00  je          00406848
  004066E4: 8B 4D E0           mov         ecx,dword ptr [ebp-20h]
  004066E7: 8A 11              mov         dl,byte ptr [ecx]
  004066E9: 88 10              mov         byte ptr [eax],dl
  004066EB: 40                 inc         eax
  004066EC: 41                 inc         ecx
  004066ED: 4F                 dec         edi
  004066EE: 3B 8E A0 9B 00 00  cmp         ecx,dword ptr [esi+00009BA0h]
  004066F4: 89 45 D0           mov         dword ptr [ebp-30h],eax
  004066F7: 89 4D E0           mov         dword ptr [ebp-20h],ecx
  004066FA: 89 7D D4           mov         dword ptr [ebp-2Ch],edi
  004066FD: 75 09              jne         00406708
  004066FF: 8D 8E A0 1B 00 00  lea         ecx,[esi+00001BA0h]
  00406705: 89 4D E0           mov         dword ptr [ebp-20h],ecx
  00406708: FF 4E 04           dec         dword ptr [esi+4]
  0040670B: 0F 85 3A FF FF FF  jne         0040664B
  00406711: E9 C2 F8 FF FF     jmp         00405FD8
  00406716: 8B 45 D4           mov         eax,dword ptr [ebp-2Ch]
  00406719: 8B 7D D0           mov         edi,dword ptr [ebp-30h]
  0040671C: 85 C0              test        eax,eax
  0040671E: 0F 85 91 00 00 00  jne         004067B5
  00406724: 8B 8E A0 9B 00 00  mov         ecx,dword ptr [esi+00009BA0h]
  0040672A: 3B F9              cmp         edi,ecx
  0040672C: 75 23              jne         00406751
  0040672E: 8B 86 A4 9B 00 00  mov         eax,dword ptr [esi+00009BA4h]
  00406734: 8D 96 A0 1B 00 00  lea         edx,[esi+00001BA0h]
  0040673A: 3B C2              cmp         eax,edx
  0040673C: 74 13              je          00406751
  0040673E: 8B FA              mov         edi,edx
  00406740: 3B F8              cmp         edi,eax
  00406742: 73 05              jae         00406749
  00406744: 2B C7              sub         eax,edi
  00406746: 48                 dec         eax
  00406747: EB 04              jmp         0040674D
  00406749: 2B CF              sub         ecx,edi
  0040674B: 8B C1              mov         eax,ecx
  0040674D: 85 C0              test        eax,eax
  0040674F: 75 64              jne         004067B5
  00406751: FF 75 08           push        dword ptr [ebp+8]
  00406754: 89 BE A8 9B 00 00  mov         dword ptr [esi+00009BA8h],edi
  0040675A: E8 38 01 00 00     call        00406897
  0040675F: 8B BE A8 9B 00 00  mov         edi,dword ptr [esi+00009BA8h]
  00406765: 8B 8E A4 9B 00 00  mov         ecx,dword ptr [esi+00009BA4h]
  0040676B: 3B F9              cmp         edi,ecx
  0040676D: 89 7D D0           mov         dword ptr [ebp-30h],edi
  00406770: 73 07              jae         00406779
  00406772: 8B C1              mov         eax,ecx
  00406774: 2B C7              sub         eax,edi
  00406776: 48                 dec         eax
  00406777: EB 08              jmp         00406781
  00406779: 8B 86 A0 9B 00 00  mov         eax,dword ptr [esi+00009BA0h]
  0040677F: 2B C7              sub         eax,edi
  00406781: 8B 96 A0 9B 00 00  mov         edx,dword ptr [esi+00009BA0h]
  00406787: 3B FA              cmp         edi,edx
  00406789: 89 55 F8           mov         dword ptr [ebp-8],edx
  0040678C: 75 1F              jne         004067AD
  0040678E: 8D 96 A0 1B 00 00  lea         edx,[esi+00001BA0h]
  00406794: 3B CA              cmp         ecx,edx
  00406796: 74 15              je          004067AD
  00406798: 8B FA              mov         edi,edx
  0040679A: 3B F9              cmp         edi,ecx
  0040679C: 89 7D D0           mov         dword ptr [ebp-30h],edi
  0040679F: 73 07              jae         004067A8
  004067A1: 2B CF              sub         ecx,edi
  004067A3: 49                 dec         ecx
  004067A4: 8B C1              mov         eax,ecx
  004067A6: EB 05              jmp         004067AD
  004067A8: 8B 45 F8           mov         eax,dword ptr [ebp-8]
  004067AB: 2B C7              sub         eax,edi
  004067AD: 85 C0              test        eax,eax
  004067AF: 0F 84 93 00 00 00  je          00406848
  004067B5: 8A 4E 08           mov         cl,byte ptr [esi+8]
  004067B8: 88 0F              mov         byte ptr [edi],cl
  004067BA: 47                 inc         edi
  004067BB: 48                 dec         eax
  004067BC: 89 7D D0           mov         dword ptr [ebp-30h],edi
  004067BF: 89 45 D4           mov         dword ptr [ebp-2Ch],eax
  004067C2: E9 11 F8 FF FF     jmp         00405FD8
  004067C7: 83 FB 07           cmp         ebx,7
  004067CA: 76 09              jbe         004067D5
  004067CC: 83 EB 08           sub         ebx,8
  004067CF: FF 45 CC           inc         dword ptr [ebp-34h]
  004067D2: FF 4D C8           dec         dword ptr [ebp-38h]
  004067D5: 8B 45 D0           mov         eax,dword ptr [ebp-30h]
  004067D8: FF 75 08           push        dword ptr [ebp+8]
  004067DB: 89 86 A8 9B 00 00  mov         dword ptr [esi+00009BA8h],eax
  004067E1: E8 B1 00 00 00     call        00406897
  004067E6: 8B 8E A8 9B 00 00  mov         ecx,dword ptr [esi+00009BA8h]
  004067EC: 8B 96 A4 9B 00 00  mov         edx,dword ptr [esi+00009BA4h]
  004067F2: 3B CA              cmp         ecx,edx
  004067F4: 89 4D D0           mov         dword ptr [ebp-30h],ecx
  004067F7: 73 07              jae         00406800
  004067F9: 8B C2              mov         eax,edx
  004067FB: 2B C1              sub         eax,ecx
  004067FD: 48                 dec         eax
  004067FE: EB 08              jmp         00406808
  00406800: 8B 86 A0 9B 00 00  mov         eax,dword ptr [esi+00009BA0h]
  00406806: 2B C1              sub         eax,ecx
  00406808: 3B CA              cmp         ecx,edx
  0040680A: 89 45 D4           mov         dword ptr [ebp-2Ch],eax
  0040680D: 75 39              jne         00406848
  0040680F: 8B 86 14 05 00 00  mov         eax,dword ptr [esi+00000514h]
  00406815: 83 F8 08           cmp         eax,8
  00406818: 89 06              mov         dword ptr [esi],eax
  0040681A: 75 33              jne         0040684F
  0040681C: 8B 06              mov         eax,dword ptr [esi]
  0040681E: 83 F8 0F           cmp         eax,0Fh
  00406821: 0F 86 32 F6 FF FF  jbe         00405E59
  00406827: E9 93 F6 FF FF     jmp         00405EBF
  0040682C: 8B 45 C0           mov         eax,dword ptr [ebp-40h]
  0040682F: 33 FF              xor         edi,edi
  00406831: 89 86 1C 05 00 00  mov         dword ptr [esi+0000051Ch],eax
  00406837: 8B 45 08           mov         eax,dword ptr [ebp+8]
  0040683A: 89 9E 18 05 00 00  mov         dword ptr [esi+00000518h],ebx
  00406840: 89 78 04           mov         dword ptr [eax+4],edi
  00406843: E9 98 F6 FF FF     jmp         00405EE0
  00406848: 33 FF              xor         edi,edi
  0040684A: E9 79 F6 FF FF     jmp         00405EC8
  0040684F: 33 FF              xor         edi,edi
  00406851: 47                 inc         edi
  00406852: E9 71 F6 FF FF     jmp         00405EC8
  00406857: 54                 push        esp
  00406858: 64 40              inc         eax
  0040685A: 00 67 64           add         byte ptr [edi+64h],ah
  0040685D: 40                 inc         eax
  0040685E: 00 FD              add         ch,bh
  00406860: 64 40              inc         eax
  00406862: 00 4E 65           add         byte ptr [esi+65h],cl
  00406865: 40                 inc         eax
  00406866: 00 CC              add         ah,cl
  00406868: 65 40              inc         eax
  0040686A: 00 10              add         byte ptr [eax],dl
  0040686C: 66 40              inc         ax
  0040686E: 00 16              add         byte ptr [esi],dl
  00406870: 67 40              inc         eax
  00406872: 00 C7              add         bh,al
  00406874: 67 40              inc         eax
  00406876: 00 80 5E 40 00 15  add         byte ptr [eax+1500405Eh],al
  0040687C: 60                 pushad
  0040687D: 40                 inc         eax
  0040687E: 00 3A              add         byte ptr [edx],bh
  00406880: 60                 pushad
  00406881: 40                 inc         eax
  00406882: 00 48 61           add         byte ptr [eax+61h],cl
  00406885: 40                 inc         eax
  00406886: 00 87 61 40 00 6A  add         byte ptr [edi+6A004061h],al
  0040688C: 63 40 00           arpl        word ptr [eax],ax
  0040688F: BF 5E 40 00 D5     mov         edi,0D500405Eh
  00406894: 67 40              inc         eax
  00406896: 00 53 56           add         byte ptr [ebx+56h],dl
  00406899: 8B 74 24 0C        mov         esi,dword ptr [esp+0Ch]
  0040689D: 57                 push        edi
  0040689E: 8B BE B4 9B 00 00  mov         edi,dword ptr [esi+00009BB4h]
  004068A4: 8B 9E B8 9B 00 00  mov         ebx,dword ptr [esi+00009BB8h]
  004068AA: 3B FB              cmp         edi,ebx
  004068AC: 76 06              jbe         004068B4
  004068AE: 8B 9E B0 9B 00 00  mov         ebx,dword ptr [esi+00009BB0h]
  004068B4: 8B 46 0C           mov         eax,dword ptr [esi+0Ch]
  004068B7: 2B DF              sub         ebx,edi
  004068B9: 3B D8              cmp         ebx,eax
  004068BB: 72 02              jb          004068BF
  004068BD: 8B D8              mov         ebx,eax
  004068BF: 53                 push        ebx
  004068C0: 57                 push        edi
  004068C1: FF 76 08           push        dword ptr [esi+8]
  004068C4: 2B C3              sub         eax,ebx
  004068C6: 89 46 0C           mov         dword ptr [esi+0Ch],eax
  004068C9: E8 D6 ED FF FF     call        004056A4
  004068CE: 01 5E 08           add         dword ptr [esi+8],ebx
  004068D1: 8B 86 B0 9B 00 00  mov         eax,dword ptr [esi+00009BB0h]
  004068D7: 03 FB              add         edi,ebx
  004068D9: 3B F8              cmp         edi,eax
  004068DB: 75 16              jne         004068F3
  004068DD: 39 86 B8 9B 00 00  cmp         dword ptr [esi+00009BB8h],eax
  004068E3: 8D BE B0 1B 00 00  lea         edi,[esi+00001BB0h]
  004068E9: 75 B9              jne         004068A4
  004068EB: 89 BE B8 9B 00 00  mov         dword ptr [esi+00009BB8h],edi
  004068F1: EB B1              jmp         004068A4
  004068F3: 89 BE B4 9B 00 00  mov         dword ptr [esi+00009BB4h],edi
  004068F9: 5F                 pop         edi
  004068FA: 5E                 pop         esi
  004068FB: 5B                 pop         ebx
  004068FC: C2 04 00           ret         4
  004068FF: 55                 push        ebp
  00406900: 8B EC              mov         ebp,esp
  00406902: 81 EC EC 00 00 00  sub         esp,0ECh
  00406908: 53                 push        ebx
  00406909: 56                 push        esi
  0040690A: 8B 75 0C           mov         esi,dword ptr [ebp+0Ch]
  0040690D: 57                 push        edi
  0040690E: 6A 10              push        10h
  00406910: 33 C0              xor         eax,eax
  00406912: 59                 pop         ecx
  00406913: 8D 7D 90           lea         edi,[ebp-70h]
  00406916: F3 AB              rep stos    dword ptr es:[edi]
  00406918: 8B 4D 08           mov         ecx,dword ptr [ebp+8]
  0040691B: 8B D6              mov         edx,esi
  0040691D: 8B 01              mov         eax,dword ptr [ecx]
  0040691F: 83 C1 04           add         ecx,4
  00406922: 8D 44 85 90        lea         eax,[ebp+eax*4-70h]
  00406926: FF 00              inc         dword ptr [eax]
  00406928: 4A                 dec         edx
  00406929: 75 F2              jne         0040691D
  0040692B: 39 75 90           cmp         dword ptr [ebp-70h],esi
  0040692E: 75 13              jne         00406943
  00406930: 8B 45 1C           mov         eax,dword ptr [ebp+1Ch]
  00406933: 83 20 00           and         dword ptr [eax],0
  00406936: 8B 45 20           mov         eax,dword ptr [ebp+20h]
  00406939: 83 20 00           and         dword ptr [eax],0
  0040693C: 33 C0              xor         eax,eax
  0040693E: E9 F0 02 00 00     jmp         00406C33
  00406943: 8B 75 20           mov         esi,dword ptr [ebp+20h]
  00406946: 33 DB              xor         ebx,ebx
  00406948: 43                 inc         ebx
  00406949: 6A 0F              push        0Fh
  0040694B: 8B 3E              mov         edi,dword ptr [esi]
  0040694D: 8B CB              mov         ecx,ebx
  0040694F: 89 7D 20           mov         dword ptr [ebp+20h],edi
  00406952: 5A                 pop         edx
  00406953: 33 C0              xor         eax,eax
  00406955: 39 44 8D 90        cmp         dword ptr [ebp+ecx*4-70h],eax
  00406959: 75 05              jne         00406960
  0040695B: 41                 inc         ecx
  0040695C: 3B CA              cmp         ecx,edx
  0040695E: 76 F3              jbe         00406953
  00406960: 3B F9              cmp         edi,ecx
  00406962: 89 4D FC           mov         dword ptr [ebp-4],ecx
  00406965: 73 03              jae         0040696A
  00406967: 89 4D 20           mov         dword ptr [ebp+20h],ecx
  0040696A: 39 44 95 90        cmp         dword ptr [ebp+edx*4-70h],eax
  0040696E: 75 03              jne         00406973
  00406970: 4A                 dec         edx
  00406971: 75 F7              jne         0040696A
  00406973: 39 55 20           cmp         dword ptr [ebp+20h],edx
  00406976: 89 55 E8           mov         dword ptr [ebp-18h],edx
  00406979: 76 03              jbe         0040697E
  0040697B: 89 55 20           mov         dword ptr [ebp+20h],edx
  0040697E: 8B 7D 20           mov         edi,dword ptr [ebp+20h]
  00406981: 89 3E              mov         dword ptr [esi],edi
  00406983: D3 E3              shl         ebx,cl
  00406985: EB 0D              jmp         00406994
  00406987: 2B 5C 8D 90        sub         ebx,dword ptr [ebp+ecx*4-70h]
  0040698B: 0F 88 9F 02 00 00  js          00406C30
  00406991: 41                 inc         ecx
  00406992: 03 DB              add         ebx,ebx
  00406994: 3B CA              cmp         ecx,edx
  00406996: 72 EF              jb          00406987
  00406998: 8B F2              mov         esi,edx
  0040699A: C1 E6 02           shl         esi,2
  0040699D: 8D 4C 35 90        lea         ecx,[ebp+esi-70h]
  004069A1: 8B 39              mov         edi,dword ptr [ecx]
  004069A3: 2B DF              sub         ebx,edi
  004069A5: 89 5D D0           mov         dword ptr [ebp-30h],ebx
  004069A8: 0F 88 82 02 00 00  js          00406C30
  004069AE: 03 FB              add         edi,ebx
  004069B0: 89 85 54 FF FF FF  mov         dword ptr [ebp+FFFFFF54h],eax
  004069B6: 89 39              mov         dword ptr [ecx],edi
  004069B8: 33 C9              xor         ecx,ecx
  004069BA: 4A                 dec         edx
  004069BB: 74 13              je          004069D0
  004069BD: 33 FF              xor         edi,edi
  004069BF: 03 4C 3D 94        add         ecx,dword ptr [ebp+edi-6Ch]
  004069C3: 83 C7 04           add         edi,4
  004069C6: 4A                 dec         edx
  004069C7: 89 8C 3D 54 FF FF  mov         dword ptr [ebp+edi+FFFFFF54h],ecx
            FF
  004069CE: 75 EF              jne         004069BF
  004069D0: 8B 5D 08           mov         ebx,dword ptr [ebp+8]
  004069D3: 33 FF              xor         edi,edi
  004069D5: 8B 0B              mov         ecx,dword ptr [ebx]
  004069D7: 83 C3 04           add         ebx,4
  004069DA: 3B C8              cmp         ecx,eax
  004069DC: 74 13              je          004069F1
  004069DE: 8D 8C 8D 50 FF FF  lea         ecx,[ebp+ecx*4+FFFFFF50h]
            FF
  004069E5: 8B 11              mov         edx,dword ptr [ecx]
  004069E7: 89 3C 95 F8 CD 42  mov         dword ptr [edx*4+0042CDF8h],edi
            00
  004069EE: 42                 inc         edx
  004069EF: 89 11              mov         dword ptr [ecx],edx
  004069F1: 47                 inc         edi
  004069F2: 3B 7D 0C           cmp         edi,dword ptr [ebp+0Ch]
  004069F5: 72 DE              jb          004069D5
  004069F7: 8B 8C 35 50 FF FF  mov         ecx,dword ptr [ebp+esi+FFFFFF50h]
            FF
  004069FE: 8B 5D 20           mov         ebx,dword ptr [ebp+20h]
  00406A01: 83 4D F4 FF        or          dword ptr [ebp-0Ch],0FFFFFFFFh
  00406A05: 83 65 DC 00        and         dword ptr [ebp-24h],0
  00406A09: 89 4D 0C           mov         dword ptr [ebp+0Ch],ecx
  00406A0C: 8B 4D FC           mov         ecx,dword ptr [ebp-4]
  00406A0F: F7 DB              neg         ebx
  00406A11: 3B 4D E8           cmp         ecx,dword ptr [ebp-18h]
  00406A14: 89 45 F8           mov         dword ptr [ebp-8],eax
  00406A17: 89 85 50 FF FF FF  mov         dword ptr [ebp+FFFFFF50h],eax
  00406A1D: C7 45 E0 F8 CD 42  mov         dword ptr [ebp-20h],42CDF8h
            00
  00406A24: 89 85 14 FF FF FF  mov         dword ptr [ebp+FFFFFF14h],eax
  00406A2A: 0F 8F F3 01 00 00  jg          00406C23
  00406A30: 8D 51 FF           lea         edx,[ecx-1]
  00406A33: 8D 4C 8D 90        lea         ecx,[ebp+ecx*4-70h]
  00406A37: 89 55 D8           mov         dword ptr [ebp-28h],edx
  00406A3A: 89 4D E4           mov         dword ptr [ebp-1Ch],ecx
  00406A3D: 8B 4D E4           mov         ecx,dword ptr [ebp-1Ch]
  00406A40: 8B 31              mov         esi,dword ptr [ecx]
  00406A42: 85 F6              test        esi,esi
  00406A44: 0F 84 C3 01 00 00  je          00406C0D
  00406A4A: EB 03              jmp         00406A4F
  00406A4C: 8B 75 D4           mov         esi,dword ptr [ebp-2Ch]
  00406A4F: 8B 4D 20           mov         ecx,dword ptr [ebp+20h]
  00406A52: 4E                 dec         esi
  00406A53: 03 CB              add         ecx,ebx
  00406A55: 89 75 D4           mov         dword ptr [ebp-2Ch],esi
  00406A58: 39 4D FC           cmp         dword ptr [ebp-4],ecx
  00406A5B: 89 4D EC           mov         dword ptr [ebp-14h],ecx
  00406A5E: 0F 8E CC 00 00 00  jle         00406B30
  00406A64: 46                 inc         esi
  00406A65: 89 75 F0           mov         dword ptr [ebp-10h],esi
  00406A68: 8B 75 E8           mov         esi,dword ptr [ebp-18h]
  00406A6B: FF 45 F4           inc         dword ptr [ebp-0Ch]
  00406A6E: 2B 75 EC           sub         esi,dword ptr [ebp-14h]
  00406A71: 3B 75 20           cmp         esi,dword ptr [ebp+20h]
  00406A74: 76 03              jbe         00406A79
  00406A76: 8B 75 20           mov         esi,dword ptr [ebp+20h]
  00406A79: 8B 4D FC           mov         ecx,dword ptr [ebp-4]
  00406A7C: 33 D2              xor         edx,edx
  00406A7E: 2B 4D EC           sub         ecx,dword ptr [ebp-14h]
  00406A81: 42                 inc         edx
  00406A82: D3 E2              shl         edx,cl
  00406A84: 3B 55 F0           cmp         edx,dword ptr [ebp-10h]
  00406A87: 76 23              jbe         00406AAC
  00406A89: 8B 7D E4           mov         edi,dword ptr [ebp-1Ch]
  00406A8C: 83 C8 FF           or          eax,0FFFFFFFFh
  00406A8F: 2B 45 D4           sub         eax,dword ptr [ebp-2Ch]
  00406A92: 03 D0              add         edx,eax
  00406A94: 3B CE              cmp         ecx,esi
  00406A96: 73 14              jae         00406AAC
  00406A98: EB 0D              jmp         00406AA7
  00406A9A: 83 C7 04           add         edi,4
  00406A9D: 03 D2              add         edx,edx
  00406A9F: 8B 07              mov         eax,dword ptr [edi]
  00406AA1: 3B D0              cmp         edx,eax
  00406AA3: 76 07              jbe         00406AAC
  00406AA5: 2B D0              sub         edx,eax
  00406AA7: 41                 inc         ecx
  00406AA8: 3B CE              cmp         ecx,esi
  00406AAA: 72 EE              jb          00406A9A
  00406AAC: 8B 55 28           mov         edx,dword ptr [ebp+28h]
  00406AAF: 33 C0              xor         eax,eax
  00406AB1: 40                 inc         eax
  00406AB2: 8B 12              mov         edx,dword ptr [edx]
  00406AB4: D3 E0              shl         eax,cl
  00406AB6: 89 45 DC           mov         dword ptr [ebp-24h],eax
  00406AB9: 8D 3C 02           lea         edi,[edx+eax]
  00406ABC: 81 FF A0 05 00 00  cmp         edi,5A0h
  00406AC2: 0F 87 68 01 00 00  ja          00406C30
  00406AC8: 8B 45 24           mov         eax,dword ptr [ebp+24h]
  00406ACB: 8D 04 90           lea         eax,[eax+edx*4]
  00406ACE: 8B 55 F4           mov         edx,dword ptr [ebp-0Ch]
  00406AD1: 8D B4 95 14 FF FF  lea         esi,[ebp+edx*4+FFFFFF14h]
            FF
  00406AD8: 8B 55 28           mov         edx,dword ptr [ebp+28h]
  00406ADB: 89 3A              mov         dword ptr [edx],edi
  00406ADD: 8B 55 F4           mov         edx,dword ptr [ebp-0Ch]
  00406AE0: 85 D2              test        edx,edx
  00406AE2: 89 06              mov         dword ptr [esi],eax
  00406AE4: 74 31              je          00406B17
  00406AE6: 8B 7D F8           mov         edi,dword ptr [ebp-8]
  00406AE9: 8B 76 FC           mov         esi,dword ptr [esi-4]
  00406AEC: 89 BC 95 50 FF FF  mov         dword ptr [ebp+edx*4+FFFFFF50h],edi
            FF
  00406AF3: 8A 55 20           mov         dl,byte ptr [ebp+20h]
  00406AF6: 88 55 09           mov         byte ptr [ebp+9],dl
  00406AF9: 88 4D 08           mov         byte ptr [ebp+8],cl
  00406AFC: 8B D7              mov         edx,edi
  00406AFE: 8B CB              mov         ecx,ebx
  00406B00: D3 EA              shr         edx,cl
  00406B02: 8B C8              mov         ecx,eax
  00406B04: 2B CE              sub         ecx,esi
  00406B06: C1 F9 02           sar         ecx,2
  00406B09: 2B CA              sub         ecx,edx
  00406B0B: 66 89 4D 0A        mov         word ptr [ebp+0Ah],cx
  00406B0F: 8B 4D 08           mov         ecx,dword ptr [ebp+8]
  00406B12: 89 0C 96           mov         dword ptr [esi+edx*4],ecx
  00406B15: EB 05              jmp         00406B1C
  00406B17: 8B 4D 1C           mov         ecx,dword ptr [ebp+1Ch]
  00406B1A: 89 01              mov         dword ptr [ecx],eax
  00406B1C: 8B 4D EC           mov         ecx,dword ptr [ebp-14h]
  00406B1F: 8B D9              mov         ebx,ecx
  00406B21: 03 4D 20           add         ecx,dword ptr [ebp+20h]
  00406B24: 39 4D FC           cmp         dword ptr [ebp-4],ecx
  00406B27: 89 4D EC           mov         dword ptr [ebp-14h],ecx
  00406B2A: 0F 8F 38 FF FF FF  jg          00406A68
  00406B30: 8A 4D FC           mov         cl,byte ptr [ebp-4]
  00406B33: 8B 75 E0           mov         esi,dword ptr [ebp-20h]
  00406B36: 2A CB              sub         cl,bl
  00406B38: 88 4D 09           mov         byte ptr [ebp+9],cl
  00406B3B: 8B 4D 0C           mov         ecx,dword ptr [ebp+0Ch]
  00406B3E: 8D 0C 8D F8 CD 42  lea         ecx,[ecx*4+0042CDF8h]
            00
  00406B45: 3B F1              cmp         esi,ecx
  00406B47: 72 06              jb          00406B4F
  00406B49: C6 45 08 C0        mov         byte ptr [ebp+8],0C0h
  00406B4D: EB 43              jmp         00406B92
  00406B4F: 8B 0E              mov         ecx,dword ptr [esi]
  00406B51: 3B 4D 10           cmp         ecx,dword ptr [ebp+10h]
  00406B54: 73 1C              jae         00406B72
  00406B56: 81 F9 00 01 00 00  cmp         ecx,100h
  00406B5C: 0F 92 C1           setb        cl
  00406B5F: FE C9              dec         cl
  00406B61: 83 E1 60           and         ecx,60h
  00406B64: 88 4D 08           mov         byte ptr [ebp+8],cl
  00406B67: 66 8B 0E           mov         cx,word ptr [esi]
  00406B6A: 83 C6 04           add         esi,4
  00406B6D: 89 75 E0           mov         dword ptr [ebp-20h],esi
  00406B70: EB 1C              jmp         00406B8E
  00406B72: 2B 4D 10           sub         ecx,dword ptr [ebp+10h]
  00406B75: 8B 55 18           mov         edx,dword ptr [ebp+18h]
  00406B78: 03 C9              add         ecx,ecx
  00406B7A: 8A 14 11           mov         dl,byte ptr [ecx+edx]
  00406B7D: 80 C2 50           add         dl,50h
  00406B80: 83 45 E0 04        add         dword ptr [ebp-20h],4
  00406B84: 88 55 08           mov         byte ptr [ebp+8],dl
  00406B87: 8B 55 14           mov         edx,dword ptr [ebp+14h]
  00406B8A: 66 8B 0C 11        mov         cx,word ptr [ecx+edx]
  00406B8E: 66 89 4D 0A        mov         word ptr [ebp+0Ah],cx
  00406B92: 8B 4D FC           mov         ecx,dword ptr [ebp-4]
  00406B95: 8B 55 F8           mov         edx,dword ptr [ebp-8]
  00406B98: 33 FF              xor         edi,edi
  00406B9A: 2B CB              sub         ecx,ebx
  00406B9C: 47                 inc         edi
  00406B9D: 8B F7              mov         esi,edi
  00406B9F: D3 E6              shl         esi,cl
  00406BA1: 8B CB              mov         ecx,ebx
  00406BA3: D3 EA              shr         edx,cl
  00406BA5: EB 08              jmp         00406BAF
  00406BA7: 8B 4D 08           mov         ecx,dword ptr [ebp+8]
  00406BAA: 89 0C 90           mov         dword ptr [eax+edx*4],ecx
  00406BAD: 03 D6              add         edx,esi
  00406BAF: 3B 55 DC           cmp         edx,dword ptr [ebp-24h]
  00406BB2: 72 F3              jb          00406BA7
  00406BB4: 8B 4D D8           mov         ecx,dword ptr [ebp-28h]
  00406BB7: 8B 75 F8           mov         esi,dword ptr [ebp-8]
  00406BBA: 8B D7              mov         edx,edi
  00406BBC: D3 E2              shl         edx,cl
  00406BBE: EB 04              jmp         00406BC4
  00406BC0: 33 F2              xor         esi,edx
  00406BC2: D1 EA              shr         edx,1
  00406BC4: 85 D6              test        esi,edx
  00406BC6: 75 F8              jne         00406BC0
  00406BC8: 8B CF              mov         ecx,edi
  00406BCA: 33 F2              xor         esi,edx
  00406BCC: 89 4D F0           mov         dword ptr [ebp-10h],ecx
  00406BCF: 8B CB              mov         ecx,ebx
  00406BD1: 8B D7              mov         edx,edi
  00406BD3: 89 75 F8           mov         dword ptr [ebp-8],esi
  00406BD6: D3 E2              shl         edx,cl
  00406BD8: 4A                 dec         edx
  00406BD9: 23 D6              and         edx,esi
  00406BDB: 8B CA              mov         ecx,edx
  00406BDD: 8B 55 F4           mov         edx,dword ptr [ebp-0Ch]
  00406BE0: 3B 8C 95 50 FF FF  cmp         ecx,dword ptr [ebp+edx*4+FFFFFF50h]
            FF
  00406BE7: 74 1A              je          00406C03
  00406BE9: 2B 5D 20           sub         ebx,dword ptr [ebp+20h]
  00406BEC: 8B F7              mov         esi,edi
  00406BEE: 4A                 dec         edx
  00406BEF: 8B CB              mov         ecx,ebx
  00406BF1: D3 E6              shl         esi,cl
  00406BF3: 4E                 dec         esi
  00406BF4: 23 75 F8           and         esi,dword ptr [ebp-8]
  00406BF7: 3B B4 95 50 FF FF  cmp         esi,dword ptr [ebp+edx*4+FFFFFF50h]
            FF
  00406BFE: 75 E9              jne         00406BE9
  00406C00: 89 55 F4           mov         dword ptr [ebp-0Ch],edx
  00406C03: 83 7D D4 00        cmp         dword ptr [ebp-2Ch],0
  00406C07: 0F 85 3F FE FF FF  jne         00406A4C
  00406C0D: FF 45 FC           inc         dword ptr [ebp-4]
  00406C10: 83 45 E4 04        add         dword ptr [ebp-1Ch],4
  00406C14: 8B 4D FC           mov         ecx,dword ptr [ebp-4]
  00406C17: FF 45 D8           inc         dword ptr [ebp-28h]
  00406C1A: 3B 4D E8           cmp         ecx,dword ptr [ebp-18h]
  00406C1D: 0F 8E 1A FE FF FF  jle         00406A3D
  00406C23: 33 C0              xor         eax,eax
  00406C25: 39 45 D0           cmp         dword ptr [ebp-30h],eax
  00406C28: 74 09              je          00406C33
  00406C2A: 83 7D E8 01        cmp         dword ptr [ebp-18h],1
  00406C2E: 74 03              je          00406C33
  00406C30: 83 C8 FF           or          eax,0FFFFFFFFh
  00406C33: 5F                 pop         edi
  00406C34: 5E                 pop         esi
  00406C35: 5B                 pop         ebx
  00406C36: C9                 leave
  00406C37: C2 24 00           ret         24h
  00406C3A: FF 25 70 72 40 00  jmp         dword ptr ds:[00407270h]
  00406C40: FF 25 6C 72 40 00  jmp         dword ptr ds:[0040726Ch]
  00406C46: FF 25 68 72 40 00  jmp         dword ptr ds:[00407268h]

  Summary

       26000 .data
        B000 .ndata
        2000 .rdata
        1000 .rsrc
        6000 .text

C:\Program Files (x86)\Microsoft Visual Studio\2019\Community\VC\Tools\MSVC\14.29.30133\bin\Hostx64\x86>